EXPORTS
    _Z10log_printf14sd_log_level_tPKciS1_z @1
    _Z10prop_hypotP11ggml_tensorS0_S0_ @2
    _Z10read_shortPh @3
    _Z10unpatchifyP12ggml_contextP11ggml_tensorxx @4
    _Z11file_existsRKNSt3__112basic_stringIcNS_11char_traitsIcEENS_9allocatorIcEEEE @5
    _Z11interpolateffffff @6
    _Z11is_zip_fileRKNSt3__112basic_stringIcNS_11char_traitsIcEENS_9allocatorIcEEEE @7
    _Z11round_up_toii @8
    _Z11starts_withRKNSt3__112basic_stringIcNS_11char_traitsIcEENS_9allocatorIcEEEES7_ @9
    _Z11starts_withRKNSt3__16vectorIDiNS_9allocatorIDiEEEES5_y @10
    _Z11suppress_ppiifPv @11
    _Z11token_splitRKNSt3__112basic_stringIcNS_11char_traitsIcEENS_9allocatorIcEEEE @12
    _Z12is_directoryRKNSt3__112basic_stringIcNS_11char_traitsIcEENS_9allocatorIcEEEE @13
    _Z12is_gguf_fileRKNSt3__112basic_stringIcNS_11char_traitsIcEENS_9allocatorIcEEEE @14
    _Z12linear_spaceffy @15
    _Z12prop_arctan2P11ggml_tensorS0_S0_ @16
    _Z12split_stringRKNSt3__112basic_stringIcNS_11char_traitsIcEENS_9allocatorIcEEEEc @17
    _Z12str_to_lowerRKNSt3__112basic_stringIcNS_11char_traitsIcEENS_9allocatorIcEEEE @18
    _Z13linear_interpNSt3__16vectorIfNS_9allocatorIfEEEES3_S3_ @19
    _Z13utf32_to_utf8RKNSt3__112basic_stringIDiNS_11char_traitsIDiEENS_9allocatorIDiEEEE @20
    _Z13utf8_to_utf32RKNSt3__112basic_stringIcNS_11char_traitsIcEENS_9allocatorIcEEEE @21
    _Z14convert_tensorPv9ggml_typeS_S0_ii @22
    _Z14f64_to_f32_vecPdPfx @23
    _Z14f8_e4m3_to_f16h @24
    _Z14f8_e5m2_to_f16h @25
    _Z14has_nan_unsafePK11ggml_tensor @26
    _Z14i64_to_i32_vecPxPix @27
    _Z14parse_scm_maskRKNSt3__112basic_stringIcNS_11char_traitsIcEENS_9allocatorIcEEEE @28
    _Z14time_snr_shiftff @29
    _Z15clip_preprocess14sd_image_f32_tii @30
    _Z15flux_time_shiftfff @31
    _Z15gaussian_kernelP11ggml_tensor @32
    _Z15pretty_progressiif @33
    _Z16is_unused_tensorNSt3__112basic_stringIcNS_11char_traitsIcEENS_9allocatorIcEEEE @34
    _Z16normalize_tensorP11ggml_tensor @35
    _Z16str_to_ggml_typeRKNSt3__112basic_stringIcNS_11char_traitsIcEENS_9allocatorIcEEEE @36
    _Z17codepoint_to_utf8Di @37
    _Z17convert_pmid_nameRKNSt3__112basic_stringIcNS_11char_traitsIcEENS_9allocatorIcEEEE @38
    _Z17replace_all_charsRNSt3__112basic_stringIcNS_11char_traitsIcEENS_9allocatorIcEEEEcc @39
    _Z18convert_sep_to_dotNSt3__112basic_stringIcNS_11char_traitsIcEENS_9allocatorIcEEEE @40
    _Z18f8_e4m3_to_f16_vecPhPtx @41
    _Z18f8_e5m2_to_f16_vecPhPtx @42
    _Z18non_max_supressionP11ggml_tensorS0_S0_ @43
    _Z18utf8_to_codepointsRKNSt3__112basic_stringIcNS_11char_traitsIcEENS_9allocatorIcEEEE @44
    _Z19convert_tensor_nameNSt3__112basic_stringIcNS_11char_traitsIcEENS_9allocatorIcEEEE9SDVersion @45
    _Z19is_safetensors_fileRKNSt3__112basic_stringIcNS_11char_traitsIcEENS_9allocatorIcEEEE @46
    _Z19sd_get_preview_modev @47
    _Z19threshold_hystersisP11ggml_tensorffff @48
    _Z20convert_pmid_v2_nameRKNSt3__112basic_stringIcNS_11char_traitsIcEENS_9allocatorIcEEEE @49
    _Z20preview_latent_videoPhP11ggml_tensorPA3_KfPS2_i @50
    _Z21replace_with_name_mapRNSt3__112basic_stringIcNS_11char_traitsIcEENS_9allocatorIcEEEERKNS_6vectorINS_4pairIS5_S5_EENS3_IS9_EEEE @51
    _Z21resize_sd_image_f32_t14sd_image_f32_tii @52
    _Z22parse_prompt_attentionRKNSt3__112basic_stringIcNS_11char_traitsIcEENS_9allocatorIcEEEE @53
    _Z22unicode_value_to_utf32i @54
    _Z23generate_image_internalP8sd_ctx_tP12ggml_contextP11ggml_tensorNSt3__112basic_stringIcNS5_11char_traitsIcEENS5_9allocatorIcEEEESB_i20sd_guidance_params_tfiii15sample_method_tRKNS5_6vectorIfNS9_IfEEEExi10sd_image_tf14sd_pm_params_tNSE @55
    _Z23is_diffusion_model_nameRKNSt3__112basic_stringIcNS_11char_traitsIcEENS_9allocatorIcEEEE @56
    _Z23replace_with_prefix_mapRNSt3__112basic_stringIcNS_11char_traitsIcEENS_9allocatorIcEEEERKNS_13unordered_mapIS5_S5_NS_4hashIS5_EENS_8equal_toIS5_EENS3_INS_4pairIKS5_S5_EEEEEE @57
    _Z23replace_with_prefix_mapRNSt3__112basic_stringIcNS_11char_traitsIcEENS_9allocatorIcEEEERKNS_6vectorINS_4pairIS5_S5_EENS3_IS9_EEEE @58
    _Z23sd_get_preview_callbackv @59
    _Z23sd_get_preview_intervalv @60
    _Z23sd_should_preview_noisyv @61
    _Z24calculate_alphas_cumprodPfffi @62
    _Z24is_cond_stage_model_nameRKNSt3__112basic_stringIcNS_11char_traitsIcEENS_9allocatorIcEEEE @63
    _Z24log_linear_interpolationNSt3__16vectorIfNS_9allocatorIfEEEEy @64
    _Z24normalize_sd_image_f32_t14sd_image_f32_tPfS0_ @65
    _Z24sd_get_progress_callbackv @66
    _Z25is_first_stage_model_nameRKNSt3__112basic_stringIcNS_11char_traitsIcEENS_9allocatorIcEEEE @67
    _Z25split_with_special_tokensRKNSt3__112basic_stringIcNS_11char_traitsIcEENS_9allocatorIcEEEERKNS_6vectorIS5_NS3_IS5_EEEE @68
    _Z26sd_should_preview_denoisedv @69
    _Z28convert_diffusion_model_nameNSt3__112basic_stringIcNS_11char_traitsIcEENS_9allocatorIcEEEES5_9SDVersion @70
    _Z28sd_get_preview_callback_datav @71
    _Z28sd_image_t_to_sd_image_f32_t10sd_image_t @72
    _Z29convert_cond_stage_model_nameNSt3__112basic_stringIcNS_11char_traitsIcEENS_9allocatorIcEEEES5_ @73
    _Z29sd_get_progress_callback_datav @74
    _Z30convert_first_stage_model_nameNSt3__112basic_stringIcNS_11char_traitsIcEENS_9allocatorIcEEEES5_ @75
    _Z33convert_open_clip_to_hf_clip_nameNSt3__112basic_stringIcNS_11char_traitsIcEENS_9allocatorIcEEEE @76
    _Z37convert_diffusers_dit_to_original_sd3NSt3__112basic_stringIcNS_11char_traitsIcEENS_9allocatorIcEEEE @77
    _Z37convert_diffusers_vae_to_original_sd1NSt3__112basic_stringIcNS_11char_traitsIcEENS_9allocatorIcEEEE @78
    _Z38convert_diffusers_dit_to_original_fluxNSt3__112basic_stringIcNS_11char_traitsIcEENS_9allocatorIcEEEE @79
    _Z38convert_diffusers_unet_to_original_sd1NSt3__112basic_stringIcNS_11char_traitsIcEENS_9allocatorIcEEEE @80
    _Z39convert_diffusers_unet_to_original_sdxlNSt3__112basic_stringIcNS_11char_traitsIcEENS_9allocatorIcEEEE @81
    _Z41convert_diffusers_dit_to_original_lumina2NSt3__112basic_stringIcNS_11char_traitsIcEENS_9allocatorIcEEEE @82
    _Z4trimRKNSt3__112basic_stringIcNS_11char_traitsIcEENS_9allocatorIcEEEE @83
    _Z5ltrimRKNSt3__112basic_stringIcNS_11char_traitsIcEENS_9allocatorIcEEEE @84
    _Z5rtrimRKNSt3__112basic_stringIcNS_11char_traitsIcEENS_9allocatorIcEEEE @85
    _Z7has_nanP11ggml_tensorPKc @86
    _Z8containsRKNSt3__112basic_stringIcNS_11char_traitsIcEENS_9allocatorIcEEEES7_ @87
    _Z8convolveP11ggml_tensorS0_S0_i @88
    _Z8is_spaceDi @89
    _Z8patchifyP12ggml_contextP11ggml_tensorxx @90
    _Z8read_intPh @91
    _Z8read_u64Ph @92
    _Z9ends_withRKNSt3__112basic_stringIcNS_11char_traitsIcEENS_9allocatorIcEEEES7_ @93
    _Z9find_charPhic @94
    _Z9grayscaleP11ggml_tensorS0_ @95
    _Z9is_letterDi @96
    _Z9is_numberDi @97
    _Z9path_joinRKNSt3__112basic_stringIcNS_11char_traitsIcEENS_9allocatorIcEEEES7_ @98
    _Z9sd_formatPKcz @99
    _ZGVZN19StableDiffusionGGML25load_lora_model_from_fileERKNSt3__112basic_stringIcNS0_11char_traitsIcEENS0_9allocatorIcEEEEfP12ggml_backendNS0_8functionIFbS8_EEEE14high_noise_tag @100
    _ZN10ControlNet11build_graphEP11ggml_tensorS1_S1_S1_S1_ @101
    _ZN10ControlNet14load_from_fileERKNSt3__112basic_stringIcNS0_11char_traitsIcEENS0_9allocatorIcEEEEi @102
    _ZN10ControlNet17alloc_control_ctxENSt3__16vectorIP11ggml_tensorNS0_9allocatorIS3_EEEE @103
    _ZN10ControlNet7computeEiP11ggml_tensorS1_S1_S1_S1_PS1_P12ggml_context @104
    _ZN10ControlNet8get_descEv @105
    _ZN10ControlNetC2EP12ggml_backendbRK10OrderedMapINSt3__112basic_stringIcNS3_11char_traitsIcEENS3_9allocatorIcEEEE13TensorStorageE9SDVersion @106
    _ZN10ControlNetD0Ev @107
    _ZN10ControlNetD2Ev @108
    _ZN10FinalLayer7forwardEP17GGMLRunnerContextP11ggml_tensorS3_ @109
    _ZN10FinalLayerC2Exxx @110
    _ZN10FuseModule7forwardEP17GGMLRunnerContextP11ggml_tensorS3_S3_S3_S3_S3_ @111
    _ZN10FuseModule7fuse_fnEP17GGMLRunnerContextP11ggml_tensorS3_ @112
    _ZN10FuseModuleC2Ei @113
    _ZN10GGMLRunner10to_backendEP11ggml_tensor @114
    _ZN10GGMLRunner11get_contextEv @115
    _ZN10GGMLRunner16alloc_params_ctxEv @116
    _ZN10GGMLRunner17get_compute_graphENSt3__18functionIFP11ggml_cgraphvEEE @117
    _ZN10GGMLRunner19alloc_params_bufferEv @118
    _ZN10GGMLRunner20alloc_compute_bufferENSt3__18functionIFP11ggml_cgraphvEEE @119
    _ZN10GGMLRunner30prepare_build_in_tensor_beforeEv @120
    _ZN10GGMLRunner32offload_params_to_params_backendEv @121
    _ZN10GGMLRunner33offload_params_to_runtime_backendEv @122
    _ZN10GGMLRunner34copy_cache_tensors_to_cache_bufferEv @123
    _ZN10GGMLRunner7computeENSt3__18functionIFP11ggml_cgraphvEEEibPP11ggml_tensorP12ggml_context @124
    _ZN10GGMLRunnerC2EP12ggml_backendb @125
    _ZN10GGMLRunnerD0Ev @126
    _ZN10GGMLRunnerD2Ev @127
    _ZN10GGUFReader13read_metadataERNSt3__114basic_ifstreamIcNS0_11char_traitsIcEEEE @128
    _ZN10GGUFReader16read_tensor_infoERNSt3__114basic_ifstreamIcNS0_11char_traitsIcEEEE @129
    _ZN10GGUFReader4loadERKNSt3__112basic_stringIcNS0_11char_traitsIcEENS0_9allocatorIcEEEE @130
    _ZN10GGUFReaderD2Ev @131
    _ZN10JointBlock7forwardEP17GGMLRunnerContextP11ggml_tensorS3_S3_ @132
    _ZN10JointBlockC2ExxfNSt3__112basic_stringIcNS0_11char_traitsIcEENS0_9allocatorIcEEEEbbb @133
    _ZN10MMDiTModel17get_param_tensorsERNSt3__13mapINS0_12basic_stringIcNS0_11char_traitsIcEENS0_9allocatorIcEEEEP11ggml_tensorNS0_4lessIS7_EENS5_INS0_4pairIKS7_S9_EEEEEE @134
    _ZN10MMDiTModel17set_circular_axesEbb @135
    _ZN10MMDiTModel18free_params_bufferEv @136
    _ZN10MMDiTModel18set_weight_adapterERKNSt3__110shared_ptrI13WeightAdapterEE @137
    _ZN10MMDiTModel19alloc_params_bufferEv @138
    _ZN10MMDiTModel19free_compute_bufferEv @139
    _ZN10MMDiTModel19get_adm_in_channelsEv @140
    _ZN10MMDiTModel22get_params_buffer_sizeEv @141
    _ZN10MMDiTModel27set_flash_attention_enabledEb @142
    _ZN10MMDiTModel7computeEi15DiffusionParamsPP11ggml_tensorP12ggml_context @143
    _ZN10MMDiTModel8get_descEv @144
    _ZN10MT19937RNG11manual_seedEy @145
    _ZN10MT19937RNG11rand_uint32Ev @146
    _ZN10MT19937RNG19normal_double_valueEdd @147
    _ZN10MT19937RNG5randnEPfxff @148
    _ZN10MT19937RNG5randnEj @149
    _ZN10OrderedMapINSt3__112basic_stringIcNS0_11char_traitsIcEENS0_9allocatorIcEEEE13TensorStorageED2Ev @150
    _ZN10OrderedMapINSt3__112basic_stringIcNS0_11char_traitsIcEENS0_9allocatorIcEEEE13TensorStorageEixERKS6_ @151
    _ZN10PatchEmbed7forwardEP17GGMLRunnerContextP11ggml_tensor @152
    _ZN10PatchEmbedC2Exixxbbb @153
    _ZN11CLIPEncoder7forwardEP17GGMLRunnerContextP11ggml_tensorS3_i @154
    _ZN11CLIPEncoderC2Eixxxb @155
    _ZN11Conditioner26remove_trigger_from_promptEP12ggml_contextRKNSt3__112basic_stringIcNS2_11char_traitsIcEENS2_9allocatorIcEEEE @156
    _ZN11Conditioner34get_learned_condition_with_triggerEP12ggml_contextiRK17ConditionerParams @157
    _ZN11FeedForward7forwardEP17GGMLRunnerContextP11ggml_tensor @158
    _ZN11FeedForwardC2ExxxNS_10ActivationEb @159
    _ZN11GGMLPrinter15print_recursiveEPK11ggml_tensorixii @160
    _ZN11GGMLPrinter5printEPK11ggml_tensorii @161
    _ZN11LLMEmbedder17get_param_tensorsERNSt3__13mapINS0_12basic_stringIcNS0_11char_traitsIcEENS0_9allocatorIcEEEEP11ggml_tensorNS0_4lessIS7_EENS5_INS0_4pairIKS7_S9_EEEEEE @162
    _ZN11LLMEmbedder18free_params_bufferEv @163
    _ZN11LLMEmbedder18set_weight_adapterERKNSt3__110shared_ptrI13WeightAdapterEE @164
    _ZN11LLMEmbedder19alloc_params_bufferEv @165
    _ZN11LLMEmbedder21get_learned_conditionEP12ggml_contextiRK17ConditionerParams @166
    _ZN11LLMEmbedder22get_params_buffer_sizeEv @167
    _ZN11LLMEmbedder27set_flash_attention_enabledEb @168
    _ZN11LLMEmbedder8tokenizeENSt3__112basic_stringIcNS0_11char_traitsIcEENS0_9allocatorIcEEEENS0_4pairIiiEEyb @169
    _ZN11LLMEmbedderC2EP12ggml_backendbRK10OrderedMapINSt3__112basic_stringIcNS3_11char_traitsIcEENS3_9allocatorIcEEEE13TensorStorageE9SDVersionS9_b @170
    _ZN11MMDiTRunner11build_graphEP11ggml_tensorS1_S1_S1_NSt3__16vectorIiNS2_9allocatorIiEEEE @171
    _ZN11MMDiTRunner8get_descEv @172
    _ZN11MMDiTRunnerC2EP12ggml_backendbRK10OrderedMapINSt3__112basic_stringIcNS3_11char_traitsIcEENS3_9allocatorIcEEEE13TensorStorageES9_ @173
    _ZN11MMDiTRunnerD0Ev @174
    _ZN11MMDiTRunnerD2Ev @175
    _ZN11MmapWrapper6createERKNSt3__112basic_stringIcNS0_11char_traitsIcEENS0_9allocatorIcEEEE @176
    _ZN11ModelLoader11load_mergesEv @177
    _ZN11ModelLoader12load_tensorsENSt3__18functionIFbRK13TensorStoragePP11ggml_tensorEEEib @178
    _ZN11ModelLoader12load_tensorsERNSt3__13mapINS0_12basic_stringIcNS0_11char_traitsIcEENS0_9allocatorIcEEEEP11ggml_tensorNS0_4lessIS7_EENS5_INS0_4pairIKS7_S9_EEEEEENS0_3setIS7_SB_NS5_IS7_EEEEib @179
    _ZN11ModelLoader14get_sd_versionEv @180
    _ZN11ModelLoader14get_wtype_statEv @181
    _ZN11ModelLoader14init_from_fileERKNSt3__112basic_stringIcNS0_11char_traitsIcEENS0_9allocatorIcEEEES8_ @182
    _ZN11ModelLoader14parse_data_pklEPhyP5zip_tNSt3__112basic_stringIcNS3_11char_traitsIcEENS3_9allocatorIcEEEEyS9_ @183
    _ZN11ModelLoader17load_qwen2_mergesEv @184
    _ZN11ModelLoader17save_to_gguf_fileERKNSt3__112basic_stringIcNS0_11char_traitsIcEENS0_9allocatorIcEEEE9ggml_typeS8_ @185
    _ZN11ModelLoader18add_tensor_storageERK13TensorStorage @186
    _ZN11ModelLoader18get_vae_wtype_statEv @187
    _ZN11ModelLoader18set_wtype_overrideE9ggml_typeNSt3__112basic_stringIcNS1_11char_traitsIcEENS1_9allocatorIcEEEE @188
    _ZN11ModelLoader19get_params_mem_sizeEP12ggml_backend9ggml_type @189
    _ZN11ModelLoader19init_from_ckpt_fileERKNSt3__112basic_stringIcNS0_11char_traitsIcEENS0_9allocatorIcEEEES8_ @190
    _ZN11ModelLoader19init_from_gguf_fileERKNSt3__112basic_stringIcNS0_11char_traitsIcEENS0_9allocatorIcEEEES8_ @191
    _ZN11ModelLoader19load_mistral_mergesEv @192
    _ZN11ModelLoader20convert_tensors_nameEv @193
    _ZN11ModelLoader22load_t5_tokenizer_jsonEv @194
    _ZN11ModelLoader23load_mistral_vocab_jsonEv @195
    _ZN11ModelLoader24init_from_diffusers_fileERKNSt3__112basic_stringIcNS0_11char_traitsIcEENS0_9allocatorIcEEEES8_ @196
    _ZN11ModelLoader24load_umt5_tokenizer_jsonEv @197
    _ZN11ModelLoader26get_conditioner_wtype_statEv @198
    _ZN11ModelLoader26init_from_safetensors_fileERKNSt3__112basic_stringIcNS0_11char_traitsIcEENS0_9allocatorIcEEEES8_ @199
    _ZN11ModelLoader26tensor_should_be_convertedERK13TensorStorage9ggml_type @200
    _ZN11ModelLoader30get_diffusion_model_wtype_statEv @201
    _ZN11ModelLoader31init_from_file_and_convert_nameERKNSt3__112basic_stringIcNS0_11char_traitsIcEENS0_9allocatorIcEEEES8_9SDVersion @202
    _ZN11ModelLoaderD2Ev @203
    _ZN11ResnetBlock7forwardEP17GGMLRunnerContextP11ggml_tensor @204
    _ZN11ResnetBlockC2Exx @205
    _ZN11T5Attention12compute_biasEP17GGMLRunnerContextP11ggml_tensor @206
    _ZN11T5Attention7forwardEP17GGMLRunnerContextP11ggml_tensorS3_S3_S3_ @207
    _ZN11T5AttentionC2Exxxb @208
    _ZN11T5LayerNorm11init_paramsEP12ggml_contextRK10OrderedMapINSt3__112basic_stringIcNS3_11char_traitsIcEENS3_9allocatorIcEEEE13TensorStorageES9_ @209
    _ZN11T5LayerNorm7forwardEP17GGMLRunnerContextP11ggml_tensor @210
    _ZN11TinyDecoder7forwardEP17GGMLRunnerContextP11ggml_tensor @211
    _ZN11TinyDecoderC2Eib @212
    _ZN11TinyEncoder7forwardEP17GGMLRunnerContextP11ggml_tensor @213
    _ZN11TinyEncoderC2Eib @214
    _ZN11UCacheState11apply_cacheEPK11SDConditionP11ggml_tensorS4_ @215
    _ZN11UCacheState12update_cacheEPK11SDConditionP11ggml_tensorS4_ @216
    _ZN11UCacheState15after_conditionEPK11SDConditionP11ggml_tensorS4_ @217
    _ZN11UCacheState16before_conditionEPK11SDConditionP11ggml_tensorS4_fi @218
    _ZN11UCacheState4initERK12UCacheConfigP8Denoiser @219
    _ZN11UCacheStateD2Ev @220
    _ZN11ZImageModel17get_param_tensorsERNSt3__13mapINS0_12basic_stringIcNS0_11char_traitsIcEENS0_9allocatorIcEEEEP11ggml_tensorNS0_4lessIS7_EENS5_INS0_4pairIKS7_S9_EEEEEE @221
    _ZN11ZImageModel17set_circular_axesEbb @222
    _ZN11ZImageModel18free_params_bufferEv @223
    _ZN11ZImageModel18set_weight_adapterERKNSt3__110shared_ptrI13WeightAdapterEE @224
    _ZN11ZImageModel19alloc_params_bufferEv @225
    _ZN11ZImageModel19free_compute_bufferEv @226
    _ZN11ZImageModel19get_adm_in_channelsEv @227
    _ZN11ZImageModel22get_params_buffer_sizeEv @228
    _ZN11ZImageModel27set_flash_attention_enabledEb @229
    _ZN11ZImageModel7computeEi15DiffusionParamsPP11ggml_tensorP12ggml_context @230
    _ZN11ZImageModel8get_descEv @231
    _ZN11ZImageModelC2EP12ggml_backendbRK10OrderedMapINSt3__112basic_stringIcNS3_11char_traitsIcEENS3_9allocatorIcEEEE13TensorStorageES9_9SDVersion @232
    _ZN12AYSScheduler10get_sigmasEjffNSt3__18functionIFffEEE @233
    _ZN12AlphaBlender11init_paramsEP12ggml_contextRK10OrderedMapINSt3__112basic_stringIcNS3_11char_traitsIcEENS3_9allocatorIcEEEE13TensorStorageES9_ @234
    _ZN12AlphaBlender7forwardEP17GGMLRunnerContextP11ggml_tensorS3_ @235
    _ZN12AlphaBlender9get_alphaEv @236
    _ZN12EDMVDenoiser10sigma_to_tEf @237
    _ZN12EDMVDenoiser10t_to_sigmaEf @238
    _ZN12EDMVDenoiser9sigma_maxEv @239
    _ZN12EDMVDenoiser9sigma_minEv @240
    _ZN12LCMScheduler10get_sigmasEjffNSt3__18functionIFffEEE @241
    _ZN12UpscalerGGML14load_from_fileERKNSt3__112basic_stringIcNS0_11char_traitsIcEENS0_9allocatorIcEEEEbi @242
    _ZN12UpscalerGGML7upscaleE10sd_image_tj @243
    _ZN13AutoEncoderKL11build_graphEP11ggml_tensorb @244
    _ZN13AutoEncoderKL16set_conv2d_scaleEf @245
    _ZN13AutoEncoderKL17get_param_tensorsERNSt3__13mapINS0_12basic_stringIcNS0_11char_traitsIcEENS0_9allocatorIcEEEEP11ggml_tensorNS0_4lessIS7_EENS5_INS0_4pairIKS7_S9_EEEEEES7_ @246
    _ZN13AutoEncoderKL7computeEiP11ggml_tensorbPS1_P12ggml_context @247
    _ZN13AutoEncoderKL8get_descEv @248
    _ZN13AutoEncoderKLC2EP12ggml_backendbRK10OrderedMapINSt3__112basic_stringIcNS3_11char_traitsIcEENS3_9allocatorIcEEEE13TensorStorageES9_bb9SDVersion @249
    _ZN13AutoEncoderKLD0Ev @250
    _ZN13AutoEncoderKLD2Ev @251
    _ZN13CLIPTextModel11init_paramsEP12ggml_contextRK10OrderedMapINSt3__112basic_stringIcNS3_11char_traitsIcEENS3_9allocatorIcEEEE13TensorStorageES9_ @252
    _ZN13CLIPTextModel22get_token_embed_weightEv @253
    _ZN13CLIPTextModel7forwardEP17GGMLRunnerContextP11ggml_tensorS3_S3_ybi @254
    _ZN13CLIPTextModelC2E11CLIPVersionbbb @255
    _ZN13CLIPTokenizer10pad_tokensERNSt3__16vectorIiNS0_9allocatorIiEEEERNS1_IfNS2_IfEEEEyb @256
    _ZN13CLIPTokenizer11token_splitERKNSt3__112basic_stringIcNS0_11char_traitsIcEENS0_9allocatorIcEEEE @257
    _ZN13CLIPTokenizer16load_from_mergesERKNSt3__112basic_stringIcNS0_11char_traitsIcEENS0_9allocatorIcEEEE @258
    _ZN13CLIPTokenizer16whitespace_cleanENSt3__112basic_stringIcNS0_11char_traitsIcEENS0_9allocatorIcEEEE @259
    _ZN13CLIPTokenizer21clean_up_tokenizationERNSt3__112basic_stringIcNS0_11char_traitsIcEENS0_9allocatorIcEEEE @260
    _ZN13CLIPTokenizer3bpeERKNSt3__112basic_stringIDiNS0_11char_traitsIDiEENS0_9allocatorIDiEEEE @261
    _ZN13CLIPTokenizer5stripERKNSt3__112basic_stringIcNS0_11char_traitsIcEENS0_9allocatorIcEEEE @262
    _ZN13CLIPTokenizer6decodeERKNSt3__16vectorIiNS0_9allocatorIiEEEE @263
    _ZN13CLIPTokenizer6encodeENSt3__112basic_stringIcNS0_11char_traitsIcEENS0_9allocatorIcEEEENS0_8functionIFbRS6_RNS0_6vectorIiNS4_IiEEEEEEE @264
    _ZN13CLIPTokenizer9get_pairsERKNSt3__16vectorINS0_12basic_stringIDiNS0_11char_traitsIDiEENS0_9allocatorIDiEEEENS5_IS7_EEEE @265
    _ZN13CLIPTokenizerC2EiRKNSt3__112basic_stringIcNS0_11char_traitsIcEENS0_9allocatorIcEEEE @266
    _ZN13CLIPTokenizerD2Ev @267
    _ZN13GITSScheduler10get_sigmasEjffNSt3__18functionIFffEEE @268
    _ZN13PMFeedForward7forwardEP17GGMLRunnerContextP11ggml_tensor @269
    _ZN13PMFeedForwardC2Eii @270
    _ZN13STDDefaultRNG11manual_seedEy @271
    _ZN13STDDefaultRNG5randnEj @272
    _ZN13SelfAttention13pre_attentionEP17GGMLRunnerContextP11ggml_tensor @273
    _ZN13SelfAttention14post_attentionEP17GGMLRunnerContextP11ggml_tensor @274
    _ZN13SelfAttentionC2ExxNSt3__112basic_stringIcNS0_11char_traitsIcEENS0_9allocatorIcEEEEbb @275
    _ZN13UpSampleBlock7forwardEP17GGMLRunnerContextP11ggml_tensor @276
    _ZN13UpSampleBlockC2Eii @277
    _ZN13VideoResBlock7forwardEP17GGMLRunnerContextP11ggml_tensorS3_i @278
    _ZN13VideoResBlockC2ExxxNSt3__14pairIiiEExi @279
    _ZN14CLIPEmbeddings11init_paramsEP12ggml_contextRK10OrderedMapINSt3__112basic_stringIcNS3_11char_traitsIcEENS3_9allocatorIcEEEE13TensorStorageES9_ @280
    _ZN14CLIPEmbeddings7forwardEP17GGMLRunnerContextP11ggml_tensorS3_ @281
    _ZN14CLIPProjection11init_paramsEP12ggml_contextRK10OrderedMapINSt3__112basic_stringIcNS3_11char_traitsIcEENS3_9allocatorIcEEEE13TensorStorageES9_ @282
    _ZN14CLIPProjection7forwardEP17GGMLRunnerContextP11ggml_tensor @283
    _ZN14CrossAttention7forwardEP17GGMLRunnerContextP11ggml_tensorS3_ @284
    _ZN14CrossAttentionC2Exxxx @285
    _ZN14EasyCacheState11apply_cacheEPK11SDConditionP11ggml_tensorS4_ @286
    _ZN14EasyCacheState12update_cacheEPK11SDConditionP11ggml_tensorS4_ @287
    _ZN14EasyCacheState15after_conditionEPK11SDConditionP11ggml_tensorS4_ @288
    _ZN14EasyCacheState16before_conditionEPK11SDConditionP11ggml_tensorS4_fi @289
    _ZN14EasyCacheState4initERK15EasyCacheConfigP8Denoiser @290
    _ZN14EasyCacheStateD2Ev @291
    _ZN14GGUFTensorInfoD2Ev @292
    _ZN14QwenImageModel17get_param_tensorsERNSt3__13mapINS0_12basic_stringIcNS0_11char_traitsIcEENS0_9allocatorIcEEEEP11ggml_tensorNS0_4lessIS7_EENS5_INS0_4pairIKS7_S9_EEEEEE @293
    _ZN14QwenImageModel17set_circular_axesEbb @294
    _ZN14QwenImageModel18free_params_bufferEv @295
    _ZN14QwenImageModel18set_weight_adapterERKNSt3__110shared_ptrI13WeightAdapterEE @296
    _ZN14QwenImageModel19alloc_params_bufferEv @297
    _ZN14QwenImageModel19free_compute_bufferEv @298
    _ZN14QwenImageModel19get_adm_in_channelsEv @299
    _ZN14QwenImageModel22get_params_buffer_sizeEv @300
    _ZN14QwenImageModel27set_flash_attention_enabledEb @301
    _ZN14QwenImageModel7computeEi15DiffusionParamsPP11ggml_tensorP12ggml_context @302
    _ZN14QwenImageModel8get_descEv @303
    _ZN14QwenImageModelC2EP12ggml_backendbRK10OrderedMapINSt3__112basic_stringIcNS3_11char_traitsIcEENS3_9allocatorIcEEEE13TensorStorageES9_9SDVersionb @304
    _ZN14T5CLIPEmbedder17get_param_tensorsERNSt3__13mapINS0_12basic_stringIcNS0_11char_traitsIcEENS0_9allocatorIcEEEEP11ggml_tensorNS0_4lessIS7_EENS5_INS0_4pairIKS7_S9_EEEEEE @305
    _ZN14T5CLIPEmbedder18free_params_bufferEv @306
    _ZN14T5CLIPEmbedder18set_weight_adapterERKNSt3__110shared_ptrI13WeightAdapterEE @307
    _ZN14T5CLIPEmbedder19alloc_params_bufferEv @308
    _ZN14T5CLIPEmbedder21get_learned_conditionEP12ggml_contextiRK17ConditionerParams @309
    _ZN14T5CLIPEmbedder22get_params_buffer_sizeEv @310
    _ZN14T5CLIPEmbedder27set_flash_attention_enabledEb @311
    _ZN14T5CLIPEmbedder28get_learned_condition_commonEP12ggml_contextiNSt3__15tupleIJNS2_6vectorIiNS2_9allocatorIiEEEENS4_IfNS5_IfEEEES9_EEEib @312
    _ZN14T5CLIPEmbedder8tokenizeENSt3__112basic_stringIcNS0_11char_traitsIcEENS0_9allocatorIcEEEEyb @313
    _ZN14T5CLIPEmbedderC2EP12ggml_backendbRK10OrderedMapINSt3__112basic_stringIcNS3_11char_traitsIcEENS3_9allocatorIcEEEE13TensorStorageEbib @314
    _ZN14UnetModelBlock16resblock_forwardENSt3__112basic_stringIcNS0_11char_traitsIcEENS0_9allocatorIcEEEEP17GGMLRunnerContextP11ggml_tensorSA_i @315
    _ZN14UnetModelBlock23attention_layer_forwardENSt3__112basic_stringIcNS0_11char_traitsIcEENS0_9allocatorIcEEEEP17GGMLRunnerContextP11ggml_tensorSA_i @316
    _ZN14UnetModelBlock7forwardEP17GGMLRunnerContextP11ggml_tensorS3_S3_S3_S3_iNSt3__16vectorIS3_NS4_9allocatorIS3_EEEEf @317
    _ZN14UnetModelBlockC2E9SDVersionRK10OrderedMapINSt3__112basic_stringIcNS2_11char_traitsIcEENS2_9allocatorIcEEEE13TensorStorageE @318
    _ZN14UnetModelBlockD2Ev @319
    _ZN14VectorEmbedder7forwardEP17GGMLRunnerContextP11ggml_tensor @320
    _ZN14VectorEmbedderC2Exx @321
    _ZN15CLIPVisionModel7forwardEP17GGMLRunnerContextP11ggml_tensorbi @322
    _ZN15CLIPVisionModelC2E11CLIPVersionb @323
    _ZN15CompVisDenoiser10sigma_to_tEf @324
    _ZN15CompVisDenoiser10t_to_sigmaEf @325
    _ZN15CompVisDenoiser12get_scalingsEf @326
    _ZN15CompVisDenoiser13noise_scalingEfP11ggml_tensorS1_ @327
    _ZN15CompVisDenoiser21inverse_noise_scalingEfP11ggml_tensor @328
    _ZN15CompVisDenoiser9sigma_maxEv @329
    _ZN15CompVisDenoiser9sigma_minEv @330
    _ZN15ControlNetBlock16resblock_forwardENSt3__112basic_stringIcNS0_11char_traitsIcEENS0_9allocatorIcEEEEP17GGMLRunnerContextP11ggml_tensorSA_ @331
    _ZN15ControlNetBlock23attention_layer_forwardENSt3__112basic_stringIcNS0_11char_traitsIcEENS0_9allocatorIcEEEEP17GGMLRunnerContextP11ggml_tensorSA_ @332
    _ZN15ControlNetBlock24input_hint_block_forwardEP17GGMLRunnerContextP11ggml_tensorS3_S3_ @333
    _ZN15ControlNetBlock7forwardEP17GGMLRunnerContextP11ggml_tensorS3_S3_S3_S3_S3_ @334
    _ZN15ControlNetBlockC2E9SDVersion @335
    _ZN15ControlNetBlockD2Ev @336
    _ZN15DiffusionParamsC2ERKS_ @337
    _ZN15DiffusionParamsD2Ev @338
    _ZN15DismantledBlock13pre_attentionEP17GGMLRunnerContextP11ggml_tensorS3_ @339
    _ZN15DismantledBlock14post_attentionEP17GGMLRunnerContextP11ggml_tensorS3_S3_S3_S3_S3_ @340
    _ZN15DismantledBlock15pre_attention_xEP17GGMLRunnerContextP11ggml_tensorS3_ @341
    _ZN15DismantledBlock16post_attention_xEP17GGMLRunnerContextP11ggml_tensorS3_S3_S3_S3_S3_S3_S3_ @342
    _ZN15DismantledBlockC2ExxfNSt3__112basic_stringIcNS0_11char_traitsIcEENS0_9allocatorIcEEEEbbb @343
    _ZN15DownSampleBlock7forwardEP17GGMLRunnerContextP11ggml_tensor @344
    _ZN15DownSampleBlockC2Eiib @345
    _ZN15KarrasScheduler10get_sigmasEjffNSt3__18functionIFffEEE @346
    _ZN15MmapWrapperImplD0Ev @347
    _ZN15MmapWrapperImplD2Ev @348
    _ZN15SD3CLIPEmbedder17get_param_tensorsERNSt3__13mapINS0_12basic_stringIcNS0_11char_traitsIcEENS0_9allocatorIcEEEEP11ggml_tensorNS0_4lessIS7_EENS5_INS0_4pairIKS7_S9_EEEEEE @349
    _ZN15SD3CLIPEmbedder18free_params_bufferEv @350
    _ZN15SD3CLIPEmbedder18set_weight_adapterERKNSt3__110shared_ptrI13WeightAdapterEE @351
    _ZN15SD3CLIPEmbedder19alloc_params_bufferEv @352
    _ZN15SD3CLIPEmbedder21get_learned_conditionEP12ggml_contextiRK17ConditionerParams @353
    _ZN15SD3CLIPEmbedder22get_params_buffer_sizeEv @354
    _ZN15SD3CLIPEmbedder27set_flash_attention_enabledEb @355
    _ZN15SD3CLIPEmbedder28get_learned_condition_commonEP12ggml_contextiNSt3__16vectorINS2_4pairINS3_IiNS2_9allocatorIiEEEENS3_IfNS5_IfEEEEEENS5_ISA_EEEEib @356
    _ZN15SD3CLIPEmbedder8tokenizeENSt3__112basic_stringIcNS0_11char_traitsIcEENS0_9allocatorIcEEEEyb @357
    _ZN15SD3CLIPEmbedderC2EP12ggml_backendbRK10OrderedMapINSt3__112basic_stringIcNS3_11char_traitsIcEENS3_9allocatorIcEEEE13TensorStorageE @358
    _ZN15SD3CLIPEmbedderD2Ev @359
    _ZN15SimpleScheduler10get_sigmasEjffNSt3__18functionIFffEEE @360
    _ZN15TaylorSeerState18update_derivativesEPKfyi @361
    _ZN15TaylorSeerState4initEiy @362
    _ZN15UNetModelRunner11build_graphEP11ggml_tensorS1_S1_S1_S1_iNSt3__16vectorIS1_NS2_9allocatorIS1_EEEEf @363
    _ZN15UNetModelRunner7computeEiP11ggml_tensorS1_S1_S1_S1_iNSt3__16vectorIS1_NS2_9allocatorIS1_EEEEfPS1_P12ggml_context @364
    _ZN15UNetModelRunner8get_descEv @365
    _ZN15UNetModelRunnerC2EP12ggml_backendbRK10OrderedMapINSt3__112basic_stringIcNS3_11char_traitsIcEENS3_9allocatorIcEEEE13TensorStorageES9_9SDVersion @366
    _ZN15UNetModelRunnerD0Ev @367
    _ZN15UNetModelRunnerD2Ev @368
    _ZN16CompVisVDenoiser12get_scalingsEf @369
    _ZN16FluxCLIPEmbedder17get_param_tensorsERNSt3__13mapINS0_12basic_stringIcNS0_11char_traitsIcEENS0_9allocatorIcEEEEP11ggml_tensorNS0_4lessIS7_EENS5_INS0_4pairIKS7_S9_EEEEEE @370
    _ZN16FluxCLIPEmbedder18free_params_bufferEv @371
    _ZN16FluxCLIPEmbedder18set_weight_adapterERKNSt3__110shared_ptrI13WeightAdapterEE @372
    _ZN16FluxCLIPEmbedder19alloc_params_bufferEv @373
    _ZN16FluxCLIPEmbedder21get_learned_conditionEP12ggml_contextiRK17ConditionerParams @374
    _ZN16FluxCLIPEmbedder22get_params_buffer_sizeEv @375
    _ZN16FluxCLIPEmbedder27set_flash_attention_enabledEb @376
    _ZN16FluxCLIPEmbedder28get_learned_condition_commonEP12ggml_contextiNSt3__16vectorINS2_4pairINS3_IiNS2_9allocatorIiEEEENS3_IfNS5_IfEEEEEENS5_ISA_EEEEib @377
    _ZN16FluxCLIPEmbedder8tokenizeENSt3__112basic_stringIcNS0_11char_traitsIcEENS0_9allocatorIcEEEEyb @378
    _ZN16FluxCLIPEmbedderC2EP12ggml_backendbRK10OrderedMapINSt3__112basic_stringIcNS3_11char_traitsIcEENS3_9allocatorIcEEEE13TensorStorageE @379
    _ZN16FluxFlowDenoiser10sigma_to_tEf @380
    _ZN16FluxFlowDenoiser10t_to_sigmaEf @381
    _ZN16FluxFlowDenoiser12get_scalingsEf @382
    _ZN16FluxFlowDenoiser13noise_scalingEfP11ggml_tensorS1_ @383
    _ZN16FluxFlowDenoiser21inverse_noise_scalingEfP11ggml_tensor @384
    _ZN16FluxFlowDenoiser9sigma_maxEv @385
    _ZN16FluxFlowDenoiser9sigma_minEv @386
    _ZN16MultiLoraAdapter12patch_weightEP12ggml_contextP11ggml_tensorRKNSt3__112basic_stringIcNS4_11char_traitsIcEENS4_9allocatorIcEEEE @387
    _ZN16MultiLoraAdapter17forward_with_loraEP12ggml_contextP11ggml_tensorS3_S3_RKNSt3__112basic_stringIcNS4_11char_traitsIcEENS4_9allocatorIcEEEEN13WeightAdapter13ForwardParamsE @388
    _ZN16MultiLoraAdapter20get_extra_graph_sizeEv @389
    _ZN16QFormerPerceiver7forwardEP17GGMLRunnerContextP11ggml_tensorS3_ @390
    _ZN16QFormerPerceiverC2Eiiiibi @391
    _ZN16TimestepEmbedder7forwardEP17GGMLRunnerContextP11ggml_tensor @392
    _ZN16TimestepEmbedderC2Exix @393
    _ZN16TinyVideoDecoder7forwardEP17GGMLRunnerContextP11ggml_tensor @394
    _ZN16TinyVideoDecoderC2Eii @395
    _ZN16TinyVideoEncoder7forwardEP17GGMLRunnerContextP11ggml_tensor @396
    _ZN16TinyVideoEncoderC2Eii @397
    _ZN16VideoResnetBlock11init_paramsEP12ggml_contextRK10OrderedMapINSt3__112basic_stringIcNS3_11char_traitsIcEENS3_9allocatorIcEEEE13TensorStorageES9_ @398
    _ZN16VideoResnetBlock7forwardEP17GGMLRunnerContextP11ggml_tensor @399
    _ZN16VideoResnetBlock9get_alphaEv @400
    _ZN16VideoResnetBlockC2Exxi @401
    _ZN17ConditionerParamsD2Ev @402
    _ZN17DiscreteScheduler10get_sigmasEjffNSt3__18functionIFffEEE @403
    _ZN17Flux2FlowDenoiser10get_sigmasEji11scheduler_t9SDVersion @404
    _ZN17GGMLRunnerContextD2Ev @405
    _ZN18AutoencodingEngine6decodeEP17GGMLRunnerContextP11ggml_tensor @406
    _ZN18AutoencodingEngine6encodeEP17GGMLRunnerContextP11ggml_tensor @407
    _ZN18AutoencodingEngineC2E9SDVersionbbb @408
    _ZN18AutoencodingEngineD2Ev @409
    _ZN18AutoencodingEngineaSEOS_ @410
    _ZN18KLOptimalScheduler10get_sigmasEjffNSt3__18functionIFffEEE @411
    _ZN18MultiheadAttention7forwardEP17GGMLRunnerContextP11ggml_tensorS3_ @412
    _ZN18MultiheadAttentionC2ExxbbbNSt3__112basic_stringIcNS0_11char_traitsIcEENS0_9allocatorIcEEEES6_S6_S6_S6_ @413
    _ZN18MultiheadAttentionD2Ev @414
    _ZN18PerceiverAttention7forwardEP17GGMLRunnerContextP11ggml_tensorS3_ @415
    _ZN18PerceiverAttentionC2Eiii @416
    _ZN18PickleTensorReader11global_typeE @417
    _ZN18PickleTensorReader11read_stringERKNSt3__112basic_stringIcNS0_11char_traitsIcEENS0_9allocatorIcEEEEP5zip_tS6_ @418
    _ZN18PickleTensorReader16read_global_typeE @419
    _ZN18ResidualDenseBlock7forwardEP17GGMLRunnerContextP11ggml_tensor @420
    _ZN18ResidualDenseBlockC2Eii @421
    _ZN18SpatialTransformer11init_paramsEP12ggml_contextRK10OrderedMapINSt3__112basic_stringIcNS3_11char_traitsIcEENS3_9allocatorIcEEEE13TensorStorageES9_ @422
    _ZN18SpatialTransformer7forwardEP17GGMLRunnerContextP11ggml_tensorS3_ @423
    _ZN18SpatialTransformerC2Exxxxxb @424
    _ZN18T5UniGramTokenizer10pad_tokensERNSt3__16vectorIiNS0_9allocatorIiEEEERNS1_IfNS2_IfEEEEPS7_yb @425
    _ZN18T5UniGramTokenizer16InitializePiecesERKNSt3__112basic_stringIcNS0_11char_traitsIcEENS0_9allocatorIcEEEE @426
    _ZN18T5UniGramTokenizer9BuildTrieEPNSt3__16vectorINS0_4pairINS0_12basic_stringIcNS0_11char_traitsIcEENS0_9allocatorIcEEEEiEENS6_IS9_EEEE @427
    _ZN18T5UniGramTokenizerC2Eb @428
    _ZN18T5UniGramTokenizerD2Ev @429
    _ZN19CLIPTextModelRunner11build_graphEP11ggml_tensoriPvybi @430
    _ZN19CLIPTextModelRunner7computeEiP11ggml_tensoriPvybiPS1_P12ggml_context @431
    _ZN19CLIPTextModelRunner8get_descEv @432
    _ZN19CLIPTextModelRunnerC2EP12ggml_backendbRK10OrderedMapINSt3__112basic_stringIcNS3_11char_traitsIcEENS3_9allocatorIcEEEE13TensorStorageES9_11CLIPVersionbb @433
    _ZN19CLIPTextModelRunnerD0Ev @434
    _ZN19CLIPTextModelRunnerD2Ev @435
    _ZN19PhotoMakerIDEncoder11build_graphEP11ggml_tensorS1_RNSt3__16vectorIbNS2_9allocatorIbEEEES1_ @436
    _ZN19PhotoMakerIDEncoder17get_param_tensorsERNSt3__13mapINS0_12basic_stringIcNS0_11char_traitsIcEENS0_9allocatorIcEEEEP11ggml_tensorNS0_4lessIS7_EENS5_INS0_4pairIKS7_S9_EEEEEES7_ @437
    _ZN19PhotoMakerIDEncoder8get_descEv @438
    _ZN19PhotoMakerIDEncoderC2EP12ggml_backendbRK10OrderedMapINSt3__112basic_stringIcNS3_11char_traitsIcEENS3_9allocatorIcEEEE13TensorStorageES9_9SDVersion9PMVersionf @439
    _ZN19PhotoMakerIDEncoderD0Ev @440
    _ZN19PhotoMakerIDEncoderD2Ev @441
    _ZN19SGMUniformScheduler10get_sigmasEjffNSt3__18functionIFffEEE @442
    _ZN19SmoothStepScheduler10get_sigmasEjffNSt3__18functionIFffEEE @443
    _ZN19StableDiffusionGGML10apply_maskEP11ggml_tensorS1_S1_ @444
    _ZN19StableDiffusionGGML10vae_encodeEP12ggml_contextP11ggml_tensorb @445
    _ZN19StableDiffusionGGML11apply_lorasEPK9sd_lora_tj @446
    _ZN19StableDiffusionGGML13preview_imageEP12ggml_contextiP11ggml_tensor9SDVersion9preview_tS3_NSt3__18functionIFviiP10sd_image_tbPvEEESA_b @447
    _ZN19StableDiffusionGGML13silent_tilingEP11ggml_tensorS1_iifNSt3__18functionIFvS1_S1_bEEE @448
    _ZN19StableDiffusionGGML17get_pmid_conditonEP12ggml_context14sd_pm_params_tR17ConditionerParams @449
    _ZN19StableDiffusionGGML17process_latent_inEP11ggml_tensor @450
    _ZN19StableDiffusionGGML17process_timestepsERKNSt3__16vectorIfNS0_9allocatorIfEEEEP11ggml_tensorS8_ @451
    _ZN19StableDiffusionGGML18decode_first_stageEP12ggml_contextP11ggml_tensorb @452
    _ZN19StableDiffusionGGML18process_latent_outEP11ggml_tensor @453
    _ZN19StableDiffusionGGML22apply_loras_at_runtimeERKNSt3__113unordered_mapINS0_12basic_stringIcNS0_11char_traitsIcEENS0_9allocatorIcEEEEfNS0_4hashIS7_EENS0_8equal_toIS7_EENS5_INS0_4pairIKS7_fEEEEEE @454
    _ZN19StableDiffusionGGML22gaussian_latent_sampleEP12ggml_contextP11ggml_tensor @455
    _ZN19StableDiffusionGGML22get_clip_vision_outputEP12ggml_context10sd_image_tbib @456
    _ZN19StableDiffusionGGML23apply_loras_immediatelyERKNSt3__113unordered_mapINS0_12basic_stringIcNS0_11char_traitsIcEENS0_9allocatorIcEEEEfNS0_4hashIS7_EENS0_8equal_toIS7_EENS5_INS0_4pairIKS7_fEEEEEE @457
    _ZN19StableDiffusionGGML24get_first_stage_encodingEP12ggml_contextP11ggml_tensor @458
    _ZN19StableDiffusionGGML24get_latents_mean_std_vecEP11ggml_tensoriRNSt3__16vectorIfNS2_9allocatorIfEEEES7_ @459
    _ZN19StableDiffusionGGML25load_lora_model_from_fileERKNSt3__112basic_stringIcNS0_11char_traitsIcEENS0_9allocatorIcEEEEfP12ggml_backendNS0_8functionIFbS8_EEE @460
    _ZN19StableDiffusionGGML35is_using_v_parameterization_for_sd2EP12ggml_contextb @461
    _ZN19StableDiffusionGGML4initEPK15sd_ctx_params_t @462
    _ZN19StableDiffusionGGML6sampleEP12ggml_contextNSt3__110shared_ptrI14DiffusionModelEEbP11ggml_tensorS7_11SDConditionS8_S8_S7_f20sd_guidance_params_tfi15sample_method_tRKNS2_6vectorIfNS2_9allocatorIfEEEEiS8_NSB_IS7_NSC_IS7_EEEEbS7_S7_fPK @463
    _ZN19StableDiffusionGGML7get_rngE10rng_type_t @464
    _ZN19StableDiffusionGGML9lora_statEv @465
    _ZN19StableDiffusionGGMLC2Ev @466
    _ZN19StableDiffusionGGMLD2Ev @467
    _ZN20BongTangentScheduler10get_sigmasEjffNSt3__18functionIFffEEE @468
    _ZN20BongTangentScheduler23get_bong_tangent_sigmasEiffff @469
    _ZN20CLIPVisionEmbeddings11init_paramsEP12ggml_contextRK10OrderedMapINSt3__112basic_stringIcNS3_11char_traitsIcEENS3_9allocatorIcEEEE13TensorStorageES9_ @470
    _ZN20CLIPVisionEmbeddings7forwardEP17GGMLRunnerContextP11ggml_tensor @471
    _ZN20DiscreteFlowDenoiser10sigma_to_tEf @472
    _ZN20DiscreteFlowDenoiser10t_to_sigmaEf @473
    _ZN20DiscreteFlowDenoiser12get_scalingsEf @474
    _ZN20DiscreteFlowDenoiser13noise_scalingEfP11ggml_tensorS1_ @475
    _ZN20DiscreteFlowDenoiser21inverse_noise_scalingEfP11ggml_tensor @476
    _ZN20DiscreteFlowDenoiser9sigma_maxEv @477
    _ZN20DiscreteFlowDenoiser9sigma_minEv @478
    _ZN20ExponentialScheduler10get_sigmasEjffNSt3__18functionIFffEEE @479
    _ZN20T5DenseGatedActDense7forwardEP17GGMLRunnerContextP11ggml_tensor @480
    _ZN20T5DenseGatedActDenseC2Exx @481
    _ZN20T5LayerSelfAttention7forwardEP17GGMLRunnerContextP11ggml_tensorS3_S3_S3_ @482
    _ZN20T5LayerSelfAttentionC2Exxxxb @483
    _ZN20TinyImageAutoEncoder11build_graphEP11ggml_tensorb @484
    _ZN20TinyImageAutoEncoder14load_from_fileERKNSt3__112basic_stringIcNS0_11char_traitsIcEENS0_9allocatorIcEEEEi @485
    _ZN20TinyImageAutoEncoder17get_param_tensorsERNSt3__13mapINS0_12basic_stringIcNS0_11char_traitsIcEENS0_9allocatorIcEEEEP11ggml_tensorNS0_4lessIS7_EENS5_INS0_4pairIKS7_S9_EEEEEES7_ @486
    _ZN20TinyImageAutoEncoder7computeEiP11ggml_tensorbPS1_P12ggml_context @487
    _ZN20TinyImageAutoEncoder8get_descEv @488
    _ZN20TinyImageAutoEncoderC2EP12ggml_backendbRK10OrderedMapINSt3__112basic_stringIcNS3_11char_traitsIcEENS3_9allocatorIcEEEE13TensorStorageES9_b9SDVersion @489
    _ZN20TinyImageAutoEncoderD0Ev @490
    _ZN20TinyImageAutoEncoderD2Ev @491
    _ZN20TinyVideoAutoEncoder11build_graphEP11ggml_tensorb @492
    _ZN20TinyVideoAutoEncoder14load_from_fileERKNSt3__112basic_stringIcNS0_11char_traitsIcEENS0_9allocatorIcEEEEi @493
    _ZN20TinyVideoAutoEncoder17get_param_tensorsERNSt3__13mapINS0_12basic_stringIcNS0_11char_traitsIcEENS0_9allocatorIcEEEEP11ggml_tensorNS0_4lessIS7_EENS5_INS0_4pairIKS7_S9_EEEEEES7_ @494
    _ZN20TinyVideoAutoEncoder7computeEiP11ggml_tensorbPS1_P12ggml_context @495
    _ZN20TinyVideoAutoEncoder8get_descEv @496
    _ZN20TinyVideoAutoEncoderC2EP12ggml_backendbRK10OrderedMapINSt3__112basic_stringIcNS3_11char_traitsIcEENS3_9allocatorIcEEEE13TensorStorageES9_b9SDVersion @497
    _ZN20TinyVideoAutoEncoderD0Ev @498
    _ZN20TinyVideoAutoEncoderD2Ev @499
    _ZN21BasicTransformerBlock7forwardEP17GGMLRunnerContextP11ggml_tensorS3_ @500
    _ZN21BasicTransformerBlockC2Exxxxb @501
    _ZN22CacheDitConditionState11apply_cacheEPKvPKfPfy @502
    _ZN22CacheDitConditionState12update_cacheEPKvPKfS3_y @503
    _ZN22CacheDitConditionState16before_conditionEPKvP11ggml_tensorS3_fi @504
    _ZN22CacheDitConditionState4initERK13DBCacheConfigRK16TaylorSeerConfig @505
    _ZN22CacheDitConditionStateD2Ev @506
    _ZN22FacePerceiverResampler7forwardEP17GGMLRunnerContextP11ggml_tensorS3_ @507
    _ZN22FacePerceiverResamplerC2Eiiiiiii @508
    _ZN23SpatialVideoTransformer7forwardEP17GGMLRunnerContextP11ggml_tensorS3_i @509
    _ZN23SpatialVideoTransformerC2Exxxxxbxi @510
    _ZN24FrozenCLIPVisionEmbedder11build_graphEP11ggml_tensorbi @511
    _ZN24FrozenCLIPVisionEmbedder17get_param_tensorsERNSt3__13mapINS0_12basic_stringIcNS0_11char_traitsIcEENS0_9allocatorIcEEEEP11ggml_tensorNS0_4lessIS7_EENS5_INS0_4pairIKS7_S9_EEEEEE @512
    _ZN24FrozenCLIPVisionEmbedder8get_descEv @513
    _ZN24FrozenCLIPVisionEmbedderC2EP12ggml_backendbRK10OrderedMapINSt3__112basic_stringIcNS3_11char_traitsIcEENS3_9allocatorIcEEEE13TensorStorageE @514
    _ZN24FrozenCLIPVisionEmbedderD0Ev @515
    _ZN24FrozenCLIPVisionEmbedderD2Ev @516
    _ZN24PhotoMakerIDEncoderBlock7forwardEP17GGMLRunnerContextP11ggml_tensorS3_S3_S3_S3_S3_ @517
    _ZN24PhotoMakerIDEncoderBlockC2Ev @518
    _ZN25CLIPVisionModelProjection7forwardEP17GGMLRunnerContextP11ggml_tensorbi @519
    _ZN25CLIPVisionModelProjectionC2E11CLIPVersionbb @520
    _ZN2T57forwardEP17GGMLRunnerContextP11ggml_tensorS3_S3_S3_ @521
    _ZN2T5C2E8T5Params @522
    _ZN33FrozenCLIPEmbedderWithCustomWords14load_embeddingENSt3__112basic_stringIcNS0_11char_traitsIcEENS0_9allocatorIcEEEES6_RNS0_6vectorIiNS4_IiEEEE @523
    _ZN33FrozenCLIPEmbedderWithCustomWords17get_param_tensorsERNSt3__13mapINS0_12basic_stringIcNS0_11char_traitsIcEENS0_9allocatorIcEEEEP11ggml_tensorNS0_4lessIS7_EENS5_INS0_4pairIKS7_S9_EEEEEE @524
    _ZN33FrozenCLIPEmbedderWithCustomWords18free_params_bufferEv @525
    _ZN33FrozenCLIPEmbedderWithCustomWords18set_weight_adapterERKNSt3__110shared_ptrI13WeightAdapterEE @526
    _ZN33FrozenCLIPEmbedderWithCustomWords19alloc_params_bufferEv @527
    _ZN33FrozenCLIPEmbedderWithCustomWords19convert_token_to_idENSt3__112basic_stringIcNS0_11char_traitsIcEENS0_9allocatorIcEEEE @528
    _ZN33FrozenCLIPEmbedderWithCustomWords21get_learned_conditionEP12ggml_contextiRK17ConditionerParams @529
    _ZN33FrozenCLIPEmbedderWithCustomWords22get_params_buffer_sizeEv @530
    _ZN33FrozenCLIPEmbedderWithCustomWords26remove_trigger_from_promptEP12ggml_contextRKNSt3__112basic_stringIcNS2_11char_traitsIcEENS2_9allocatorIcEEEE @531
    _ZN33FrozenCLIPEmbedderWithCustomWords27set_flash_attention_enabledEb @532
    _ZN33FrozenCLIPEmbedderWithCustomWords27tokenize_with_trigger_tokenENSt3__112basic_stringIcNS0_11char_traitsIcEENS0_9allocatorIcEEEEiiyb @533
    _ZN33FrozenCLIPEmbedderWithCustomWords28get_learned_condition_commonEP12ggml_contextiRNSt3__16vectorIiNS2_9allocatorIiEEEERNS3_IfNS4_IfEEEEiiiib @534
    _ZN33FrozenCLIPEmbedderWithCustomWords34get_learned_condition_with_triggerEP12ggml_contextiRK17ConditionerParams @535
    _ZN33FrozenCLIPEmbedderWithCustomWords8tokenizeENSt3__112basic_stringIcNS0_11char_traitsIcEENS0_9allocatorIcEEEEyb @536
    _ZN33FrozenCLIPEmbedderWithCustomWordsC2EP12ggml_backendbRK10OrderedMapINSt3__112basic_stringIcNS3_11char_traitsIcEENS3_9allocatorIcEEEE13TensorStorageERKNS3_3mapIS9_S9_NS3_4lessIS9_EENS7_INS3_4pairIKS9_S9_EEEEEE9SDVersion9PMVersion @537
    _ZN33FrozenCLIPEmbedderWithCustomWordsD2Ev @538
    _ZN3LLM11PatchMerger7forwardEP17GGMLRunnerContextP11ggml_tensor @539
    _ZN3LLM11PatchMergerC2Exxx @540
    _ZN3LLM11VisionBlock7forwardEP17GGMLRunnerContextP11ggml_tensorS4_S4_ @541
    _ZN3LLM11VisionBlockC2Ebxxif @542
    _ZN3LLM11VisionModel7forwardEP17GGMLRunnerContextP11ggml_tensorS4_S4_S4_S4_ @543
    _ZN3LLM11VisionModelC2EbixxxxiiiiiNSt3__13setIiNS1_4lessIiEENS1_9allocatorIiEEEEf @544
    _ZN3LLM12BPETokenizer10pad_tokensERNSt3__16vectorIiNS1_9allocatorIiEEEERNS2_IfNS3_IfEEEEyb @545
    _ZN3LLM12BPETokenizer3bpeERKNSt3__112basic_stringIDiNS1_11char_traitsIDiEENS1_9allocatorIDiEEEE @546
    _ZN3LLM12BPETokenizer6encodeENSt3__112basic_stringIcNS1_11char_traitsIcEENS1_9allocatorIcEEEENS1_8functionIFbRS7_RNS1_6vectorIiNS5_IiEEEEEEE @547
    _ZN3LLM12BPETokenizer8tokenizeENSt3__112basic_stringIcNS1_11char_traitsIcEENS1_9allocatorIcEEEENS1_8functionIFbRS7_RNS1_6vectorIiNS5_IiEEEEEEEyb @548
    _ZN3LLM12BPETokenizer9get_pairsERKNSt3__16vectorINS1_12basic_stringIDiNS1_11char_traitsIDiEENS1_9allocatorIDiEEEENS6_IS8_EEEE @549
    _ZN3LLM12BPETokenizerC2Ev @550
    _ZN3LLM12BPETokenizerD2Ev @551
    _ZN3LLM14Qwen2Tokenizer16load_from_mergesERKNSt3__112basic_stringIcNS1_11char_traitsIcEENS1_9allocatorIcEEEE @552
    _ZN3LLM14Qwen2TokenizerC2ERKNSt3__112basic_stringIcNS1_11char_traitsIcEENS1_9allocatorIcEEEE @553
    _ZN3LLM15VisionAttention7forwardEP17GGMLRunnerContextP11ggml_tensorS4_S4_ @554
    _ZN3LLM15VisionAttentionC2Ebxi @555
    _ZN3LLM16MistralTokenizer16load_from_mergesERKNSt3__112basic_stringIcNS1_11char_traitsIcEENS1_9allocatorIcEEEES9_ @556
    _ZN3LLM16MistralTokenizerC2ERKNSt3__112basic_stringIcNS1_11char_traitsIcEENS1_9allocatorIcEEEES9_ @557
    _ZN3LLM16TransformerBlock7forwardEP17GGMLRunnerContextP11ggml_tensorS4_S4_ @558
    _ZN3LLM16TransformerBlockC2ERKNS_9LLMParamsE @559
    _ZN3LLM16VisionPatchEmbed7forwardEP17GGMLRunnerContextP11ggml_tensor @560
    _ZN3LLM16VisionPatchEmbedC2Ebiixx @561
    _ZN3LLM3LLM14vision_forwardEP17GGMLRunnerContextP11ggml_tensorS4_S4_S4_S4_ @562
    _ZN3LLM3LLM7forwardEP17GGMLRunnerContextP11ggml_tensorS4_S4_NSt3__16vectorINS5_4pairIiS4_EENS5_9allocatorIS8_EEEENS5_3setIiNS5_4lessIiEENS9_IiEEEE @563
    _ZN3LLM3LLMC2ENS_9LLMParamsEbb @564
    _ZN3LLM3LLMC2Ev @565
    _ZN3LLM3LLMD2Ev @566
    _ZN3LLM3LLMaSEOS0_ @567
    _ZN3LLM3MLP7forwardEP17GGMLRunnerContextP11ggml_tensor @568
    _ZN3LLM3MLPC2Exxb @569
    _ZN3LLM9Attention7forwardEP17GGMLRunnerContextP11ggml_tensorS4_S4_ @570
    _ZN3LLM9AttentionC2ERKNS_9LLMParamsE @571
    _ZN3LLM9LLMRunner11build_graphEP11ggml_tensorS2_NSt3__16vectorINS3_4pairIiS2_EENS3_9allocatorIS6_EEEENS3_3setIiNS3_4lessIiEENS7_IiEEEE @572
    _ZN3LLM9LLMRunner13process_imageEP12ggml_contextP11ggml_tensor @573
    _ZN3LLM9LLMRunner24build_encode_image_graphEP11ggml_tensor @574
    _ZN3LLM9LLMRunner7forwardEP17GGMLRunnerContextP11ggml_tensorS4_S4_NSt3__16vectorINS5_4pairIiS4_EENS5_9allocatorIS8_EEEENS5_3setIiNS5_4lessIiEENS9_IiEEEE @575
    _ZN3LLM9LLMRunner8get_descEv @576
    _ZN3LLM9LLMRunnerC2ENS_7LLMArchEP12ggml_backendbRK10OrderedMapINSt3__112basic_stringIcNS5_11char_traitsIcEENS5_9allocatorIcEEEE13TensorStorageESB_b @577
    _ZN3LLM9LLMRunnerD0Ev @578
    _ZN3LLM9LLMRunnerD2Ev @579
    _ZN3LLM9TextModel7forwardEP17GGMLRunnerContextP11ggml_tensorS4_S4_NSt3__16vectorINS5_4pairIiS4_EENS5_9allocatorIS8_EEEENS5_3setIiNS5_4lessIiEENS9_IiEEEE @580
    _ZN3LLM9TextModelC2ERKNS_9LLMParamsE @581
    _ZN3Mlp7forwardEP17GGMLRunnerContextP11ggml_tensor @582
    _ZN3MlpC2Exxxb @583
    _ZN3VAE16set_conv2d_scaleEf @584
    _ZN3WAN12CausalConv3d11init_paramsEP12ggml_contextRK10OrderedMapINSt3__112basic_stringIcNS4_11char_traitsIcEENS4_9allocatorIcEEEE13TensorStorageESA_ @585
    _ZN3WAN12CausalConv3d7forwardEP17GGMLRunnerContextP11ggml_tensorS4_ @586
    _ZN3WAN12WanVAERunner11build_graphEP11ggml_tensorb @587
    _ZN3WAN12WanVAERunner17get_param_tensorsERNSt3__13mapINS1_12basic_stringIcNS1_11char_traitsIcEENS1_9allocatorIcEEEEP11ggml_tensorNS1_4lessIS8_EENS6_INS1_4pairIKS8_SA_EEEEEES8_ @588
    _ZN3WAN12WanVAERunner7computeEiP11ggml_tensorbPS2_P12ggml_context @589
    _ZN3WAN12WanVAERunner8get_descEv @590
    _ZN3WAN12WanVAERunnerC2EP12ggml_backendbRK10OrderedMapINSt3__112basic_stringIcNS4_11char_traitsIcEENS4_9allocatorIcEEEE13TensorStorageESA_b9SDVersion @591
    _ZN3WAN12WanVAERunnerD0Ev @592
    _ZN3WAN12WanVAERunnerD2Ev @593
    _ZN3WAN13ResidualBlock7forwardEP17GGMLRunnerContextP11ggml_tensorxRNSt3__16vectorIS4_NS5_9allocatorIS4_EEEERi @594
    _ZN3WAN13ResidualBlockC2Exx @595
    _ZN3WAN14AttentionBlock7forwardEP17GGMLRunnerContextP11ggml_tensorx @596
    _ZN3WAN14AttentionBlockC2Ex @597
    _ZN3WAN16Up_ResidualBlock7forwardEP17GGMLRunnerContextP11ggml_tensorxRNSt3__16vectorIS4_NS5_9allocatorIS4_EEEERii @598
    _ZN3WAN16Up_ResidualBlockC2Exxibb @599
    _ZN3WAN16WanSelfAttention7forwardEP17GGMLRunnerContextP11ggml_tensorS4_S4_ @600
    _ZN3WAN16WanSelfAttentionC2Exxbf @601
    _ZN3WAN17WanAttentionBlock11init_paramsEP12ggml_contextRK10OrderedMapINSt3__112basic_stringIcNS4_11char_traitsIcEENS4_9allocatorIcEEEE13TensorStorageESA_ @602
    _ZN3WAN17WanAttentionBlock7forwardEP17GGMLRunnerContextP11ggml_tensorS4_S4_S4_x @603
    _ZN3WAN17WanAttentionBlockC2Ebxxxbbf @604
    _ZN3WAN18Down_ResidualBlock7forwardEP17GGMLRunnerContextP11ggml_tensorxRNSt3__16vectorIS4_NS5_9allocatorIS4_EEEERii @605
    _ZN3WAN18Down_ResidualBlockC2Exxibb @606
    _ZN3WAN20WanI2VCrossAttention7forwardEP17GGMLRunnerContextP11ggml_tensorS4_x @607
    _ZN3WAN20WanI2VCrossAttentionC2Exxbf @608
    _ZN3WAN20WanT2VCrossAttention7forwardEP17GGMLRunnerContextP11ggml_tensorS4_x @609
    _ZN3WAN21VaceWanAttentionBlock11init_paramsEP12ggml_contextRK10OrderedMapINSt3__112basic_stringIcNS4_11char_traitsIcEENS4_9allocatorIcEEEE13TensorStorageESA_ @610
    _ZN3WAN21VaceWanAttentionBlock7forwardEP17GGMLRunnerContextP11ggml_tensorS4_S4_S4_S4_x @611
    _ZN3WAN21VaceWanAttentionBlockC2Ebxxxbbfi @612
    _ZN3WAN3Wan10unpatchifyEP12ggml_contextP11ggml_tensorxxx @613
    _ZN3WAN3Wan12forward_origEP17GGMLRunnerContextP11ggml_tensorS4_S4_S4_S4_S4_fx @614
    _ZN3WAN3Wan17pad_to_patch_sizeEP17GGMLRunnerContextP11ggml_tensor @615
    _ZN3WAN3Wan7forwardEP17GGMLRunnerContextP11ggml_tensorS4_S4_S4_S4_S4_S4_fx @616
    _ZN3WAN3WanC2ENS_9WanParamsE @617
    _ZN3WAN3WanD2Ev @618
    _ZN3WAN3WanaSEOS0_ @619
    _ZN3WAN4Head11init_paramsEP12ggml_contextRK10OrderedMapINSt3__112basic_stringIcNS4_11char_traitsIcEENS4_9allocatorIcEEEE13TensorStorageESA_ @620
    _ZN3WAN4Head7forwardEP17GGMLRunnerContextP11ggml_tensorS4_ @621
    _ZN3WAN4HeadC2ExxNSt3__15tupleIJiiiEEEf @622
    _ZN3WAN6WanVAE10unpatchifyEP12ggml_contextP11ggml_tensorxx @623
    _ZN3WAN6WanVAE11clear_cacheEv @624
    _ZN3WAN6WanVAE6decodeEP17GGMLRunnerContextP11ggml_tensorx @625
    _ZN3WAN6WanVAE6encodeEP17GGMLRunnerContextP11ggml_tensorx @626
    _ZN3WAN6WanVAE8patchifyEP12ggml_contextP11ggml_tensorxx @627
    _ZN3WAN6WanVAEC2Ebb @628
    _ZN3WAN6WanVAED2Ev @629
    _ZN3WAN7DupUp3D7forwardEP17GGMLRunnerContextP11ggml_tensorbx @630
    _ZN3WAN7MLPProj11init_paramsEP12ggml_contextRK10OrderedMapINSt3__112basic_stringIcNS4_11char_traitsIcEENS4_9allocatorIcEEEE13TensorStorageESA_ @631
    _ZN3WAN7MLPProj7forwardEP17GGMLRunnerContextP11ggml_tensor @632
    _ZN3WAN7MLPProjC2Exxx @633
    _ZN3WAN8RMS_norm11init_paramsEP12ggml_contextRK10OrderedMapINSt3__112basic_stringIcNS4_11char_traitsIcEENS4_9allocatorIcEEEE13TensorStorageESA_ @634
    _ZN3WAN8RMS_norm7forwardEP17GGMLRunnerContextP11ggml_tensor @635
    _ZN3WAN8Resample7forwardEP17GGMLRunnerContextP11ggml_tensorxRNSt3__16vectorIS4_NS5_9allocatorIS4_EEEERii @636
    _ZN3WAN8ResampleC2ExRKNSt3__112basic_stringIcNS1_11char_traitsIcEENS1_9allocatorIcEEEEb @637
    _ZN3WAN9AvgDown3D7forwardEP17GGMLRunnerContextP11ggml_tensorx @638
    _ZN3WAN9Decoder3d7forwardEP17GGMLRunnerContextP11ggml_tensorxRNSt3__16vectorIS4_NS5_9allocatorIS4_EEEERii @639
    _ZN3WAN9Decoder3dC2ExxNSt3__16vectorIiNS1_9allocatorIiEEEEiNS2_IbNS3_IbEEEEb @640
    _ZN3WAN9Encoder3d7forwardEP17GGMLRunnerContextP11ggml_tensorxRNSt3__16vectorIS4_NS5_9allocatorIS4_EEEERii @641
    _ZN3WAN9Encoder3dC2ExxNSt3__16vectorIiNS1_9allocatorIiEEEEiNS2_IbNS3_IbEEEEb @642
    _ZN3WAN9WanParamsC2ERKS0_ @643
    _ZN3WAN9WanParamsC2Ev @644
    _ZN3WAN9WanParamsD2Ev @645
    _ZN3WAN9WanRunner11build_graphEP11ggml_tensorS2_S2_S2_S2_S2_S2_f @646
    _ZN3WAN9WanRunner7computeEiP11ggml_tensorS2_S2_S2_S2_S2_S2_fPS2_P12ggml_context @647
    _ZN3WAN9WanRunner8get_descEv @648
    _ZN3WAN9WanRunnerC2EP12ggml_backendbRK10OrderedMapINSt3__112basic_stringIcNS4_11char_traitsIcEENS4_9allocatorIcEEEE13TensorStorageESA_9SDVersion @649
    _ZN3WAN9WanRunnerD0Ev @650
    _ZN3WAN9WanRunnerD2Ev @651
    _ZN4Flux10FluxRunner11build_graphEP11ggml_tensorS2_S2_S2_S2_S2_NSt3__16vectorIS2_NS3_9allocatorIS2_EEEEbNS4_IiNS5_IiEEEE @652
    _ZN4Flux10FluxRunner13fetch_dct_posEii @653
    _ZN4Flux10FluxRunner7computeEiP11ggml_tensorS2_S2_S2_S2_S2_NSt3__16vectorIS2_NS3_9allocatorIS2_EEEEbPS2_P12ggml_contextNS4_IiNS5_IiEEEE @654
    _ZN4Flux10FluxRunner8get_descEv @655
    _ZN4Flux10FluxRunnerC2EP12ggml_backendbRK10OrderedMapINSt3__112basic_stringIcNS4_11char_traitsIcEENS4_9allocatorIcEEEE13TensorStorageESA_9SDVersionb @656
    _ZN4Flux10FluxRunnerD0Ev @657
    _ZN4Flux10FluxRunnerD2Ev @658
    _ZN4Flux10Modulation7forwardEP17GGMLRunnerContextP11ggml_tensor @659
    _ZN4Flux10ModulationC2Exbb @660
    _ZN4Flux11MLPEmbedder7forwardEP17GGMLRunnerContextP11ggml_tensor @661
    _ZN4Flux11MLPEmbedderC2Exxb @662
    _ZN4Flux12NerfEmbedder7forwardEP17GGMLRunnerContextP11ggml_tensorS4_ @663
    _ZN4Flux12NerfEmbedderC2Exxx @664
    _ZN4Flux12NerfGLUBlock7forwardEP17GGMLRunnerContextP11ggml_tensorS4_ @665
    _ZN4Flux12NerfGLUBlockC2Exxx @666
    _ZN4Flux13SelfAttention13pre_attentionEP17GGMLRunnerContextP11ggml_tensor @667
    _ZN4Flux13SelfAttention14post_attentionEP17GGMLRunnerContextP11ggml_tensor @668
    _ZN4Flux13SelfAttentionC2Exxbb @669
    _ZN4Flux17DoubleStreamBlock18get_distil_img_modEP17GGMLRunnerContextP11ggml_tensor @670
    _ZN4Flux17DoubleStreamBlock18get_distil_txt_modEP17GGMLRunnerContextP11ggml_tensor @671
    _ZN4Flux17DoubleStreamBlock7forwardEP17GGMLRunnerContextP11ggml_tensorS4_S4_S4_S4_NSt3__16vectorINS_13ModulationOutENS5_9allocatorIS7_EEEESA_ @672
    _ZN4Flux17DoubleStreamBlockC2Exxfibbbbbb @673
    _ZN4Flux17SingleStreamBlock7forwardEP17GGMLRunnerContextP11ggml_tensorS4_S4_S4_NSt3__16vectorINS_13ModulationOutENS5_9allocatorIS7_EEEE @674
    _ZN4Flux17SingleStreamBlockC2Exxfifbbbbb @675
    _ZN4Flux18ChromaApproximator7forwardEP17GGMLRunnerContextP11ggml_tensor @676
    _ZN4Flux18ChromaApproximatorC2Exx @677
    _ZN4Flux18NerfFinalLayerConv7forwardEP17GGMLRunnerContextP11ggml_tensor @678
    _ZN4Flux18NerfFinalLayerConvC2Exx @679
    _ZN4Flux3MLP7forwardEP17GGMLRunnerContextP11ggml_tensor @680
    _ZN4Flux3MLPC2Exxbb @681
    _ZN4Flux4Flux10unpatchifyEP12ggml_contextP11ggml_tensorxx @682
    _ZN4Flux4Flux12forward_origEP17GGMLRunnerContextP11ggml_tensorS4_S4_S4_S4_S4_S4_NSt3__16vectorIiNS5_9allocatorIiEEEE @683
    _ZN4Flux4Flux17pad_to_patch_sizeEP17GGMLRunnerContextP11ggml_tensor @684
    _ZN4Flux4Flux19forward_flux_chromaEP17GGMLRunnerContextP11ggml_tensorS4_S4_S4_S4_S4_S4_S4_S4_NSt3__16vectorIS4_NS5_9allocatorIS4_EEEENS6_IiNS7_IiEEEE @685
    _ZN4Flux4Flux23forward_chroma_radianceEP17GGMLRunnerContextP11ggml_tensorS4_S4_S4_S4_S4_S4_S4_S4_NSt3__16vectorIS4_NS5_9allocatorIS4_EEEENS6_IiNS7_IiEEEE @686
    _ZN4Flux4Flux7forwardEP17GGMLRunnerContextP11ggml_tensorS4_S4_S4_S4_S4_S4_S4_S4_NSt3__16vectorIS4_NS5_9allocatorIS4_EEEENS6_IiNS7_IiEEEE @687
    _ZN4Flux4Flux8patchifyEP12ggml_contextP11ggml_tensor @688
    _ZN4Flux4FluxC2ENS_10FluxParamsE @689
    _ZN4Flux4FluxC2Ev @690
    _ZN4Flux4FluxD2Ev @691
    _ZN4Flux4FluxaSEOS0_ @692
    _ZN4Flux6QKNorm10query_normEP17GGMLRunnerContextP11ggml_tensor @693
    _ZN4Flux6QKNorm8key_normEP17GGMLRunnerContextP11ggml_tensor @694
    _ZN4Flux6QKNormC2Ex @695
    _ZN4Flux6YakMLP7forwardEP17GGMLRunnerContextP11ggml_tensor @696
    _ZN4Flux6YakMLPC2Exxb @697
    _ZN4Flux7RMSNorm11init_paramsEP12ggml_contextRK10OrderedMapINSt3__112basic_stringIcNS4_11char_traitsIcEENS4_9allocatorIcEEEE13TensorStorageESA_ @698
    _ZN4Flux7RMSNorm7forwardEP17GGMLRunnerContextP11ggml_tensor @699
    _ZN4Flux9LastLayer7forwardEP17GGMLRunnerContextP11ggml_tensorS4_ @700
    _ZN4Flux9LastLayerC2Exxxbb @701
    _ZN4GELU7forwardEP17GGMLRunnerContextP11ggml_tensor @702
    _ZN4GELUC2Exxb @703
    _ZN4Qwen14QwenImageModel10unpatchifyEP12ggml_contextP11ggml_tensorxx @704
    _ZN4Qwen14QwenImageModel12forward_origEP17GGMLRunnerContextP11ggml_tensorS4_S4_S4_S4_ @705
    _ZN4Qwen14QwenImageModel17pad_to_patch_sizeEP17GGMLRunnerContextP11ggml_tensor @706
    _ZN4Qwen14QwenImageModel7forwardEP17GGMLRunnerContextP11ggml_tensorS4_S4_S4_NSt3__16vectorIS4_NS5_9allocatorIS4_EEEES4_ @707
    _ZN4Qwen14QwenImageModel8patchifyEP12ggml_contextP11ggml_tensor @708
    _ZN4Qwen14QwenImageModelC2ENS_15QwenImageParamsE @709
    _ZN4Qwen14QwenImageModelD2Ev @710
    _ZN4Qwen14QwenImageModelaSEOS0_ @711
    _ZN4Qwen15QwenImageRunner11build_graphEP11ggml_tensorS2_S2_NSt3__16vectorIS2_NS3_9allocatorIS2_EEEEb @712
    _ZN4Qwen15QwenImageRunner8get_descEv @713
    _ZN4Qwen15QwenImageRunnerC2EP12ggml_backendbRK10OrderedMapINSt3__112basic_stringIcNS4_11char_traitsIcEENS4_9allocatorIcEEEE13TensorStorageESA_9SDVersionb @714
    _ZN4Qwen15QwenImageRunnerD0Ev @715
    _ZN4Qwen15QwenImageRunnerD2Ev @716
    _ZN4Qwen17TimestepEmbedding7forwardEP17GGMLRunnerContextP11ggml_tensorS4_ @717
    _ZN4Qwen17TimestepEmbeddingC2Exxxxb @718
    _ZN4Qwen18QwenImageAttention7forwardEP17GGMLRunnerContextP11ggml_tensorS4_S4_S4_ @719
    _ZN4Qwen18QwenImageAttentionC2Exxxxxbbf @720
    _ZN4Qwen22AdaLayerNormContinuous7forwardEP17GGMLRunnerContextP11ggml_tensorS4_ @721
    _ZN4Qwen22AdaLayerNormContinuousC2Exxbfb @722
    _ZN4Qwen25QwenImageTransformerBlock18get_mod_params_vecEP12ggml_contextP11ggml_tensorS4_ @723
    _ZN4Qwen25QwenImageTransformerBlock7forwardEP17GGMLRunnerContextP11ggml_tensorS4_S4_S4_S4_ @724
    _ZN4Qwen25QwenImageTransformerBlockC2Exxxfbi @725
    _ZN4Qwen26QwenTimestepProjEmbeddings7forwardEP17GGMLRunnerContextP11ggml_tensor @726
    _ZN4Qwen26QwenTimestepProjEmbeddingsC2Ex @727
    _ZN4RRDB7forwardEP17GGMLRunnerContextP11ggml_tensor @728
    _ZN4RRDBC2Eii @729
    _ZN51PhotoMakerIDEncoder_CLIPInsightfaceExtendtokenBlock7forwardEP17GGMLRunnerContextP11ggml_tensorS3_S3_S3_S3_S3_S3_ @730
    _ZN51PhotoMakerIDEncoder_CLIPInsightfaceExtendtokenBlockC2Ei @731
    _ZN5Darts15DoubleArrayImplIvvivE5buildEyPKPKcPKyPKiPFiyyE @732
    _ZN5Darts15DoubleArrayImplIvvivED0Ev @733
    _ZN5Darts15DoubleArrayImplIvvivED2Ev @734
    _ZN5Darts7Details11DawgBuilder12expand_tableEv @735
    _ZN5Darts7Details11DawgBuilder4initEv @736
    _ZN5Darts7Details11DawgBuilder5clearEv @737
    _ZN5Darts7Details11DawgBuilder5flushEj @738
    _ZN5Darts7Details11DawgBuilder6finishEv @739
    _ZN5Darts7Details11DawgBuilder6insertEPKcyi @740
    _ZN5Darts7Details11DawgBuilderD2Ev @741
    _ZN5Darts7Details18DoubleArrayBuilder12expand_unitsEv @742
    _ZN5Darts7Details18DoubleArrayBuilder15build_from_dawgERKNS0_11DawgBuilderE @743
    _ZN5Darts7Details18DoubleArrayBuilder15build_from_dawgERKNS0_11DawgBuilderEjj @744
    _ZN5Darts7Details18DoubleArrayBuilder17arrange_from_dawgERKNS0_11DawgBuilderEjj @745
    _ZN5Darts7Details18DoubleArrayBuilder17build_from_keysetIiEEvRKNS0_6KeysetIT_EE @746
    _ZN5Darts7Details18DoubleArrayBuilder17build_from_keysetIiEEvRKNS0_6KeysetIT_EEyyyj @747
    _ZN5Darts7Details18DoubleArrayBuilder19arrange_from_keysetIiEEjRKNS0_6KeysetIT_EEyyyj @748
    _ZN5Darts7Details18DoubleArrayBuilder5buildIiEEvRKNS0_6KeysetIT_EE @749
    _ZN5Darts7Details18DoubleArrayBuilderD2Ev @750
    _ZN5Darts7Details8AutoPoolINS0_22DoubleArrayBuilderUnitEE10resize_bufEy @751
    _ZN5Darts7Details8AutoPoolINS0_8DawgNodeEE10resize_bufEy @752
    _ZN5Darts7Details8AutoPoolINS0_8DawgUnitEE10resize_bufEy @753
    _ZN5Darts7Details8AutoPoolIhE10resize_bufEy @754
    _ZN5Darts7Details8AutoPoolIjE10resize_bufEy @755
    _ZN5Darts7Details9BitVector5buildEv @756
    _ZN5Darts7Details9ExceptionD0Ev @757
    _ZN5GEGLU7forwardEP17GGMLRunnerContextP11ggml_tensor @758
    _ZN5GEGLUC2Exx @759
    _ZN5MMDiT10unpatchifyEP12ggml_contextP11ggml_tensorxx @760
    _ZN5MMDiT11init_paramsEP12ggml_contextRK10OrderedMapINSt3__112basic_stringIcNS3_11char_traitsIcEENS3_9allocatorIcEEEE13TensorStorageES9_ @761
    _ZN5MMDiT17cropped_pos_embedEP12ggml_contextxx @762
    _ZN5MMDiT24forward_core_with_concatEP17GGMLRunnerContextP11ggml_tensorS3_S3_NSt3__16vectorIiNS4_9allocatorIiEEEE @763
    _ZN5MMDiT7forwardEP17GGMLRunnerContextP11ggml_tensorS3_S3_S3_NSt3__16vectorIiNS4_9allocatorIiEEEE @764
    _ZN5MMDiTC2ERK10OrderedMapINSt3__112basic_stringIcNS1_11char_traitsIcEENS1_9allocatorIcEEEE13TensorStorageE @765
    _ZN5MMDiTD2Ev @766
    _ZN5TAEHV6decodeEP17GGMLRunnerContextP11ggml_tensor @767
    _ZN5TAEHV6encodeEP17GGMLRunnerContextP11ggml_tensor @768
    _ZN5TAEHVC2Eb9SDVersion @769
    _ZN5TAESD6decodeEP17GGMLRunnerContextP11ggml_tensor @770
    _ZN5TAESD6encodeEP17GGMLRunnerContextP11ggml_tensor @771
    _ZN5TAESDC2Eb9SDVersion @772
    _ZN5TGrow7forwardEP17GGMLRunnerContextP11ggml_tensor @773
    _ZN5TGrowC2Eii @774
    _ZN5TPool7forwardEP17GGMLRunnerContextP11ggml_tensor @775
    _ZN5TPoolC2Eii @776
    _ZN6Conv2d11init_paramsEP12ggml_contextRK10OrderedMapINSt3__112basic_stringIcNS3_11char_traitsIcEENS3_9allocatorIcEEEE13TensorStorageES9_ @777
    _ZN6Conv2d7forwardEP17GGMLRunnerContextP11ggml_tensor @778
    _ZN6Conv2d8get_descEv @779
    _ZN6Conv2dD2Ev @780
    _ZN6Conv3d11init_paramsEP12ggml_contextRK10OrderedMapINSt3__112basic_stringIcNS3_11char_traitsIcEENS3_9allocatorIcEEEE13TensorStorageES9_ @781
    _ZN6Conv3d7forwardEP17GGMLRunnerContextP11ggml_tensor @782
    _ZN6ESRGAN11build_graphEP11ggml_tensor @783
    _ZN6ESRGAN14load_from_fileERKNSt3__112basic_stringIcNS0_11char_traitsIcEENS0_9allocatorIcEEEEi @784
    _ZN6ESRGAN8get_descEv @785
    _ZN6ESRGAND0Ev @786
    _ZN6ESRGAND2Ev @787
    _ZN6Linear11init_paramsEP12ggml_contextRK10OrderedMapINSt3__112basic_stringIcNS3_11char_traitsIcEENS3_9allocatorIcEEEE13TensorStorageES9_ @788
    _ZN6Linear7forwardEP17GGMLRunnerContextP11ggml_tensor @789
    _ZN6ZImage10FinalLayer7forwardEP17GGMLRunnerContextP11ggml_tensorS4_ @790
    _ZN6ZImage10FinalLayerC2Exxx @791
    _ZN6ZImage11FeedForward7forwardEP17GGMLRunnerContextP11ggml_tensor @792
    _ZN6ZImage11FeedForwardC2Exxxf @793
    _ZN6ZImage11ZImageModel10unpatchifyEP12ggml_contextP11ggml_tensorxx @794
    _ZN6ZImage11ZImageModel11init_paramsEP12ggml_contextRK10OrderedMapINSt3__112basic_stringIcNS4_11char_traitsIcEENS4_9allocatorIcEEEE13TensorStorageESA_ @795
    _ZN6ZImage11ZImageModel12forward_coreEP17GGMLRunnerContextP11ggml_tensorS4_S4_S4_ @796
    _ZN6ZImage11ZImageModel17pad_to_patch_sizeEP17GGMLRunnerContextP11ggml_tensor @797
    _ZN6ZImage11ZImageModel7forwardEP17GGMLRunnerContextP11ggml_tensorS4_S4_S4_NSt3__16vectorIS4_NS5_9allocatorIS4_EEEE @798
    _ZN6ZImage11ZImageModel8patchifyEP12ggml_contextP11ggml_tensor @799
    _ZN6ZImage11ZImageModelC2ENS_12ZImageParamsE @800
    _ZN6ZImage11ZImageModelC2Ev @801
    _ZN6ZImage11ZImageModelD2Ev @802
    _ZN6ZImage11ZImageModelaSEOS0_ @803
    _ZN6ZImage12ZImageRunner11build_graphEP11ggml_tensorS2_S2_NSt3__16vectorIS2_NS3_9allocatorIS2_EEEEb @804
    _ZN6ZImage12ZImageRunner8get_descEv @805
    _ZN6ZImage12ZImageRunnerC2EP12ggml_backendbRK10OrderedMapINSt3__112basic_stringIcNS4_11char_traitsIcEENS4_9allocatorIcEEEE13TensorStorageESA_9SDVersion @806
    _ZN6ZImage12ZImageRunnerD0Ev @807
    _ZN6ZImage12ZImageRunnerD2Ev @808
    _ZN6ZImage14JointAttention7forwardEP17GGMLRunnerContextP11ggml_tensorS4_S4_ @809
    _ZN6ZImage14JointAttentionC2Exxxxb @810
    _ZN6ZImage21JointTransformerBlock7forwardEP17GGMLRunnerContextP11ggml_tensorS4_S4_S4_ @811
    _ZN6ZImage21JointTransformerBlockC2Eixxxxxffbb @812
    _ZN7CLIPMLP7forwardEP17GGMLRunnerContextP11ggml_tensor @813
    _ZN7CLIPMLPC2Exx @814
    _ZN7Decoder12get_conv_outExxNSt3__14pairIiiEES2_S2_ @815
    _ZN7Decoder16get_resnet_blockExx @816
    _ZN7Decoder7forwardEP17GGMLRunnerContextP11ggml_tensor @817
    _ZN7DecoderC2EiiNSt3__16vectorIiNS0_9allocatorIiEEEEiibbi @818
    _ZN7Encoder7forwardEP17GGMLRunnerContextP11ggml_tensor @819
    _ZN7EncoderC2EiNSt3__16vectorIiNS0_9allocatorIiEEEEiiibb @820
    _ZN7FakeVAE17get_param_tensorsERNSt3__13mapINS0_12basic_stringIcNS0_11char_traitsIcEENS0_9allocatorIcEEEEP11ggml_tensorNS0_4lessIS7_EENS5_INS0_4pairIKS7_S9_EEEEEES7_ @821
    _ZN7FakeVAE7computeEiP11ggml_tensorbPS1_P12ggml_context @822
    _ZN7FakeVAE8get_descEv @823
    _ZN7FakeVAED0Ev @824
    _ZN7RMSNorm11init_paramsEP12ggml_contextRK10OrderedMapINSt3__112basic_stringIcNS3_11char_traitsIcEENS3_9allocatorIcEEEE13TensorStorageES9_ @825
    _ZN7RMSNorm7forwardEP17GGMLRunnerContextP11ggml_tensor @826
    _ZN7RRDBNet7forwardEP17GGMLRunnerContextP11ggml_tensor @827
    _ZN7RRDBNetC2Eiiiiii @828
    _ZN7T5Block7forwardEP17GGMLRunnerContextP11ggml_tensorS3_S3_S3_ @829
    _ZN7T5BlockC2Exxxxb @830
    _ZN7T5Stack7forwardEP17GGMLRunnerContextP11ggml_tensorS3_S3_S3_ @831
    _ZN7T5StackC2Exxxxxb @832
    _ZN8AE3DConv7forwardEP17GGMLRunnerContextP11ggml_tensor @833
    _ZN8AE3DConvC2ExxNSt3__14pairIiiEEiS2_S2_S2_b @834
    _ZN8Denoiser10get_sigmasEji11scheduler_t9SDVersion @835
    _ZN8Identity7forwardEP17GGMLRunnerContextP11ggml_tensor @836
    _ZN8MemBlock7forwardEP17GGMLRunnerContextP11ggml_tensorS3_ @837
    _ZN8MemBlockC2Eii @838
    _ZN8ResBlock7conv_ndEixxNSt3__14pairIiiEES2_ @839
    _ZN8ResBlock7forwardEP17GGMLRunnerContextP11ggml_tensorS3_ @840
    _ZN8ResBlockC2ExxxNSt3__14pairIiiEEibb @841
    _ZN8T5Runner11build_graphEP11ggml_tensorS1_ @842
    _ZN8T5Runner25_relative_position_bucketERKNSt3__16vectorIiNS0_9allocatorIiEEEEbii @843
    _ZN8T5Runner32compute_relative_position_bucketEii @844
    _ZN8T5Runner8get_descEv @845
    _ZN8T5RunnerC2EP12ggml_backendbRK10OrderedMapINSt3__112basic_stringIcNS3_11char_traitsIcEENS3_9allocatorIcEEEE13TensorStorageES9_b @846
    _ZN8T5RunnerD0Ev @847
    _ZN8T5RunnerD2Ev @848
    _ZN8TAEBlock7forwardEP17GGMLRunnerContextP11ggml_tensor @849
    _ZN8TAEBlockC2Eiib @850
    _ZN8WanModel17get_param_tensorsERNSt3__13mapINS0_12basic_stringIcNS0_11char_traitsIcEENS0_9allocatorIcEEEEP11ggml_tensorNS0_4lessIS7_EENS5_INS0_4pairIKS7_S9_EEEEEE @851
    _ZN8WanModel17set_circular_axesEbb @852
    _ZN8WanModel18free_params_bufferEv @853
    _ZN8WanModel18set_weight_adapterERKNSt3__110shared_ptrI13WeightAdapterEE @854
    _ZN8WanModel19alloc_params_bufferEv @855
    _ZN8WanModel19free_compute_bufferEv @856
    _ZN8WanModel19get_adm_in_channelsEv @857
    _ZN8WanModel22get_params_buffer_sizeEv @858
    _ZN8WanModel27set_flash_attention_enabledEb @859
    _ZN8WanModel7computeEi15DiffusionParamsPP11ggml_tensorP12ggml_context @860
    _ZN8WanModel8get_descEv @861
    _ZN8WanModelC2EP12ggml_backendbRK10OrderedMapINSt3__112basic_stringIcNS3_11char_traitsIcEENS3_9allocatorIcEEEE13TensorStorageES9_9SDVersion @862
    _ZN8WanModelD2Ev @863
    _ZN8nlohmann16json_abi_v3_11_210basic_jsonINSt3__13mapENS2_6vectorENS2_12basic_stringIcNS2_11char_traitsIcEENS2_9allocatorIcEEEEbxydS8_NS0_14adl_serializerENS4_IhNS8_IhEEEEE10json_value7destroyENS0_6detail7value_tE @864
    _ZN8nlohmann16json_abi_v3_11_210basic_jsonINSt3__13mapENS2_6vectorENS2_12basic_stringIcNS2_11char_traitsIcEENS2_9allocatorIcEEEEbxydS8_NS0_14adl_serializerENS4_IhNS8_IhEEEEE10json_valueC2ENS0_6detail7value_tE @865
    _ZN8nlohmann16json_abi_v3_11_210basic_jsonINSt3__13mapENS2_6vectorENS2_12basic_stringIcNS2_11char_traitsIcEENS2_9allocatorIcEEEEbxydS8_NS0_14adl_serializerENS4_IhNS8_IhEEEEE5eraseINS0_6detail9iter_implISE_EETnNS2_9enable_ifIXoosr3std7is @866
    _ZN8nlohmann16json_abi_v3_11_210basic_jsonINSt3__13mapENS2_6vectorENS2_12basic_stringIcNS2_11char_traitsIcEENS2_9allocatorIcEEEEbxydS8_NS0_14adl_serializerENS4_IhNS8_IhEEEEE5parseIPcEESE_OT_NS2_8functionIFbiNS0_6detail13parse_event_tERS @867
    _ZN8nlohmann16json_abi_v3_11_210basic_jsonINSt3__13mapENS2_6vectorENS2_12basic_stringIcNS2_11char_traitsIcEENS2_9allocatorIcEEEEbxydS8_NS0_14adl_serializerENS4_IhNS8_IhEEEEE5parseIRKSA_EESE_OT_NS2_8functionIFbiNS0_6detail13parse_event_t @868
    _ZN8nlohmann16json_abi_v3_11_210basic_jsonINSt3__13mapENS2_6vectorENS2_12basic_stringIcNS2_11char_traitsIcEENS2_9allocatorIcEEEEbxydS8_NS0_14adl_serializerENS4_IhNS8_IhEEEEE6createINS3_ISA_SE_NS2_4lessIvEENS8_INS2_4pairIKSA_SE_EEEEEEJRK @869
    _ZN8nlohmann16json_abi_v3_11_210basic_jsonINSt3__13mapENS2_6vectorENS2_12basic_stringIcNS2_11char_traitsIcEENS2_9allocatorIcEEEEbxydS8_NS0_14adl_serializerENS4_IhNS8_IhEEEEE6createISA_JRA1_KcEEEPT_DpOT0_ @870
    _ZN8nlohmann16json_abi_v3_11_210basic_jsonINSt3__13mapENS2_6vectorENS2_12basic_stringIcNS2_11char_traitsIcEENS2_9allocatorIcEEEEbxydS8_NS0_14adl_serializerENS4_IhNS8_IhEEEEEC2EOSE_ @871
    _ZN8nlohmann16json_abi_v3_11_210basic_jsonINSt3__13mapENS2_6vectorENS2_12basic_stringIcNS2_11char_traitsIcEENS2_9allocatorIcEEEEbxydS8_NS0_14adl_serializerENS4_IhNS8_IhEEEEEC2ERKSE_ @872
    _ZN8nlohmann16json_abi_v3_11_210basic_jsonINSt3__13mapENS2_6vectorENS2_12basic_stringIcNS2_11char_traitsIcEENS2_9allocatorIcEEEEbxydS8_NS0_14adl_serializerENS4_IhNS8_IhEEEEED2Ev @873
    _ZN8nlohmann16json_abi_v3_11_210basic_jsonINSt3__13mapENS2_6vectorENS2_12basic_stringIcNS2_11char_traitsIcEENS2_9allocatorIcEEEEbxydS8_NS0_14adl_serializerENS4_IhNS8_IhEEEEEaSESE_ @874
    _ZN8nlohmann16json_abi_v3_11_210basic_jsonINSt3__13mapENS2_6vectorENS2_12basic_stringIcNS2_11char_traitsIcEENS2_9allocatorIcEEEEbxydS8_NS0_14adl_serializerENS4_IhNS8_IhEEEEEixESA_ @875
    _ZN8nlohmann16json_abi_v3_11_210basic_jsonINSt3__13mapENS2_6vectorENS2_12basic_stringIcNS2_11char_traitsIcEENS2_9allocatorIcEEEEbxydS8_NS0_14adl_serializerENS4_IhNS8_IhEEEEEixEy @876
    _ZN8nlohmann16json_abi_v3_11_210basic_jsonINSt3__13mapENS2_6vectorENS2_12basic_stringIcNS2_11char_traitsIcEENS2_9allocatorIcEEEEbxydS8_NS0_14adl_serializerENS4_IhNS8_IhEEEEEixIKcEERSE_PT_ @877
    _ZN8nlohmann16json_abi_v3_11_26detail10type_error6createIPKNS0_10basic_jsonINSt3__13mapENS5_6vectorENS5_12basic_stringIcNS5_11char_traitsIcEENS5_9allocatorIcEEEEbxydSB_NS0_14adl_serializerENS7_IhNSB_IhEEEEEETnNS5_9enable_ifIXsr21is_basi @878
    _ZN8nlohmann16json_abi_v3_11_26detail10type_error6createIPNS0_10basic_jsonINSt3__13mapENS5_6vectorENS5_12basic_stringIcNS5_11char_traitsIcEENS5_9allocatorIcEEEEbxydSB_NS0_14adl_serializerENS7_IhNSB_IhEEEEEETnNS5_9enable_ifIXsr21is_basic @879
    _ZN8nlohmann16json_abi_v3_11_26detail10type_errorD0Ev @880
    _ZN8nlohmann16json_abi_v3_11_26detail11parse_error15position_stringERKNS1_10position_tE @881
    _ZN8nlohmann16json_abi_v3_11_26detail11parse_error6createIDnTnNSt3__19enable_ifIXsr21is_basic_json_contextIT_EE5valueEiE4typeELi0EEES2_iRKNS1_10position_tERKNS4_12basic_stringIcNS4_11char_traitsIcEENS4_9allocatorIcEEEES6_ @882
    _ZN8nlohmann16json_abi_v3_11_26detail11parse_errorC2ERKS2_ @883
    _ZN8nlohmann16json_abi_v3_11_26detail11parse_errorD0Ev @884
    _ZN8nlohmann16json_abi_v3_11_26detail12out_of_range6createIDnTnNSt3__19enable_ifIXsr21is_basic_json_contextIT_EE5valueEiE4typeELi0EEES2_iRKNS4_12basic_stringIcNS4_11char_traitsIcEENS4_9allocatorIcEEEES6_ @885
    _ZN8nlohmann16json_abi_v3_11_26detail12out_of_range6createIPNS0_10basic_jsonINSt3__13mapENS5_6vectorENS5_12basic_stringIcNS5_11char_traitsIcEENS5_9allocatorIcEEEEbxydSB_NS0_14adl_serializerENS7_IhNSB_IhEEEEEETnNS5_9enable_ifIXsr21is_bas @886
    _ZN8nlohmann16json_abi_v3_11_26detail12out_of_rangeC2ERKS2_ @887
    _ZN8nlohmann16json_abi_v3_11_26detail12out_of_rangeD0Ev @888
    _ZN8nlohmann16json_abi_v3_11_26detail16invalid_iterator6createIPNS0_10basic_jsonINSt3__13mapENS5_6vectorENS5_12basic_stringIcNS5_11char_traitsIcEENS5_9allocatorIcEEEEbxydSB_NS0_14adl_serializerENS7_IhNSB_IhEEEEEETnNS5_9enable_ifIXsr21is @889
    _ZN8nlohmann16json_abi_v3_11_26detail16invalid_iteratorD0Ev @890
    _ZN8nlohmann16json_abi_v3_11_26detail19json_sax_dom_parserINS0_10basic_jsonINSt3__13mapENS4_6vectorENS4_12basic_stringIcNS4_11char_traitsIcEENS4_9allocatorIcEEEEbxydSA_NS0_14adl_serializerENS6_IhNSA_IhEEEEEEE11parse_errorINS1_11parse_er @891
    _ZN8nlohmann16json_abi_v3_11_26detail19json_sax_dom_parserINS0_10basic_jsonINSt3__13mapENS4_6vectorENS4_12basic_stringIcNS4_11char_traitsIcEENS4_9allocatorIcEEEEbxydSA_NS0_14adl_serializerENS6_IhNSA_IhEEEEEEE11parse_errorINS1_12out_of_r @892
    _ZN8nlohmann16json_abi_v3_11_26detail19json_sax_dom_parserINS0_10basic_jsonINSt3__13mapENS4_6vectorENS4_12basic_stringIcNS4_11char_traitsIcEENS4_9allocatorIcEEEEbxydSA_NS0_14adl_serializerENS6_IhNSA_IhEEEEEEE12handle_valueIDnEEPSG_OT_ @893
    _ZN8nlohmann16json_abi_v3_11_26detail19json_sax_dom_parserINS0_10basic_jsonINSt3__13mapENS4_6vectorENS4_12basic_stringIcNS4_11char_traitsIcEENS4_9allocatorIcEEEEbxydSA_NS0_14adl_serializerENS6_IhNSA_IhEEEEEEE12handle_valueINS1_7value_tE @894
    _ZN8nlohmann16json_abi_v3_11_26detail19json_sax_dom_parserINS0_10basic_jsonINSt3__13mapENS4_6vectorENS4_12basic_stringIcNS4_11char_traitsIcEENS4_9allocatorIcEEEEbxydSA_NS0_14adl_serializerENS6_IhNSA_IhEEEEEEE12handle_valueIRSC_EEPSG_OT_ @895
    _ZN8nlohmann16json_abi_v3_11_26detail19json_sax_dom_parserINS0_10basic_jsonINSt3__13mapENS4_6vectorENS4_12basic_stringIcNS4_11char_traitsIcEENS4_9allocatorIcEEEEbxydSA_NS0_14adl_serializerENS6_IhNSA_IhEEEEEEE12handle_valueIRbEEPSG_OT_ @896
    _ZN8nlohmann16json_abi_v3_11_26detail19json_sax_dom_parserINS0_10basic_jsonINSt3__13mapENS4_6vectorENS4_12basic_stringIcNS4_11char_traitsIcEENS4_9allocatorIcEEEEbxydSA_NS0_14adl_serializerENS6_IhNSA_IhEEEEEEE12handle_valueIRdEEPSG_OT_ @897
    _ZN8nlohmann16json_abi_v3_11_26detail19json_sax_dom_parserINS0_10basic_jsonINSt3__13mapENS4_6vectorENS4_12basic_stringIcNS4_11char_traitsIcEENS4_9allocatorIcEEEEbxydSA_NS0_14adl_serializerENS6_IhNSA_IhEEEEEEE12handle_valueIRxEEPSG_OT_ @898
    _ZN8nlohmann16json_abi_v3_11_26detail19json_sax_dom_parserINS0_10basic_jsonINSt3__13mapENS4_6vectorENS4_12basic_stringIcNS4_11char_traitsIcEENS4_9allocatorIcEEEEbxydSA_NS0_14adl_serializerENS6_IhNSA_IhEEEEEEE12handle_valueIRyEEPSG_OT_ @899
    _ZN8nlohmann16json_abi_v3_11_26detail20get_arithmetic_valueINS0_10basic_jsonINSt3__13mapENS4_6vectorENS4_12basic_stringIcNS4_11char_traitsIcEENS4_9allocatorIcEEEEbxydSA_NS0_14adl_serializerENS6_IhNSA_IhEEEEEExTnNS4_9enable_ifIXaasr3std1 @900
    _ZN8nlohmann16json_abi_v3_11_26detail20get_arithmetic_valueINS0_10basic_jsonINSt3__13mapENS4_6vectorENS4_12basic_stringIcNS4_11char_traitsIcEENS4_9allocatorIcEEEEbxydSA_NS0_14adl_serializerENS6_IhNSA_IhEEEEEEyTnNS4_9enable_ifIXaasr3std1 @901
    _ZN8nlohmann16json_abi_v3_11_26detail21iteration_proxy_valueINS1_9iter_implINS0_10basic_jsonINSt3__13mapENS5_6vectorENS5_12basic_stringIcNS5_11char_traitsIcEENS5_9allocatorIcEEEEbxydSB_NS0_14adl_serializerENS7_IhNSB_IhEEEEEEEEED2Ev @902
    _ZN8nlohmann16json_abi_v3_11_26detail28json_sax_dom_callback_parserINS0_10basic_jsonINSt3__13mapENS4_6vectorENS4_12basic_stringIcNS4_11char_traitsIcEENS4_9allocatorIcEEEEbxydSA_NS0_14adl_serializerENS6_IhNSA_IhEEEEEEE10end_objectEv @903
    _ZN8nlohmann16json_abi_v3_11_26detail28json_sax_dom_callback_parserINS0_10basic_jsonINSt3__13mapENS4_6vectorENS4_12basic_stringIcNS4_11char_traitsIcEENS4_9allocatorIcEEEEbxydSA_NS0_14adl_serializerENS6_IhNSA_IhEEEEEEE11parse_errorINS1_1 @904
    _ZN8nlohmann16json_abi_v3_11_26detail28json_sax_dom_callback_parserINS0_10basic_jsonINSt3__13mapENS4_6vectorENS4_12basic_stringIcNS4_11char_traitsIcEENS4_9allocatorIcEEEEbxydSA_NS0_14adl_serializerENS6_IhNSA_IhEEEEEEE11parse_errorINS1_1 @905
    _ZN8nlohmann16json_abi_v3_11_26detail28json_sax_dom_callback_parserINS0_10basic_jsonINSt3__13mapENS4_6vectorENS4_12basic_stringIcNS4_11char_traitsIcEENS4_9allocatorIcEEEEbxydSA_NS0_14adl_serializerENS6_IhNSA_IhEEEEEEE11start_arrayEy @906
    _ZN8nlohmann16json_abi_v3_11_26detail28json_sax_dom_callback_parserINS0_10basic_jsonINSt3__13mapENS4_6vectorENS4_12basic_stringIcNS4_11char_traitsIcEENS4_9allocatorIcEEEEbxydSA_NS0_14adl_serializerENS6_IhNSA_IhEEEEEEE12handle_valueIDnEE @907
    _ZN8nlohmann16json_abi_v3_11_26detail28json_sax_dom_callback_parserINS0_10basic_jsonINSt3__13mapENS4_6vectorENS4_12basic_stringIcNS4_11char_traitsIcEENS4_9allocatorIcEEEEbxydSA_NS0_14adl_serializerENS6_IhNSA_IhEEEEEEE12handle_valueINS1_ @908
    _ZN8nlohmann16json_abi_v3_11_26detail28json_sax_dom_callback_parserINS0_10basic_jsonINSt3__13mapENS4_6vectorENS4_12basic_stringIcNS4_11char_traitsIcEENS4_9allocatorIcEEEEbxydSA_NS0_14adl_serializerENS6_IhNSA_IhEEEEEEE12handle_valueIRSC_ @909
    _ZN8nlohmann16json_abi_v3_11_26detail28json_sax_dom_callback_parserINS0_10basic_jsonINSt3__13mapENS4_6vectorENS4_12basic_stringIcNS4_11char_traitsIcEENS4_9allocatorIcEEEEbxydSA_NS0_14adl_serializerENS6_IhNSA_IhEEEEEEE12handle_valueIRbEE @910
    _ZN8nlohmann16json_abi_v3_11_26detail28json_sax_dom_callback_parserINS0_10basic_jsonINSt3__13mapENS4_6vectorENS4_12basic_stringIcNS4_11char_traitsIcEENS4_9allocatorIcEEEEbxydSA_NS0_14adl_serializerENS6_IhNSA_IhEEEEEEE12handle_valueIRdEE @911
    _ZN8nlohmann16json_abi_v3_11_26detail28json_sax_dom_callback_parserINS0_10basic_jsonINSt3__13mapENS4_6vectorENS4_12basic_stringIcNS4_11char_traitsIcEENS4_9allocatorIcEEEEbxydSA_NS0_14adl_serializerENS6_IhNSA_IhEEEEEEE12handle_valueIRxEE @912
    _ZN8nlohmann16json_abi_v3_11_26detail28json_sax_dom_callback_parserINS0_10basic_jsonINSt3__13mapENS4_6vectorENS4_12basic_stringIcNS4_11char_traitsIcEENS4_9allocatorIcEEEEbxydSA_NS0_14adl_serializerENS6_IhNSA_IhEEEEEEE12handle_valueIRyEE @913
    _ZN8nlohmann16json_abi_v3_11_26detail28json_sax_dom_callback_parserINS0_10basic_jsonINSt3__13mapENS4_6vectorENS4_12basic_stringIcNS4_11char_traitsIcEENS4_9allocatorIcEEEEbxydSA_NS0_14adl_serializerENS6_IhNSA_IhEEEEEEE12start_objectEy @914
    _ZN8nlohmann16json_abi_v3_11_26detail28json_sax_dom_callback_parserINS0_10basic_jsonINSt3__13mapENS4_6vectorENS4_12basic_stringIcNS4_11char_traitsIcEENS4_9allocatorIcEEEEbxydSA_NS0_14adl_serializerENS6_IhNSA_IhEEEEEEE3keyERSC_ @915
    _ZN8nlohmann16json_abi_v3_11_26detail28json_sax_dom_callback_parserINS0_10basic_jsonINSt3__13mapENS4_6vectorENS4_12basic_stringIcNS4_11char_traitsIcEENS4_9allocatorIcEEEEbxydSA_NS0_14adl_serializerENS6_IhNSA_IhEEEEEEE9end_arrayEv @916
    _ZN8nlohmann16json_abi_v3_11_26detail28json_sax_dom_callback_parserINS0_10basic_jsonINSt3__13mapENS4_6vectorENS4_12basic_stringIcNS4_11char_traitsIcEENS4_9allocatorIcEEEEbxydSA_NS0_14adl_serializerENS6_IhNSA_IhEEEEEEEC2ERSG_NS4_8functio @917
    _ZN8nlohmann16json_abi_v3_11_26detail28json_sax_dom_callback_parserINS0_10basic_jsonINSt3__13mapENS4_6vectorENS4_12basic_stringIcNS4_11char_traitsIcEENS4_9allocatorIcEEEEbxydSA_NS0_14adl_serializerENS6_IhNSA_IhEEEEEEED2Ev @918
    _ZN8nlohmann16json_abi_v3_11_26detail5lexerINS0_10basic_jsonINSt3__13mapENS4_6vectorENS4_12basic_stringIcNS4_11char_traitsIcEENS4_9allocatorIcEEEEbxydSA_NS0_14adl_serializerENS6_IhNSA_IhEEEEEENS1_22iterator_input_adapterINS4_11__wrap_it @919
    _ZN8nlohmann16json_abi_v3_11_26detail5lexerINS0_10basic_jsonINSt3__13mapENS4_6vectorENS4_12basic_stringIcNS4_11char_traitsIcEENS4_9allocatorIcEEEEbxydSA_NS0_14adl_serializerENS6_IhNSA_IhEEEEEENS1_22iterator_input_adapterINS4_11__wrap_it @920
    _ZN8nlohmann16json_abi_v3_11_26detail5lexerINS0_10basic_jsonINSt3__13mapENS4_6vectorENS4_12basic_stringIcNS4_11char_traitsIcEENS4_9allocatorIcEEEEbxydSA_NS0_14adl_serializerENS6_IhNSA_IhEEEEEENS1_22iterator_input_adapterINS4_11__wrap_it @921
    _ZN8nlohmann16json_abi_v3_11_26detail5lexerINS0_10basic_jsonINSt3__13mapENS4_6vectorENS4_12basic_stringIcNS4_11char_traitsIcEENS4_9allocatorIcEEEEbxydSA_NS0_14adl_serializerENS6_IhNSA_IhEEEEEENS1_22iterator_input_adapterINS4_11__wrap_it @922
    _ZN8nlohmann16json_abi_v3_11_26detail5lexerINS0_10basic_jsonINSt3__13mapENS4_6vectorENS4_12basic_stringIcNS4_11char_traitsIcEENS4_9allocatorIcEEEEbxydSA_NS0_14adl_serializerENS6_IhNSA_IhEEEEEENS1_22iterator_input_adapterINS4_11__wrap_it @923
    _ZN8nlohmann16json_abi_v3_11_26detail5lexerINS0_10basic_jsonINSt3__13mapENS4_6vectorENS4_12basic_stringIcNS4_11char_traitsIcEENS4_9allocatorIcEEEEbxydSA_NS0_14adl_serializerENS6_IhNSA_IhEEEEEENS1_22iterator_input_adapterINS4_11__wrap_it @924
    _ZN8nlohmann16json_abi_v3_11_26detail5lexerINS0_10basic_jsonINSt3__13mapENS4_6vectorENS4_12basic_stringIcNS4_11char_traitsIcEENS4_9allocatorIcEEEEbxydSA_NS0_14adl_serializerENS6_IhNSA_IhEEEEEENS1_22iterator_input_adapterINS4_11__wrap_it @925
    _ZN8nlohmann16json_abi_v3_11_26detail5lexerINS0_10basic_jsonINSt3__13mapENS4_6vectorENS4_12basic_stringIcNS4_11char_traitsIcEENS4_9allocatorIcEEEEbxydSA_NS0_14adl_serializerENS6_IhNSA_IhEEEEEENS1_22iterator_input_adapterINS4_11__wrap_it @926
    _ZN8nlohmann16json_abi_v3_11_26detail5lexerINS0_10basic_jsonINSt3__13mapENS4_6vectorENS4_12basic_stringIcNS4_11char_traitsIcEENS4_9allocatorIcEEEEbxydSA_NS0_14adl_serializerENS6_IhNSA_IhEEEEEENS1_22iterator_input_adapterINS4_11__wrap_it @927
    _ZN8nlohmann16json_abi_v3_11_26detail5lexerINS0_10basic_jsonINSt3__13mapENS4_6vectorENS4_12basic_stringIcNS4_11char_traitsIcEENS4_9allocatorIcEEEEbxydSA_NS0_14adl_serializerENS6_IhNSA_IhEEEEEENS1_22iterator_input_adapterINS4_11__wrap_it @928
    _ZN8nlohmann16json_abi_v3_11_26detail5lexerINS0_10basic_jsonINSt3__13mapENS4_6vectorENS4_12basic_stringIcNS4_11char_traitsIcEENS4_9allocatorIcEEEEbxydSA_NS0_14adl_serializerENS6_IhNSA_IhEEEEEENS1_22iterator_input_adapterIPKcEEE11scan_nu @929
    _ZN8nlohmann16json_abi_v3_11_26detail5lexerINS0_10basic_jsonINSt3__13mapENS4_6vectorENS4_12basic_stringIcNS4_11char_traitsIcEENS4_9allocatorIcEEEEbxydSA_NS0_14adl_serializerENS6_IhNSA_IhEEEEEENS1_22iterator_input_adapterIPKcEEE11scan_st @930
    _ZN8nlohmann16json_abi_v3_11_26detail5lexerINS0_10basic_jsonINSt3__13mapENS4_6vectorENS4_12basic_stringIcNS4_11char_traitsIcEENS4_9allocatorIcEEEEbxydSA_NS0_14adl_serializerENS6_IhNSA_IhEEEEEENS1_22iterator_input_adapterIPKcEEE12scan_co @931
    _ZN8nlohmann16json_abi_v3_11_26detail5lexerINS0_10basic_jsonINSt3__13mapENS4_6vectorENS4_12basic_stringIcNS4_11char_traitsIcEENS4_9allocatorIcEEEEbxydSA_NS0_14adl_serializerENS6_IhNSA_IhEEEEEENS1_22iterator_input_adapterIPKcEEE12scan_li @932
    _ZN8nlohmann16json_abi_v3_11_26detail5lexerINS0_10basic_jsonINSt3__13mapENS4_6vectorENS4_12basic_stringIcNS4_11char_traitsIcEENS4_9allocatorIcEEEEbxydSA_NS0_14adl_serializerENS6_IhNSA_IhEEEEEENS1_22iterator_input_adapterIPKcEEE13get_cod @933
    _ZN8nlohmann16json_abi_v3_11_26detail5lexerINS0_10basic_jsonINSt3__13mapENS4_6vectorENS4_12basic_stringIcNS4_11char_traitsIcEENS4_9allocatorIcEEEEbxydSA_NS0_14adl_serializerENS6_IhNSA_IhEEEEEENS1_22iterator_input_adapterIPKcEEE3getEv @934
    _ZN8nlohmann16json_abi_v3_11_26detail5lexerINS0_10basic_jsonINSt3__13mapENS4_6vectorENS4_12basic_stringIcNS4_11char_traitsIcEENS4_9allocatorIcEEEEbxydSA_NS0_14adl_serializerENS6_IhNSA_IhEEEEEENS1_22iterator_input_adapterIPKcEEE4scanEv @935
    _ZN8nlohmann16json_abi_v3_11_26detail5lexerINS0_10basic_jsonINSt3__13mapENS4_6vectorENS4_12basic_stringIcNS4_11char_traitsIcEENS4_9allocatorIcEEEEbxydSA_NS0_14adl_serializerENS6_IhNSA_IhEEEEEENS1_22iterator_input_adapterIPKcEEE5resetEv @936
    _ZN8nlohmann16json_abi_v3_11_26detail5lexerINS0_10basic_jsonINSt3__13mapENS4_6vectorENS4_12basic_stringIcNS4_11char_traitsIcEENS4_9allocatorIcEEEEbxydSA_NS0_14adl_serializerENS6_IhNSA_IhEEEEEENS1_22iterator_input_adapterIPKcEEE8skip_bom @937
    _ZN8nlohmann16json_abi_v3_11_26detail5lexerINS0_10basic_jsonINSt3__13mapENS4_6vectorENS4_12basic_stringIcNS4_11char_traitsIcEENS4_9allocatorIcEEEEbxydSA_NS0_14adl_serializerENS6_IhNSA_IhEEEEEENS1_22iterator_input_adapterIPKcEEED2Ev @938
    _ZN8nlohmann16json_abi_v3_11_26detail6concatINSt3__112basic_stringIcNS3_11char_traitsIcEENS3_9allocatorIcEEEEJPKcRA15_SA_S9_cEEET_DpOT0_ @939
    _ZN8nlohmann16json_abi_v3_11_26detail6concatINSt3__112basic_stringIcNS3_11char_traitsIcEENS3_9allocatorIcEEEEJRA10_KcS9_SC_S9_EEET_DpOT0_ @940
    _ZN8nlohmann16json_abi_v3_11_26detail6concatINSt3__112basic_stringIcNS3_11char_traitsIcEENS3_9allocatorIcEEEEJRA17_KcRKS9_cS9_RA3_SA_EEET_DpOT0_ @941
    _ZN8nlohmann16json_abi_v3_11_26detail6concatINSt3__112basic_stringIcNS3_11char_traitsIcEENS3_9allocatorIcEEEEJRA23_KcS9_EEET_DpOT0_ @942
    _ZN8nlohmann16json_abi_v3_11_26detail6concatINSt3__112basic_stringIcNS3_11char_traitsIcEENS3_9allocatorIcEEEEJRA24_KcS9_EEET_DpOT0_ @943
    _ZN8nlohmann16json_abi_v3_11_26detail6concatINSt3__112basic_stringIcNS3_11char_traitsIcEENS3_9allocatorIcEEEEJRA25_KcPSA_EEET_DpOT0_ @944
    _ZN8nlohmann16json_abi_v3_11_26detail6concatINSt3__112basic_stringIcNS3_11char_traitsIcEENS3_9allocatorIcEEEEJRA26_KcS9_cEEET_DpOT0_ @945
    _ZN8nlohmann16json_abi_v3_11_26detail6concatINSt3__112basic_stringIcNS3_11char_traitsIcEENS3_9allocatorIcEEEEJRA29_KcPSA_EEET_DpOT0_ @946
    _ZN8nlohmann16json_abi_v3_11_26detail6concatINSt3__112basic_stringIcNS3_11char_traitsIcEENS3_9allocatorIcEEEEJRA30_KcPSA_EEET_DpOT0_ @947
    _ZN8nlohmann16json_abi_v3_11_26detail6concatINSt3__112basic_stringIcNS3_11char_traitsIcEENS3_9allocatorIcEEEEJRA51_KcPSA_EEET_DpOT0_ @948
    _ZN8nlohmann16json_abi_v3_11_26detail6concatINSt3__112basic_stringIcNS3_11char_traitsIcEENS3_9allocatorIcEEEEJRA52_KcPSA_EEET_DpOT0_ @949
    _ZN8nlohmann16json_abi_v3_11_26detail6concatINSt3__112basic_stringIcNS3_11char_traitsIcEENS3_9allocatorIcEEEEJS9_RA12_KcS9_RA3_SA_S9_RKS9_EEET_DpOT0_ @950
    _ZN8nlohmann16json_abi_v3_11_26detail6concatINSt3__112basic_stringIcNS3_11char_traitsIcEENS3_9allocatorIcEEEEJS9_S9_RKS9_EEET_DpOT0_ @951
    _ZN8nlohmann16json_abi_v3_11_26detail6parserINS0_10basic_jsonINSt3__13mapENS4_6vectorENS4_12basic_stringIcNS4_11char_traitsIcEENS4_9allocatorIcEEEEbxydSA_NS0_14adl_serializerENS6_IhNSA_IhEEEEEENS1_22iterator_input_adapterINS4_11__wrap_i @952
    _ZN8nlohmann16json_abi_v3_11_26detail6parserINS0_10basic_jsonINSt3__13mapENS4_6vectorENS4_12basic_stringIcNS4_11char_traitsIcEENS4_9allocatorIcEEEEbxydSA_NS0_14adl_serializerENS6_IhNSA_IhEEEEEENS1_22iterator_input_adapterINS4_11__wrap_i @953
    _ZN8nlohmann16json_abi_v3_11_26detail6parserINS0_10basic_jsonINSt3__13mapENS4_6vectorENS4_12basic_stringIcNS4_11char_traitsIcEENS4_9allocatorIcEEEEbxydSA_NS0_14adl_serializerENS6_IhNSA_IhEEEEEENS1_22iterator_input_adapterINS4_11__wrap_i @954
    _ZN8nlohmann16json_abi_v3_11_26detail6parserINS0_10basic_jsonINSt3__13mapENS4_6vectorENS4_12basic_stringIcNS4_11char_traitsIcEENS4_9allocatorIcEEEEbxydSA_NS0_14adl_serializerENS6_IhNSA_IhEEEEEENS1_22iterator_input_adapterINS4_11__wrap_i @955
    _ZN8nlohmann16json_abi_v3_11_26detail6parserINS0_10basic_jsonINSt3__13mapENS4_6vectorENS4_12basic_stringIcNS4_11char_traitsIcEENS4_9allocatorIcEEEEbxydSA_NS0_14adl_serializerENS6_IhNSA_IhEEEEEENS1_22iterator_input_adapterINS4_11__wrap_i @956
    _ZN8nlohmann16json_abi_v3_11_26detail6parserINS0_10basic_jsonINSt3__13mapENS4_6vectorENS4_12basic_stringIcNS4_11char_traitsIcEENS4_9allocatorIcEEEEbxydSA_NS0_14adl_serializerENS6_IhNSA_IhEEEEEENS1_22iterator_input_adapterINS4_11__wrap_i @957
    _ZN8nlohmann16json_abi_v3_11_26detail6parserINS0_10basic_jsonINSt3__13mapENS4_6vectorENS4_12basic_stringIcNS4_11char_traitsIcEENS4_9allocatorIcEEEEbxydSA_NS0_14adl_serializerENS6_IhNSA_IhEEEEEENS1_22iterator_input_adapterIPKcEEE17except @958
    _ZN8nlohmann16json_abi_v3_11_26detail6parserINS0_10basic_jsonINSt3__13mapENS4_6vectorENS4_12basic_stringIcNS4_11char_traitsIcEENS4_9allocatorIcEEEEbxydSA_NS0_14adl_serializerENS6_IhNSA_IhEEEEEENS1_22iterator_input_adapterIPKcEEE18sax_pa @959
    _ZN8nlohmann16json_abi_v3_11_26detail6parserINS0_10basic_jsonINSt3__13mapENS4_6vectorENS4_12basic_stringIcNS4_11char_traitsIcEENS4_9allocatorIcEEEEbxydSA_NS0_14adl_serializerENS6_IhNSA_IhEEEEEENS1_22iterator_input_adapterIPKcEEE18sax_pa @960
    _ZN8nlohmann16json_abi_v3_11_26detail6parserINS0_10basic_jsonINSt3__13mapENS4_6vectorENS4_12basic_stringIcNS4_11char_traitsIcEENS4_9allocatorIcEEEEbxydSA_NS0_14adl_serializerENS6_IhNSA_IhEEEEEENS1_22iterator_input_adapterIPKcEEE5parseEb @961
    _ZN8nlohmann16json_abi_v3_11_26detail6parserINS0_10basic_jsonINSt3__13mapENS4_6vectorENS4_12basic_stringIcNS4_11char_traitsIcEENS4_9allocatorIcEEEEbxydSA_NS0_14adl_serializerENS6_IhNSA_IhEEEEEENS1_22iterator_input_adapterIPKcEEEC2EOSK_N @962
    _ZN8nlohmann16json_abi_v3_11_26detail6parserINS0_10basic_jsonINSt3__13mapENS4_6vectorENS4_12basic_stringIcNS4_11char_traitsIcEENS4_9allocatorIcEEEEbxydSA_NS0_14adl_serializerENS6_IhNSA_IhEEEEEENS1_22iterator_input_adapterIPKcEEED2Ev @963
    _ZN8nlohmann16json_abi_v3_11_26detail9exceptionD0Ev @964
    _ZN8nlohmann16json_abi_v3_11_26detail9exceptionD2Ev @965
    _ZN8nlohmann16json_abi_v3_11_26detail9from_jsonINS0_10basic_jsonINSt3__13mapENS4_6vectorENS4_12basic_stringIcNS4_11char_traitsIcEENS4_9allocatorIcEEEEbxydSA_NS0_14adl_serializerENS6_IhNSA_IhEEEEEEEEvRKT_RNSH_8string_tE @966
    _ZN8nlohmann16json_abi_v3_11_26detail9from_jsonINS0_10basic_jsonINSt3__13mapENS4_6vectorENS4_12basic_stringIcNS4_11char_traitsIcEENS4_9allocatorIcEEEEbxydSA_NS0_14adl_serializerENS6_IhNSA_IhEEEEEEEEvRKT_RNSH_9boolean_tE @967
    _ZN8nlohmann16json_abi_v3_11_26detail9from_jsonINS0_10basic_jsonINSt3__13mapENS4_6vectorENS4_12basic_stringIcNS4_11char_traitsIcEENS4_9allocatorIcEEEEbxydSA_NS0_14adl_serializerENS6_IhNSA_IhEEEEEEfTnNS4_9enable_ifIXaaaaaaaasr3std13is_ar @968
    _ZN8nlohmann16json_abi_v3_11_26detail9from_jsonINS0_10basic_jsonINSt3__13mapENS4_6vectorENS4_12basic_stringIcNS4_11char_traitsIcEENS4_9allocatorIcEEEEbxydSA_NS0_14adl_serializerENS6_IhNSA_IhEEEEEEiTnNS4_9enable_ifIXaaaaaaaasr3std13is_ar @969
    _ZN9AttnBlock11init_paramsEP12ggml_contextRK10OrderedMapINSt3__112basic_stringIcNS3_11char_traitsIcEENS3_9allocatorIcEEEE13TensorStorageES9_ @970
    _ZN9AttnBlock7forwardEP17GGMLRunnerContextP11ggml_tensor @971
    _ZN9AttnBlockC2Exb @972
    _ZN9CLIPLayer7forwardEP17GGMLRunnerContextP11ggml_tensorS3_ @973
    _ZN9CLIPLayerC2Exxxb @974
    _ZN9Embedding11init_paramsEP12ggml_contextRK10OrderedMapINSt3__112basic_stringIcNS3_11char_traitsIcEENS3_9allocatorIcEEEE13TensorStorageES9_ @975
    _ZN9Embedding7forwardEP17GGMLRunnerContextP11ggml_tensor @976
    _ZN9FluxModel17get_param_tensorsERNSt3__13mapINS0_12basic_stringIcNS0_11char_traitsIcEENS0_9allocatorIcEEEEP11ggml_tensorNS0_4lessIS7_EENS5_INS0_4pairIKS7_S9_EEEEEE @977
    _ZN9FluxModel17set_circular_axesEbb @978
    _ZN9FluxModel18free_params_bufferEv @979
    _ZN9FluxModel18set_weight_adapterERKNSt3__110shared_ptrI13WeightAdapterEE @980
    _ZN9FluxModel19alloc_params_bufferEv @981
    _ZN9FluxModel19free_compute_bufferEv @982
    _ZN9FluxModel19get_adm_in_channelsEv @983
    _ZN9FluxModel22get_params_buffer_sizeEv @984
    _ZN9FluxModel27set_flash_attention_enabledEb @985
    _ZN9FluxModel7computeEi15DiffusionParamsPP11ggml_tensorP12ggml_context @986
    _ZN9FluxModel8get_descEv @987
    _ZN9FuseBlock7forwardEP17GGMLRunnerContextP11ggml_tensor @988
    _ZN9FuseBlockC2Eiiib @989
    _ZN9GGMLBlock11init_blocksEP12ggml_contextRK10OrderedMapINSt3__112basic_stringIcNS3_11char_traitsIcEENS3_9allocatorIcEEEE13TensorStorageES9_ @990
    _ZN9GGMLBlock11init_paramsEP12ggml_contextRK10OrderedMapINSt3__112basic_stringIcNS3_11char_traitsIcEENS3_9allocatorIcEEEE13TensorStorageES9_ @991
    _ZN9GGMLBlock14get_all_blocksERNSt3__16vectorIPS_NS0_9allocatorIS2_EEEE @992
    _ZN9GGMLBlock17get_param_tensorsERNSt3__13mapINS0_12basic_stringIcNS0_11char_traitsIcEENS0_9allocatorIcEEEEP11ggml_tensorNS0_4lessIS7_EENS5_INS0_4pairIKS7_S9_EEEEEES7_ @993
    _ZN9GGMLBlock4initEP12ggml_contextRK10OrderedMapINSt3__112basic_stringIcNS3_11char_traitsIcEENS3_9allocatorIcEEEE13TensorStorageES9_ @994
    _ZN9GGMLBlock8get_descEv @995
    _ZN9GGMLBlockD2Ev @996
    _ZN9GroupNorm11init_paramsEP12ggml_contextRK10OrderedMapINSt3__112basic_stringIcNS3_11char_traitsIcEENS3_9allocatorIcEEEE13TensorStorageES9_ @997
    _ZN9GroupNorm7forwardEP17GGMLRunnerContextP11ggml_tensor @998
    _ZN9LayerNorm11init_paramsEP12ggml_contextRK10OrderedMapINSt3__112basic_stringIcNS3_11char_traitsIcEENS3_9allocatorIcEEEE13TensorStorageES9_ @999
    _ZN9LayerNorm7forwardEP17GGMLRunnerContextP11ggml_tensor @1000
    _ZN9LoraModel12get_out_diffEP12ggml_contextP11ggml_tensorN13WeightAdapter13ForwardParamsERKNSt3__112basic_stringIcNS6_11char_traitsIcEENS6_9allocatorIcEEEE @1001
    _ZN9LoraModel14load_from_fileEiNSt3__18functionIFbRKNS0_12basic_stringIcNS0_11char_traitsIcEENS0_9allocatorIcEEEEEEE @1002
    _ZN9LoraModel15get_weight_diffERKNSt3__112basic_stringIcNS0_11char_traitsIcEENS0_9allocatorIcEEEEP12ggml_contextP11ggml_tensorb @1003
    _ZN9LoraModel16build_lora_graphERKNSt3__13mapINS0_12basic_stringIcNS0_11char_traitsIcEENS0_9allocatorIcEEEEP11ggml_tensorNS0_4lessIS7_EENS5_INS0_4pairIKS7_S9_EEEEEE9SDVersion @1004
    _ZN9LoraModel19get_raw_weight_diffERKNSt3__112basic_stringIcNS0_11char_traitsIcEENS0_9allocatorIcEEEEP12ggml_context @1005
    _ZN9LoraModel20get_loha_weight_diffERKNSt3__112basic_stringIcNS0_11char_traitsIcEENS0_9allocatorIcEEEEP12ggml_context @1006
    _ZN9LoraModel20get_lokr_weight_diffERKNSt3__112basic_stringIcNS0_11char_traitsIcEENS0_9allocatorIcEEEEP12ggml_context @1007
    _ZN9LoraModel20get_lora_weight_diffERKNSt3__112basic_stringIcNS0_11char_traitsIcEENS0_9allocatorIcEEEEP12ggml_context @1008
    _ZN9LoraModel23preprocess_lora_tensorsERKNSt3__13mapINS0_12basic_stringIcNS0_11char_traitsIcEENS0_9allocatorIcEEEEP11ggml_tensorNS0_4lessIS7_EENS5_INS0_4pairIKS7_S9_EEEEEE @1009
    _ZN9LoraModel4statEb @1010
    _ZN9LoraModel5applyENSt3__13mapINS0_12basic_stringIcNS0_11char_traitsIcEENS0_9allocatorIcEEEEP11ggml_tensorNS0_4lessIS7_EENS5_INS0_4pairIKS7_S9_EEEEEE9SDVersioni @1011
    _ZN9LoraModel8get_descEv @1012
    _ZN9LoraModelC2ERKNSt3__112basic_stringIcNS0_11char_traitsIcEENS0_9allocatorIcEEEEP12ggml_backendS8_S6_9SDVersion @1013
    _ZN9LoraModelD0Ev @1014
    _ZN9LoraModelD2Ev @1015
    _ZN9PhiloxRNG10philox4_32ERNSt3__16vectorINS1_IjNS0_9allocatorIjEEEENS2_IS4_EEEES7_i @1016
    _ZN9PhiloxRNG11manual_seedEy @1017
    _ZN9PhiloxRNG13philox4_roundERNSt3__16vectorINS1_IjNS0_9allocatorIjEEEENS2_IS4_EEEERKS6_ @1018
    _ZN9PhiloxRNG5randnEj @1019
    _ZN9PhiloxRNG6uint32ERKNSt3__16vectorIyNS0_9allocatorIyEEEE @1020
    _ZN9PhiloxRNGC2Ey @1021
    _ZN9T5LayerFF7forwardEP17GGMLRunnerContextP11ggml_tensor @1022
    _ZN9T5LayerFFC2Exx @1023
    _ZN9UNetModel17get_param_tensorsERNSt3__13mapINS0_12basic_stringIcNS0_11char_traitsIcEENS0_9allocatorIcEEEEP11ggml_tensorNS0_4lessIS7_EENS5_INS0_4pairIKS7_S9_EEEEEE @1024
    _ZN9UNetModel17set_circular_axesEbb @1025
    _ZN9UNetModel18free_params_bufferEv @1026
    _ZN9UNetModel18set_weight_adapterERKNSt3__110shared_ptrI13WeightAdapterEE @1027
    _ZN9UNetModel19alloc_params_bufferEv @1028
    _ZN9UNetModel19free_compute_bufferEv @1029
    _ZN9UNetModel19get_adm_in_channelsEv @1030
    _ZN9UNetModel22get_params_buffer_sizeEv @1031
    _ZN9UNetModel27set_flash_attention_enabledEb @1032
    _ZN9UNetModel7computeEi15DiffusionParamsPP11ggml_tensorP12ggml_context @1033
    _ZN9UNetModel8get_descEv @1034
    _ZNK11MmapWrapper9copy_dataEPvyy @1035
    _ZNK11UCacheState9has_cacheEPK11SDCondition @1036
    _ZNK13TensorStorage14nbytes_to_readEv @1037
    _ZNK13TensorStorage6nbytesEv @1038
    _ZNK13TensorStorage9to_stringEv @1039
    _ZNK14EasyCacheState9has_cacheEPK11SDCondition @1040
    _ZNK18T5UniGramTokenizer15EncodeOptimizedERKNSt3__112basic_stringIcNS0_11char_traitsIcEENS0_9allocatorIcEEEE @1041
    _ZNK18T5UniGramTokenizer6EncodeERKNSt3__112basic_stringIcNS0_11char_traitsIcEENS0_9allocatorIcEEEEb @1042
    _ZNK18T5UniGramTokenizer9NormalizeERKNSt3__112basic_stringIcNS0_11char_traitsIcEENS0_9allocatorIcEEEE @1043
    _ZNK21MetaspacePreTokenizer8tokenizeERKNSt3__112basic_stringIcNS0_11char_traitsIcEENS0_9allocatorIcEEEE @1044
    _ZNK5Darts7Details11DawgBuilder9find_nodeEjPj @1045
    _ZNK5Darts7Details9Exception4whatEv @1046
    _ZNK8nlohmann16json_abi_v3_11_210basic_jsonINSt3__13mapENS2_6vectorENS2_12basic_stringIcNS2_11char_traitsIcEENS2_9allocatorIcEEEEbxydS8_NS0_14adl_serializerENS4_IhNS8_IhEEEEE9type_nameEv @1047
    _ZNK8nlohmann16json_abi_v3_11_210basic_jsonINSt3__13mapENS2_6vectorENS2_12basic_stringIcNS2_11char_traitsIcEENS2_9allocatorIcEEEEbxydS8_NS0_14adl_serializerENS4_IhNS8_IhEEEEEixEy @1048
    _ZNK8nlohmann16json_abi_v3_11_26detail21iteration_proxy_valueINS1_9iter_implINS0_10basic_jsonINSt3__13mapENS5_6vectorENS5_12basic_stringIcNS5_11char_traitsIcEENS5_9allocatorIcEEEEbxydSB_NS0_14adl_serializerENS7_IhNSB_IhEEEEEEEEE3keyEv @1049
    _ZNK8nlohmann16json_abi_v3_11_26detail5lexerINS0_10basic_jsonINSt3__13mapENS4_6vectorENS4_12basic_stringIcNS4_11char_traitsIcEENS4_9allocatorIcEEEEbxydSA_NS0_14adl_serializerENS6_IhNSA_IhEEEEEENS1_22iterator_input_adapterINS4_11__wrap_i @1050
    _ZNK8nlohmann16json_abi_v3_11_26detail5lexerINS0_10basic_jsonINSt3__13mapENS4_6vectorENS4_12basic_stringIcNS4_11char_traitsIcEENS4_9allocatorIcEEEEbxydSA_NS0_14adl_serializerENS6_IhNSA_IhEEEEEENS1_22iterator_input_adapterIPKcEEE16get_to @1051
    _ZNK8nlohmann16json_abi_v3_11_26detail9exception4whatEv @1052
    _ZNK8nlohmann16json_abi_v3_11_26detail9iter_implINS0_10basic_jsonINSt3__13mapENS4_6vectorENS4_12basic_stringIcNS4_11char_traitsIcEENS4_9allocatorIcEEEEbxydSA_NS0_14adl_serializerENS6_IhNSA_IhEEEEEEE3keyEv @1053
    _ZNK8nlohmann16json_abi_v3_11_26detail9iter_implINS0_10basic_jsonINSt3__13mapENS4_6vectorENS4_12basic_stringIcNS4_11char_traitsIcEENS4_9allocatorIcEEEEbxydSA_NS0_14adl_serializerENS6_IhNSA_IhEEEEEEEdeEv @1054
    _ZNK8nlohmann16json_abi_v3_11_26detail9iter_implINS0_10basic_jsonINSt3__13mapENS4_6vectorENS4_12basic_stringIcNS4_11char_traitsIcEENS4_9allocatorIcEEEEbxydSA_NS0_14adl_serializerENS6_IhNSA_IhEEEEEEEeqISH_TnNS4_9enable_ifIXoosr3std7is_sa @1055
    _ZNK8nlohmann16json_abi_v3_11_26detail9iter_implINS0_10basic_jsonINSt3__13mapENS4_6vectorENS4_12basic_stringIcNS4_11char_traitsIcEENS4_9allocatorIcEEEEbxydSA_NS0_14adl_serializerENS6_IhNSA_IhEEEEEEEptEv @1056
    _ZNKSt3__110__back_refIcE6__execERNS_7__stateIcEE @1057
    _ZNKSt3__110__function6__funcINS_6__bindIM8DenoiserFffEJPS3_RKNS_12placeholders4__phILi1EEEEEENS_9allocatorISC_EEFffEE11target_typeEv @1058
    _ZNKSt3__110__function6__funcINS_6__bindIM8DenoiserFffEJPS3_RKNS_12placeholders4__phILi1EEEEEENS_9allocatorISC_EEFffEE6targetERKSt9type_info @1059
    _ZNKSt3__110__function6__funcINS_6__bindIM8DenoiserFffEJPS3_RKNS_12placeholders4__phILi1EEEEEENS_9allocatorISC_EEFffEE7__cloneEPNS0_6__baseISF_EE @1060
    _ZNKSt3__110__function6__funcINS_6__bindIM8DenoiserFffEJPS3_RKNS_12placeholders4__phILi1EEEEEENS_9allocatorISC_EEFffEE7__cloneEv @1061
    _ZNKSt3__110__function6__funcIPFviiP10sd_image_tbPvENS_9allocatorIS6_EES5_E11target_typeEv @1062
    _ZNKSt3__110__function6__funcIPFviiP10sd_image_tbPvENS_9allocatorIS6_EES5_E6targetERKSt9type_info @1063
    _ZNKSt3__110__function6__funcIPFviiP10sd_image_tbPvENS_9allocatorIS6_EES5_E7__cloneEPNS0_6__baseIS5_EE @1064
    _ZNKSt3__110__function6__funcIPFviiP10sd_image_tbPvENS_9allocatorIS6_EES5_E7__cloneEv @1065
    _ZNKSt3__110__function6__funcIZN10ControlNet7computeEiP11ggml_tensorS4_S4_S4_S4_PS4_P12ggml_contextEUlvE_NS_9allocatorIS8_EEFP11ggml_cgraphvEE11target_typeEv @1066
    _ZNKSt3__110__function6__funcIZN10ControlNet7computeEiP11ggml_tensorS4_S4_S4_S4_PS4_P12ggml_contextEUlvE_NS_9allocatorIS8_EEFP11ggml_cgraphvEE6targetERKSt9type_info @1067
    _ZNKSt3__110__function6__funcIZN10ControlNet7computeEiP11ggml_tensorS4_S4_S4_S4_PS4_P12ggml_contextEUlvE_NS_9allocatorIS8_EEFP11ggml_cgraphvEE7__cloneEPNS0_6__baseISD_EE @1068
    _ZNKSt3__110__function6__funcIZN10ControlNet7computeEiP11ggml_tensorS4_S4_S4_S4_PS4_P12ggml_contextEUlvE_NS_9allocatorIS8_EEFP11ggml_cgraphvEE7__cloneEv @1069
    _ZNKSt3__110__function6__funcIZN11LLMEmbedder21get_learned_conditionEP12ggml_contextiRK17ConditionerParamsEUlP11ggml_tensorxxxxE0_NS_9allocatorISA_EEFvS9_xxxxEE11target_typeEv @1070
    _ZNKSt3__110__function6__funcIZN11LLMEmbedder21get_learned_conditionEP12ggml_contextiRK17ConditionerParamsEUlP11ggml_tensorxxxxE0_NS_9allocatorISA_EEFvS9_xxxxEE6targetERKSt9type_info @1071
    _ZNKSt3__110__function6__funcIZN11LLMEmbedder21get_learned_conditionEP12ggml_contextiRK17ConditionerParamsEUlP11ggml_tensorxxxxE0_NS_9allocatorISA_EEFvS9_xxxxEE7__cloneEPNS0_6__baseISD_EE @1072
    _ZNKSt3__110__function6__funcIZN11LLMEmbedder21get_learned_conditionEP12ggml_contextiRK17ConditionerParamsEUlP11ggml_tensorxxxxE0_NS_9allocatorISA_EEFvS9_xxxxEE7__cloneEv @1073
    _ZNKSt3__110__function6__funcIZN11LLMEmbedder21get_learned_conditionEP12ggml_contextiRK17ConditionerParamsEUlP11ggml_tensorxxxxE_NS_9allocatorISA_EEFvS9_xxxxEE11target_typeEv @1074
    _ZNKSt3__110__function6__funcIZN11LLMEmbedder21get_learned_conditionEP12ggml_contextiRK17ConditionerParamsEUlP11ggml_tensorxxxxE_NS_9allocatorISA_EEFvS9_xxxxEE6targetERKSt9type_info @1075
    _ZNKSt3__110__function6__funcIZN11LLMEmbedder21get_learned_conditionEP12ggml_contextiRK17ConditionerParamsEUlP11ggml_tensorxxxxE_NS_9allocatorISA_EEFvS9_xxxxEE7__cloneEPNS0_6__baseISD_EE @1076
    _ZNKSt3__110__function6__funcIZN11LLMEmbedder21get_learned_conditionEP12ggml_contextiRK17ConditionerParamsEUlP11ggml_tensorxxxxE_NS_9allocatorISA_EEFvS9_xxxxEE7__cloneEv @1077
    _ZNKSt3__110__function6__funcIZN11MMDiTRunner7computeEiP11ggml_tensorS4_S4_S4_PS4_P12ggml_contextNS_6vectorIiNS_9allocatorIiEEEEEUlvE_NS9_ISC_EEFP11ggml_cgraphvEE11target_typeEv @1078
    _ZNKSt3__110__function6__funcIZN11MMDiTRunner7computeEiP11ggml_tensorS4_S4_S4_PS4_P12ggml_contextNS_6vectorIiNS_9allocatorIiEEEEEUlvE_NS9_ISC_EEFP11ggml_cgraphvEE6targetERKSt9type_info @1079
    _ZNKSt3__110__function6__funcIZN11MMDiTRunner7computeEiP11ggml_tensorS4_S4_S4_PS4_P12ggml_contextNS_6vectorIiNS_9allocatorIiEEEEEUlvE_NS9_ISC_EEFP11ggml_cgraphvEE7__cloneEPNS0_6__baseISG_EE @1080
    _ZNKSt3__110__function6__funcIZN11MMDiTRunner7computeEiP11ggml_tensorS4_S4_S4_PS4_P12ggml_contextNS_6vectorIiNS_9allocatorIiEEEEEUlvE_NS9_ISC_EEFP11ggml_cgraphvEE7__cloneEv @1081
    _ZNKSt3__110__function6__funcIZN12UpscalerGGML7upscaleE10sd_image_tjEUlP11ggml_tensorS5_bE_NS_9allocatorIS6_EEFvS5_S5_bEE11target_typeEv @1082
    _ZNKSt3__110__function6__funcIZN12UpscalerGGML7upscaleE10sd_image_tjEUlP11ggml_tensorS5_bE_NS_9allocatorIS6_EEFvS5_S5_bEE6targetERKSt9type_info @1083
    _ZNKSt3__110__function6__funcIZN12UpscalerGGML7upscaleE10sd_image_tjEUlP11ggml_tensorS5_bE_NS_9allocatorIS6_EEFvS5_S5_bEE7__cloneEPNS0_6__baseIS9_EE @1084
    _ZNKSt3__110__function6__funcIZN12UpscalerGGML7upscaleE10sd_image_tjEUlP11ggml_tensorS5_bE_NS_9allocatorIS6_EEFvS5_S5_bEE7__cloneEv @1085
    _ZNKSt3__110__function6__funcIZN13AutoEncoderKL7computeEiP11ggml_tensorbPS4_P12ggml_contextEUlvE_NS_9allocatorIS8_EEFP11ggml_cgraphvEE11target_typeEv @1086
    _ZNKSt3__110__function6__funcIZN13AutoEncoderKL7computeEiP11ggml_tensorbPS4_P12ggml_contextEUlvE_NS_9allocatorIS8_EEFP11ggml_cgraphvEE6targetERKSt9type_info @1087
    _ZNKSt3__110__function6__funcIZN13AutoEncoderKL7computeEiP11ggml_tensorbPS4_P12ggml_contextEUlvE_NS_9allocatorIS8_EEFP11ggml_cgraphvEE7__cloneEPNS0_6__baseISD_EE @1088
    _ZNKSt3__110__function6__funcIZN13AutoEncoderKL7computeEiP11ggml_tensorbPS4_P12ggml_contextEUlvE_NS_9allocatorIS8_EEFP11ggml_cgraphvEE7__cloneEv @1089
    _ZNKSt3__110__function6__funcIZN15SD3CLIPEmbedder8tokenizeENS_12basic_stringIcNS_11char_traitsIcEENS_9allocatorIcEEEEybEUlRS8_RNS_6vectorIiNS6_IiEEEEE_NS6_ISE_EEFbS9_SD_EE11target_typeEv @1090
    _ZNKSt3__110__function6__funcIZN15SD3CLIPEmbedder8tokenizeENS_12basic_stringIcNS_11char_traitsIcEENS_9allocatorIcEEEEybEUlRS8_RNS_6vectorIiNS6_IiEEEEE_NS6_ISE_EEFbS9_SD_EE6targetERKSt9type_info @1091
    _ZNKSt3__110__function6__funcIZN15SD3CLIPEmbedder8tokenizeENS_12basic_stringIcNS_11char_traitsIcEENS_9allocatorIcEEEEybEUlRS8_RNS_6vectorIiNS6_IiEEEEE_NS6_ISE_EEFbS9_SD_EE7__cloneEPNS0_6__baseISG_EE @1092
    _ZNKSt3__110__function6__funcIZN15SD3CLIPEmbedder8tokenizeENS_12basic_stringIcNS_11char_traitsIcEENS_9allocatorIcEEEEybEUlRS8_RNS_6vectorIiNS6_IiEEEEE_NS6_ISE_EEFbS9_SD_EE7__cloneEv @1093
    _ZNKSt3__110__function6__funcIZN15UNetModelRunner7computeEiP11ggml_tensorS4_S4_S4_S4_iNS_6vectorIS4_NS_9allocatorIS4_EEEEfPS4_P12ggml_contextEUlvE_NS6_ISC_EEFP11ggml_cgraphvEE11target_typeEv @1094
    _ZNKSt3__110__function6__funcIZN15UNetModelRunner7computeEiP11ggml_tensorS4_S4_S4_S4_iNS_6vectorIS4_NS_9allocatorIS4_EEEEfPS4_P12ggml_contextEUlvE_NS6_ISC_EEFP11ggml_cgraphvEE6targetERKSt9type_info @1095
    _ZNKSt3__110__function6__funcIZN15UNetModelRunner7computeEiP11ggml_tensorS4_S4_S4_S4_iNS_6vectorIS4_NS_9allocatorIS4_EEEEfPS4_P12ggml_contextEUlvE_NS6_ISC_EEFP11ggml_cgraphvEE7__cloneEPNS0_6__baseISG_EE @1096
    _ZNKSt3__110__function6__funcIZN15UNetModelRunner7computeEiP11ggml_tensorS4_S4_S4_S4_iNS_6vectorIS4_NS_9allocatorIS4_EEEEfPS4_P12ggml_contextEUlvE_NS6_ISC_EEFP11ggml_cgraphvEE7__cloneEv @1097
    _ZNKSt3__110__function6__funcIZN16FluxCLIPEmbedder8tokenizeENS_12basic_stringIcNS_11char_traitsIcEENS_9allocatorIcEEEEybEUlRS8_RNS_6vectorIiNS6_IiEEEEE_NS6_ISE_EEFbS9_SD_EE11target_typeEv @1098
    _ZNKSt3__110__function6__funcIZN16FluxCLIPEmbedder8tokenizeENS_12basic_stringIcNS_11char_traitsIcEENS_9allocatorIcEEEEybEUlRS8_RNS_6vectorIiNS6_IiEEEEE_NS6_ISE_EEFbS9_SD_EE6targetERKSt9type_info @1099
    _ZNKSt3__110__function6__funcIZN16FluxCLIPEmbedder8tokenizeENS_12basic_stringIcNS_11char_traitsIcEENS_9allocatorIcEEEEybEUlRS8_RNS_6vectorIiNS6_IiEEEEE_NS6_ISE_EEFbS9_SD_EE7__cloneEPNS0_6__baseISG_EE @1100
    _ZNKSt3__110__function6__funcIZN16FluxCLIPEmbedder8tokenizeENS_12basic_stringIcNS_11char_traitsIcEENS_9allocatorIcEEEEybEUlRS8_RNS_6vectorIiNS6_IiEEEEE_NS6_ISE_EEFbS9_SD_EE7__cloneEv @1101
    _ZNKSt3__110__function6__funcIZN19CLIPTextModelRunner7computeEiP11ggml_tensoriPvybiPS4_P12ggml_contextEUlvE_NS_9allocatorIS9_EEFP11ggml_cgraphvEE11target_typeEv @1102
    _ZNKSt3__110__function6__funcIZN19CLIPTextModelRunner7computeEiP11ggml_tensoriPvybiPS4_P12ggml_contextEUlvE_NS_9allocatorIS9_EEFP11ggml_cgraphvEE6targetERKSt9type_info @1103
    _ZNKSt3__110__function6__funcIZN19CLIPTextModelRunner7computeEiP11ggml_tensoriPvybiPS4_P12ggml_contextEUlvE_NS_9allocatorIS9_EEFP11ggml_cgraphvEE7__cloneEPNS0_6__baseISE_EE @1104
    _ZNKSt3__110__function6__funcIZN19CLIPTextModelRunner7computeEiP11ggml_tensoriPvybiPS4_P12ggml_contextEUlvE_NS_9allocatorIS9_EEFP11ggml_cgraphvEE7__cloneEv @1105
    _ZNKSt3__110__function6__funcIZN19PhotoMakerIDEncoder7computeEiP11ggml_tensorS4_S4_RNS_6vectorIbNS_9allocatorIbEEEEPS4_P12ggml_contextEUlvE_NS6_ISD_EEFP11ggml_cgraphvEE11target_typeEv @1106
    _ZNKSt3__110__function6__funcIZN19PhotoMakerIDEncoder7computeEiP11ggml_tensorS4_S4_RNS_6vectorIbNS_9allocatorIbEEEEPS4_P12ggml_contextEUlvE_NS6_ISD_EEFP11ggml_cgraphvEE6targetERKSt9type_info @1107
    _ZNKSt3__110__function6__funcIZN19PhotoMakerIDEncoder7computeEiP11ggml_tensorS4_S4_RNS_6vectorIbNS_9allocatorIbEEEEPS4_P12ggml_contextEUlvE_NS6_ISD_EEFP11ggml_cgraphvEE7__cloneEPNS0_6__baseISH_EE @1108
    _ZNKSt3__110__function6__funcIZN19PhotoMakerIDEncoder7computeEiP11ggml_tensorS4_S4_RNS_6vectorIbNS_9allocatorIbEEEEPS4_P12ggml_contextEUlvE_NS6_ISD_EEFP11ggml_cgraphvEE7__cloneEv @1109
    _ZNKSt3__110__function6__funcIZN19StableDiffusionGGML10vae_encodeEP12ggml_contextP11ggml_tensorbEUlS6_S6_bE0_NS_9allocatorIS7_EEFvS6_S6_bEE11target_typeEv @1110
    _ZNKSt3__110__function6__funcIZN19StableDiffusionGGML10vae_encodeEP12ggml_contextP11ggml_tensorbEUlS6_S6_bE0_NS_9allocatorIS7_EEFvS6_S6_bEE6targetERKSt9type_info @1111
    _ZNKSt3__110__function6__funcIZN19StableDiffusionGGML10vae_encodeEP12ggml_contextP11ggml_tensorbEUlS6_S6_bE0_NS_9allocatorIS7_EEFvS6_S6_bEE7__cloneEPNS0_6__baseISA_EE @1112
    _ZNKSt3__110__function6__funcIZN19StableDiffusionGGML10vae_encodeEP12ggml_contextP11ggml_tensorbEUlS6_S6_bE0_NS_9allocatorIS7_EEFvS6_S6_bEE7__cloneEv @1113
    _ZNKSt3__110__function6__funcIZN19StableDiffusionGGML10vae_encodeEP12ggml_contextP11ggml_tensorbEUlS6_S6_bE_NS_9allocatorIS7_EEFvS6_S6_bEE11target_typeEv @1114
    _ZNKSt3__110__function6__funcIZN19StableDiffusionGGML10vae_encodeEP12ggml_contextP11ggml_tensorbEUlS6_S6_bE_NS_9allocatorIS7_EEFvS6_S6_bEE6targetERKSt9type_info @1115
    _ZNKSt3__110__function6__funcIZN19StableDiffusionGGML10vae_encodeEP12ggml_contextP11ggml_tensorbEUlS6_S6_bE_NS_9allocatorIS7_EEFvS6_S6_bEE7__cloneEPNS0_6__baseISA_EE @1116
    _ZNKSt3__110__function6__funcIZN19StableDiffusionGGML10vae_encodeEP12ggml_contextP11ggml_tensorbEUlS6_S6_bE_NS_9allocatorIS7_EEFvS6_S6_bEE7__cloneEv @1117
    _ZNKSt3__110__function6__funcIZN19StableDiffusionGGML13preview_imageEP12ggml_contextiP11ggml_tensor9SDVersion9preview_tS6_NS_8functionIFviiP10sd_image_tbPvEEESC_bEUlS6_S6_bE0_NS_9allocatorISF_EEFvS6_S6_bEE11target_typeEv @1118
    _ZNKSt3__110__function6__funcIZN19StableDiffusionGGML13preview_imageEP12ggml_contextiP11ggml_tensor9SDVersion9preview_tS6_NS_8functionIFviiP10sd_image_tbPvEEESC_bEUlS6_S6_bE0_NS_9allocatorISF_EEFvS6_S6_bEE6targetERKSt9type_info @1119
    _ZNKSt3__110__function6__funcIZN19StableDiffusionGGML13preview_imageEP12ggml_contextiP11ggml_tensor9SDVersion9preview_tS6_NS_8functionIFviiP10sd_image_tbPvEEESC_bEUlS6_S6_bE0_NS_9allocatorISF_EEFvS6_S6_bEE7__cloneEPNS0_6__baseISI_EE @1120
    _ZNKSt3__110__function6__funcIZN19StableDiffusionGGML13preview_imageEP12ggml_contextiP11ggml_tensor9SDVersion9preview_tS6_NS_8functionIFviiP10sd_image_tbPvEEESC_bEUlS6_S6_bE0_NS_9allocatorISF_EEFvS6_S6_bEE7__cloneEv @1121
    _ZNKSt3__110__function6__funcIZN19StableDiffusionGGML13preview_imageEP12ggml_contextiP11ggml_tensor9SDVersion9preview_tS6_NS_8functionIFviiP10sd_image_tbPvEEESC_bEUlS6_S6_bE_NS_9allocatorISF_EEFvS6_S6_bEE11target_typeEv @1122
    _ZNKSt3__110__function6__funcIZN19StableDiffusionGGML13preview_imageEP12ggml_contextiP11ggml_tensor9SDVersion9preview_tS6_NS_8functionIFviiP10sd_image_tbPvEEESC_bEUlS6_S6_bE_NS_9allocatorISF_EEFvS6_S6_bEE6targetERKSt9type_info @1123
    _ZNKSt3__110__function6__funcIZN19StableDiffusionGGML13preview_imageEP12ggml_contextiP11ggml_tensor9SDVersion9preview_tS6_NS_8functionIFviiP10sd_image_tbPvEEESC_bEUlS6_S6_bE_NS_9allocatorISF_EEFvS6_S6_bEE7__cloneEPNS0_6__baseISI_EE @1124
    _ZNKSt3__110__function6__funcIZN19StableDiffusionGGML13preview_imageEP12ggml_contextiP11ggml_tensor9SDVersion9preview_tS6_NS_8functionIFviiP10sd_image_tbPvEEESC_bEUlS6_S6_bE_NS_9allocatorISF_EEFvS6_S6_bEE7__cloneEv @1125
    _ZNKSt3__110__function6__funcIZN19StableDiffusionGGML17get_pmid_conditonEP12ggml_context14sd_pm_params_tR17ConditionerParamsEUlP11ggml_tensorxxxxE_NS_9allocatorISA_EEFvS9_xxxxEE11target_typeEv @1126
    _ZNKSt3__110__function6__funcIZN19StableDiffusionGGML17get_pmid_conditonEP12ggml_context14sd_pm_params_tR17ConditionerParamsEUlP11ggml_tensorxxxxE_NS_9allocatorISA_EEFvS9_xxxxEE6targetERKSt9type_info @1127
    _ZNKSt3__110__function6__funcIZN19StableDiffusionGGML17get_pmid_conditonEP12ggml_context14sd_pm_params_tR17ConditionerParamsEUlP11ggml_tensorxxxxE_NS_9allocatorISA_EEFvS9_xxxxEE7__cloneEPNS0_6__baseISD_EE @1128
    _ZNKSt3__110__function6__funcIZN19StableDiffusionGGML17get_pmid_conditonEP12ggml_context14sd_pm_params_tR17ConditionerParamsEUlP11ggml_tensorxxxxE_NS_9allocatorISA_EEFvS9_xxxxEE7__cloneEv @1129
    _ZNKSt3__110__function6__funcIZN19StableDiffusionGGML17process_latent_inEP11ggml_tensorEUlS4_xxxxE_NS_9allocatorIS5_EEFvS4_xxxxEE11target_typeEv @1130
    _ZNKSt3__110__function6__funcIZN19StableDiffusionGGML17process_latent_inEP11ggml_tensorEUlS4_xxxxE_NS_9allocatorIS5_EEFvS4_xxxxEE6targetERKSt9type_info @1131
    _ZNKSt3__110__function6__funcIZN19StableDiffusionGGML17process_latent_inEP11ggml_tensorEUlS4_xxxxE_NS_9allocatorIS5_EEFvS4_xxxxEE7__cloneEPNS0_6__baseIS8_EE @1132
    _ZNKSt3__110__function6__funcIZN19StableDiffusionGGML17process_latent_inEP11ggml_tensorEUlS4_xxxxE_NS_9allocatorIS5_EEFvS4_xxxxEE7__cloneEv @1133
    _ZNKSt3__110__function6__funcIZN19StableDiffusionGGML18decode_first_stageEP12ggml_contextP11ggml_tensorbEUlS6_S6_bE0_NS_9allocatorIS7_EEFvS6_S6_bEE11target_typeEv @1134
    _ZNKSt3__110__function6__funcIZN19StableDiffusionGGML18decode_first_stageEP12ggml_contextP11ggml_tensorbEUlS6_S6_bE0_NS_9allocatorIS7_EEFvS6_S6_bEE6targetERKSt9type_info @1135
    _ZNKSt3__110__function6__funcIZN19StableDiffusionGGML18decode_first_stageEP12ggml_contextP11ggml_tensorbEUlS6_S6_bE0_NS_9allocatorIS7_EEFvS6_S6_bEE7__cloneEPNS0_6__baseISA_EE @1136
    _ZNKSt3__110__function6__funcIZN19StableDiffusionGGML18decode_first_stageEP12ggml_contextP11ggml_tensorbEUlS6_S6_bE0_NS_9allocatorIS7_EEFvS6_S6_bEE7__cloneEv @1137
    _ZNKSt3__110__function6__funcIZN19StableDiffusionGGML18decode_first_stageEP12ggml_contextP11ggml_tensorbEUlS6_S6_bE_NS_9allocatorIS7_EEFvS6_S6_bEE11target_typeEv @1138
    _ZNKSt3__110__function6__funcIZN19StableDiffusionGGML18decode_first_stageEP12ggml_contextP11ggml_tensorbEUlS6_S6_bE_NS_9allocatorIS7_EEFvS6_S6_bEE6targetERKSt9type_info @1139
    _ZNKSt3__110__function6__funcIZN19StableDiffusionGGML18decode_first_stageEP12ggml_contextP11ggml_tensorbEUlS6_S6_bE_NS_9allocatorIS7_EEFvS6_S6_bEE7__cloneEPNS0_6__baseISA_EE @1140
    _ZNKSt3__110__function6__funcIZN19StableDiffusionGGML18decode_first_stageEP12ggml_contextP11ggml_tensorbEUlS6_S6_bE_NS_9allocatorIS7_EEFvS6_S6_bEE7__cloneEv @1141
    _ZNKSt3__110__function6__funcIZN19StableDiffusionGGML18process_latent_outEP11ggml_tensorEUlS4_xxxxE_NS_9allocatorIS5_EEFvS4_xxxxEE11target_typeEv @1142
    _ZNKSt3__110__function6__funcIZN19StableDiffusionGGML18process_latent_outEP11ggml_tensorEUlS4_xxxxE_NS_9allocatorIS5_EEFvS4_xxxxEE6targetERKSt9type_info @1143
    _ZNKSt3__110__function6__funcIZN19StableDiffusionGGML18process_latent_outEP11ggml_tensorEUlS4_xxxxE_NS_9allocatorIS5_EEFvS4_xxxxEE7__cloneEPNS0_6__baseIS8_EE @1144
    _ZNKSt3__110__function6__funcIZN19StableDiffusionGGML18process_latent_outEP11ggml_tensorEUlS4_xxxxE_NS_9allocatorIS5_EEFvS4_xxxxEE7__cloneEv @1145
    _ZNKSt3__110__function6__funcIZN19StableDiffusionGGML22apply_loras_at_runtimeERKNS_13unordered_mapINS_12basic_stringIcNS_11char_traitsIcEENS_9allocatorIcEEEEfNS_4hashIS9_EENS_8equal_toIS9_EENS7_INS_4pairIKS9_fEEEEEEEUlRSF_E0_NS7_ISM_EEF @1146
    _ZNKSt3__110__function6__funcIZN19StableDiffusionGGML22apply_loras_at_runtimeERKNS_13unordered_mapINS_12basic_stringIcNS_11char_traitsIcEENS_9allocatorIcEEEEfNS_4hashIS9_EENS_8equal_toIS9_EENS7_INS_4pairIKS9_fEEEEEEEUlRSF_E0_NS7_ISM_EEF @1147
    _ZNKSt3__110__function6__funcIZN19StableDiffusionGGML22apply_loras_at_runtimeERKNS_13unordered_mapINS_12basic_stringIcNS_11char_traitsIcEENS_9allocatorIcEEEEfNS_4hashIS9_EENS_8equal_toIS9_EENS7_INS_4pairIKS9_fEEEEEEEUlRSF_E0_NS7_ISM_EEF @1148
    _ZNKSt3__110__function6__funcIZN19StableDiffusionGGML22apply_loras_at_runtimeERKNS_13unordered_mapINS_12basic_stringIcNS_11char_traitsIcEENS_9allocatorIcEEEEfNS_4hashIS9_EENS_8equal_toIS9_EENS7_INS_4pairIKS9_fEEEEEEEUlRSF_E0_NS7_ISM_EEF @1149
    _ZNKSt3__110__function6__funcIZN19StableDiffusionGGML22apply_loras_at_runtimeERKNS_13unordered_mapINS_12basic_stringIcNS_11char_traitsIcEENS_9allocatorIcEEEEfNS_4hashIS9_EENS_8equal_toIS9_EENS7_INS_4pairIKS9_fEEEEEEEUlRSF_E1_NS7_ISM_EEF @1150
    _ZNKSt3__110__function6__funcIZN19StableDiffusionGGML22apply_loras_at_runtimeERKNS_13unordered_mapINS_12basic_stringIcNS_11char_traitsIcEENS_9allocatorIcEEEEfNS_4hashIS9_EENS_8equal_toIS9_EENS7_INS_4pairIKS9_fEEEEEEEUlRSF_E1_NS7_ISM_EEF @1151
    _ZNKSt3__110__function6__funcIZN19StableDiffusionGGML22apply_loras_at_runtimeERKNS_13unordered_mapINS_12basic_stringIcNS_11char_traitsIcEENS_9allocatorIcEEEEfNS_4hashIS9_EENS_8equal_toIS9_EENS7_INS_4pairIKS9_fEEEEEEEUlRSF_E1_NS7_ISM_EEF @1152
    _ZNKSt3__110__function6__funcIZN19StableDiffusionGGML22apply_loras_at_runtimeERKNS_13unordered_mapINS_12basic_stringIcNS_11char_traitsIcEENS_9allocatorIcEEEEfNS_4hashIS9_EENS_8equal_toIS9_EENS7_INS_4pairIKS9_fEEEEEEEUlRSF_E1_NS7_ISM_EEF @1153
    _ZNKSt3__110__function6__funcIZN19StableDiffusionGGML22apply_loras_at_runtimeERKNS_13unordered_mapINS_12basic_stringIcNS_11char_traitsIcEENS_9allocatorIcEEEEfNS_4hashIS9_EENS_8equal_toIS9_EENS7_INS_4pairIKS9_fEEEEEEEUlRSF_E_NS7_ISM_EEFb @1154
    _ZNKSt3__110__function6__funcIZN19StableDiffusionGGML22apply_loras_at_runtimeERKNS_13unordered_mapINS_12basic_stringIcNS_11char_traitsIcEENS_9allocatorIcEEEEfNS_4hashIS9_EENS_8equal_toIS9_EENS7_INS_4pairIKS9_fEEEEEEEUlRSF_E_NS7_ISM_EEFb @1155
    _ZNKSt3__110__function6__funcIZN19StableDiffusionGGML22apply_loras_at_runtimeERKNS_13unordered_mapINS_12basic_stringIcNS_11char_traitsIcEENS_9allocatorIcEEEEfNS_4hashIS9_EENS_8equal_toIS9_EENS7_INS_4pairIKS9_fEEEEEEEUlRSF_E_NS7_ISM_EEFb @1156
    _ZNKSt3__110__function6__funcIZN19StableDiffusionGGML22apply_loras_at_runtimeERKNS_13unordered_mapINS_12basic_stringIcNS_11char_traitsIcEENS_9allocatorIcEEEEfNS_4hashIS9_EENS_8equal_toIS9_EENS7_INS_4pairIKS9_fEEEEEEEUlRSF_E_NS7_ISM_EEFb @1157
    _ZNKSt3__110__function6__funcIZN19StableDiffusionGGML4initEPK15sd_ctx_params_tEUlRKNS_12basic_stringIcNS_11char_traitsIcEENS_9allocatorIcEEEEE_NS9_ISE_EEFbSD_EE11target_typeEv @1158
    _ZNKSt3__110__function6__funcIZN19StableDiffusionGGML4initEPK15sd_ctx_params_tEUlRKNS_12basic_stringIcNS_11char_traitsIcEENS_9allocatorIcEEEEE_NS9_ISE_EEFbSD_EE6targetERKSt9type_info @1159
    _ZNKSt3__110__function6__funcIZN19StableDiffusionGGML4initEPK15sd_ctx_params_tEUlRKNS_12basic_stringIcNS_11char_traitsIcEENS_9allocatorIcEEEEE_NS9_ISE_EEFbSD_EE7__cloneEPNS0_6__baseISG_EE @1160
    _ZNKSt3__110__function6__funcIZN19StableDiffusionGGML4initEPK15sd_ctx_params_tEUlRKNS_12basic_stringIcNS_11char_traitsIcEENS_9allocatorIcEEEEE_NS9_ISE_EEFbSD_EE7__cloneEv @1161
    _ZNKSt3__110__function6__funcIZN19StableDiffusionGGML6sampleEP12ggml_contextNS_10shared_ptrI14DiffusionModelEEbP11ggml_tensorS9_11SDConditionSA_SA_S9_f20sd_guidance_params_tfi15sample_method_tRKNS_6vectorIfNS_9allocatorIfEEEEiSA_NSD_IS9 @1162
    _ZNKSt3__110__function6__funcIZN19StableDiffusionGGML6sampleEP12ggml_contextNS_10shared_ptrI14DiffusionModelEEbP11ggml_tensorS9_11SDConditionSA_SA_S9_f20sd_guidance_params_tfi15sample_method_tRKNS_6vectorIfNS_9allocatorIfEEEEiSA_NSD_IS9 @1163
    _ZNKSt3__110__function6__funcIZN19StableDiffusionGGML6sampleEP12ggml_contextNS_10shared_ptrI14DiffusionModelEEbP11ggml_tensorS9_11SDConditionSA_SA_S9_f20sd_guidance_params_tfi15sample_method_tRKNS_6vectorIfNS_9allocatorIfEEEEiSA_NSD_IS9 @1164
    _ZNKSt3__110__function6__funcIZN19StableDiffusionGGML6sampleEP12ggml_contextNS_10shared_ptrI14DiffusionModelEEbP11ggml_tensorS9_11SDConditionSA_SA_S9_f20sd_guidance_params_tfi15sample_method_tRKNS_6vectorIfNS_9allocatorIfEEEEiSA_NSD_IS9 @1165
    _ZNKSt3__110__function6__funcIZN20TinyImageAutoEncoder7computeEiP11ggml_tensorbPS4_P12ggml_contextEUlvE_NS_9allocatorIS8_EEFP11ggml_cgraphvEE11target_typeEv @1166
    _ZNKSt3__110__function6__funcIZN20TinyImageAutoEncoder7computeEiP11ggml_tensorbPS4_P12ggml_contextEUlvE_NS_9allocatorIS8_EEFP11ggml_cgraphvEE6targetERKSt9type_info @1167
    _ZNKSt3__110__function6__funcIZN20TinyImageAutoEncoder7computeEiP11ggml_tensorbPS4_P12ggml_contextEUlvE_NS_9allocatorIS8_EEFP11ggml_cgraphvEE7__cloneEPNS0_6__baseISD_EE @1168
    _ZNKSt3__110__function6__funcIZN20TinyImageAutoEncoder7computeEiP11ggml_tensorbPS4_P12ggml_contextEUlvE_NS_9allocatorIS8_EEFP11ggml_cgraphvEE7__cloneEv @1169
    _ZNKSt3__110__function6__funcIZN20TinyVideoAutoEncoder7computeEiP11ggml_tensorbPS4_P12ggml_contextEUlvE_NS_9allocatorIS8_EEFP11ggml_cgraphvEE11target_typeEv @1170
    _ZNKSt3__110__function6__funcIZN20TinyVideoAutoEncoder7computeEiP11ggml_tensorbPS4_P12ggml_contextEUlvE_NS_9allocatorIS8_EEFP11ggml_cgraphvEE6targetERKSt9type_info @1171
    _ZNKSt3__110__function6__funcIZN20TinyVideoAutoEncoder7computeEiP11ggml_tensorbPS4_P12ggml_contextEUlvE_NS_9allocatorIS8_EEFP11ggml_cgraphvEE7__cloneEPNS0_6__baseISD_EE @1172
    _ZNKSt3__110__function6__funcIZN20TinyVideoAutoEncoder7computeEiP11ggml_tensorbPS4_P12ggml_contextEUlvE_NS_9allocatorIS8_EEFP11ggml_cgraphvEE7__cloneEv @1173
    _ZNKSt3__110__function6__funcIZN24FrozenCLIPVisionEmbedder7computeEiP11ggml_tensorbiPS4_P12ggml_contextEUlvE_NS_9allocatorIS8_EEFP11ggml_cgraphvEE11target_typeEv @1174
    _ZNKSt3__110__function6__funcIZN24FrozenCLIPVisionEmbedder7computeEiP11ggml_tensorbiPS4_P12ggml_contextEUlvE_NS_9allocatorIS8_EEFP11ggml_cgraphvEE6targetERKSt9type_info @1175
    _ZNKSt3__110__function6__funcIZN24FrozenCLIPVisionEmbedder7computeEiP11ggml_tensorbiPS4_P12ggml_contextEUlvE_NS_9allocatorIS8_EEFP11ggml_cgraphvEE7__cloneEPNS0_6__baseISD_EE @1176
    _ZNKSt3__110__function6__funcIZN24FrozenCLIPVisionEmbedder7computeEiP11ggml_tensorbiPS4_P12ggml_contextEUlvE_NS_9allocatorIS8_EEFP11ggml_cgraphvEE7__cloneEv @1177
    _ZNKSt3__110__function6__funcIZN33FrozenCLIPEmbedderWithCustomWords14load_embeddingENS_12basic_stringIcNS_11char_traitsIcEENS_9allocatorIcEEEES8_RNS_6vectorIiNS6_IiEEEEEUlRK13TensorStoragePP11ggml_tensorE_NS6_ISJ_EEFbSF_SI_EE11target_ty @1178
    _ZNKSt3__110__function6__funcIZN33FrozenCLIPEmbedderWithCustomWords14load_embeddingENS_12basic_stringIcNS_11char_traitsIcEENS_9allocatorIcEEEES8_RNS_6vectorIiNS6_IiEEEEEUlRK13TensorStoragePP11ggml_tensorE_NS6_ISJ_EEFbSF_SI_EE6targetERKS @1179
    _ZNKSt3__110__function6__funcIZN33FrozenCLIPEmbedderWithCustomWords14load_embeddingENS_12basic_stringIcNS_11char_traitsIcEENS_9allocatorIcEEEES8_RNS_6vectorIiNS6_IiEEEEEUlRK13TensorStoragePP11ggml_tensorE_NS6_ISJ_EEFbSF_SI_EE7__cloneEPN @1180
    _ZNKSt3__110__function6__funcIZN33FrozenCLIPEmbedderWithCustomWords14load_embeddingENS_12basic_stringIcNS_11char_traitsIcEENS_9allocatorIcEEEES8_RNS_6vectorIiNS6_IiEEEEEUlRK13TensorStoragePP11ggml_tensorE_NS6_ISJ_EEFbSF_SI_EE7__cloneEv @1181
    _ZNKSt3__110__function6__funcIZN33FrozenCLIPEmbedderWithCustomWords19convert_token_to_idENS_12basic_stringIcNS_11char_traitsIcEENS_9allocatorIcEEEEEUlRS8_RNS_6vectorIiNS6_IiEEEEE_NS6_ISE_EEFbS9_SD_EE11target_typeEv @1182
    _ZNKSt3__110__function6__funcIZN33FrozenCLIPEmbedderWithCustomWords19convert_token_to_idENS_12basic_stringIcNS_11char_traitsIcEENS_9allocatorIcEEEEEUlRS8_RNS_6vectorIiNS6_IiEEEEE_NS6_ISE_EEFbS9_SD_EE6targetERKSt9type_info @1183
    _ZNKSt3__110__function6__funcIZN33FrozenCLIPEmbedderWithCustomWords19convert_token_to_idENS_12basic_stringIcNS_11char_traitsIcEENS_9allocatorIcEEEEEUlRS8_RNS_6vectorIiNS6_IiEEEEE_NS6_ISE_EEFbS9_SD_EE7__cloneEPNS0_6__baseISG_EE @1184
    _ZNKSt3__110__function6__funcIZN33FrozenCLIPEmbedderWithCustomWords19convert_token_to_idENS_12basic_stringIcNS_11char_traitsIcEENS_9allocatorIcEEEEEUlRS8_RNS_6vectorIiNS6_IiEEEEE_NS6_ISE_EEFbS9_SD_EE7__cloneEv @1185
    _ZNKSt3__110__function6__funcIZN33FrozenCLIPEmbedderWithCustomWords27tokenize_with_trigger_tokenENS_12basic_stringIcNS_11char_traitsIcEENS_9allocatorIcEEEEiiybEUlRS8_RNS_6vectorIiNS6_IiEEEEE_NS6_ISE_EEFbS9_SD_EE11target_typeEv @1186
    _ZNKSt3__110__function6__funcIZN33FrozenCLIPEmbedderWithCustomWords27tokenize_with_trigger_tokenENS_12basic_stringIcNS_11char_traitsIcEENS_9allocatorIcEEEEiiybEUlRS8_RNS_6vectorIiNS6_IiEEEEE_NS6_ISE_EEFbS9_SD_EE6targetERKSt9type_info @1187
    _ZNKSt3__110__function6__funcIZN33FrozenCLIPEmbedderWithCustomWords27tokenize_with_trigger_tokenENS_12basic_stringIcNS_11char_traitsIcEENS_9allocatorIcEEEEiiybEUlRS8_RNS_6vectorIiNS6_IiEEEEE_NS6_ISE_EEFbS9_SD_EE7__cloneEPNS0_6__baseISG_ @1188
    _ZNKSt3__110__function6__funcIZN33FrozenCLIPEmbedderWithCustomWords27tokenize_with_trigger_tokenENS_12basic_stringIcNS_11char_traitsIcEENS_9allocatorIcEEEEiiybEUlRS8_RNS_6vectorIiNS6_IiEEEEE_NS6_ISE_EEFbS9_SD_EE7__cloneEv @1189
    _ZNKSt3__110__function6__funcIZN33FrozenCLIPEmbedderWithCustomWords8tokenizeENS_12basic_stringIcNS_11char_traitsIcEENS_9allocatorIcEEEEybEUlRS8_RNS_6vectorIiNS6_IiEEEEE_NS6_ISE_EEFbS9_SD_EE11target_typeEv @1190
    _ZNKSt3__110__function6__funcIZN33FrozenCLIPEmbedderWithCustomWords8tokenizeENS_12basic_stringIcNS_11char_traitsIcEENS_9allocatorIcEEEEybEUlRS8_RNS_6vectorIiNS6_IiEEEEE_NS6_ISE_EEFbS9_SD_EE6targetERKSt9type_info @1191
    _ZNKSt3__110__function6__funcIZN33FrozenCLIPEmbedderWithCustomWords8tokenizeENS_12basic_stringIcNS_11char_traitsIcEENS_9allocatorIcEEEEybEUlRS8_RNS_6vectorIiNS6_IiEEEEE_NS6_ISE_EEFbS9_SD_EE7__cloneEPNS0_6__baseISG_EE @1192
    _ZNKSt3__110__function6__funcIZN33FrozenCLIPEmbedderWithCustomWords8tokenizeENS_12basic_stringIcNS_11char_traitsIcEENS_9allocatorIcEEEEybEUlRS8_RNS_6vectorIiNS6_IiEEEEE_NS6_ISE_EEFbS9_SD_EE7__cloneEv @1193
    _ZNKSt3__110__function6__funcIZN3LLM9LLMRunner12encode_imageEiP11ggml_tensorPS5_P12ggml_contextEUlvE_NS_9allocatorIS9_EEFP11ggml_cgraphvEE11target_typeEv @1194
    _ZNKSt3__110__function6__funcIZN3LLM9LLMRunner12encode_imageEiP11ggml_tensorPS5_P12ggml_contextEUlvE_NS_9allocatorIS9_EEFP11ggml_cgraphvEE6targetERKSt9type_info @1195
    _ZNKSt3__110__function6__funcIZN3LLM9LLMRunner12encode_imageEiP11ggml_tensorPS5_P12ggml_contextEUlvE_NS_9allocatorIS9_EEFP11ggml_cgraphvEE7__cloneEPNS0_6__baseISE_EE @1196
    _ZNKSt3__110__function6__funcIZN3LLM9LLMRunner12encode_imageEiP11ggml_tensorPS5_P12ggml_contextEUlvE_NS_9allocatorIS9_EEFP11ggml_cgraphvEE7__cloneEv @1197
    _ZNKSt3__110__function6__funcIZN3LLM9LLMRunner7computeEiP11ggml_tensorS5_NS_6vectorINS_4pairIiS5_EENS_9allocatorIS8_EEEENS_3setIiNS_4lessIiEENS9_IiEEEEPS5_P12ggml_contextEUlvE_NS9_ISK_EEFP11ggml_cgraphvEE11target_typeEv @1198
    _ZNKSt3__110__function6__funcIZN3LLM9LLMRunner7computeEiP11ggml_tensorS5_NS_6vectorINS_4pairIiS5_EENS_9allocatorIS8_EEEENS_3setIiNS_4lessIiEENS9_IiEEEEPS5_P12ggml_contextEUlvE_NS9_ISK_EEFP11ggml_cgraphvEE6targetERKSt9type_info @1199
    _ZNKSt3__110__function6__funcIZN3LLM9LLMRunner7computeEiP11ggml_tensorS5_NS_6vectorINS_4pairIiS5_EENS_9allocatorIS8_EEEENS_3setIiNS_4lessIiEENS9_IiEEEEPS5_P12ggml_contextEUlvE_NS9_ISK_EEFP11ggml_cgraphvEE7__cloneEPNS0_6__baseISO_EE @1200
    _ZNKSt3__110__function6__funcIZN3LLM9LLMRunner7computeEiP11ggml_tensorS5_NS_6vectorINS_4pairIiS5_EENS_9allocatorIS8_EEEENS_3setIiNS_4lessIiEENS9_IiEEEEPS5_P12ggml_contextEUlvE_NS9_ISK_EEFP11ggml_cgraphvEE7__cloneEv @1201
    _ZNKSt3__110__function6__funcIZN3WAN12WanVAERunner7computeEiP11ggml_tensorbPS5_P12ggml_contextEUlvE_NS_9allocatorIS9_EEFP11ggml_cgraphvEE11target_typeEv @1202
    _ZNKSt3__110__function6__funcIZN3WAN12WanVAERunner7computeEiP11ggml_tensorbPS5_P12ggml_contextEUlvE_NS_9allocatorIS9_EEFP11ggml_cgraphvEE6targetERKSt9type_info @1203
    _ZNKSt3__110__function6__funcIZN3WAN12WanVAERunner7computeEiP11ggml_tensorbPS5_P12ggml_contextEUlvE_NS_9allocatorIS9_EEFP11ggml_cgraphvEE7__cloneEPNS0_6__baseISE_EE @1204
    _ZNKSt3__110__function6__funcIZN3WAN12WanVAERunner7computeEiP11ggml_tensorbPS5_P12ggml_contextEUlvE_NS_9allocatorIS9_EEFP11ggml_cgraphvEE7__cloneEv @1205
    _ZNKSt3__110__function6__funcIZN3WAN9WanRunner7computeEiP11ggml_tensorS5_S5_S5_S5_S5_S5_fPS5_P12ggml_contextEUlvE_NS_9allocatorIS9_EEFP11ggml_cgraphvEE11target_typeEv @1206
    _ZNKSt3__110__function6__funcIZN3WAN9WanRunner7computeEiP11ggml_tensorS5_S5_S5_S5_S5_S5_fPS5_P12ggml_contextEUlvE_NS_9allocatorIS9_EEFP11ggml_cgraphvEE6targetERKSt9type_info @1207
    _ZNKSt3__110__function6__funcIZN3WAN9WanRunner7computeEiP11ggml_tensorS5_S5_S5_S5_S5_S5_fPS5_P12ggml_contextEUlvE_NS_9allocatorIS9_EEFP11ggml_cgraphvEE7__cloneEPNS0_6__baseISE_EE @1208
    _ZNKSt3__110__function6__funcIZN3WAN9WanRunner7computeEiP11ggml_tensorS5_S5_S5_S5_S5_S5_fPS5_P12ggml_contextEUlvE_NS_9allocatorIS9_EEFP11ggml_cgraphvEE7__cloneEv @1209
    _ZNKSt3__110__function6__funcIZN4Flux10FluxRunner7computeEiP11ggml_tensorS5_S5_S5_S5_S5_NS_6vectorIS5_NS_9allocatorIS5_EEEEbPS5_P12ggml_contextNS6_IiNS7_IiEEEEEUlvE_NS7_ISF_EEFP11ggml_cgraphvEE11target_typeEv @1210
    _ZNKSt3__110__function6__funcIZN4Flux10FluxRunner7computeEiP11ggml_tensorS5_S5_S5_S5_S5_NS_6vectorIS5_NS_9allocatorIS5_EEEEbPS5_P12ggml_contextNS6_IiNS7_IiEEEEEUlvE_NS7_ISF_EEFP11ggml_cgraphvEE6targetERKSt9type_info @1211
    _ZNKSt3__110__function6__funcIZN4Flux10FluxRunner7computeEiP11ggml_tensorS5_S5_S5_S5_S5_NS_6vectorIS5_NS_9allocatorIS5_EEEEbPS5_P12ggml_contextNS6_IiNS7_IiEEEEEUlvE_NS7_ISF_EEFP11ggml_cgraphvEE7__cloneEPNS0_6__baseISJ_EE @1212
    _ZNKSt3__110__function6__funcIZN4Flux10FluxRunner7computeEiP11ggml_tensorS5_S5_S5_S5_S5_NS_6vectorIS5_NS_9allocatorIS5_EEEEbPS5_P12ggml_contextNS6_IiNS7_IiEEEEEUlvE_NS7_ISF_EEFP11ggml_cgraphvEE7__cloneEv @1213
    _ZNKSt3__110__function6__funcIZN4Qwen15QwenImageRunner7computeEiP11ggml_tensorS5_S5_NS_6vectorIS5_NS_9allocatorIS5_EEEEbPS5_P12ggml_contextEUlvE_NS7_ISD_EEFP11ggml_cgraphvEE11target_typeEv @1214
    _ZNKSt3__110__function6__funcIZN4Qwen15QwenImageRunner7computeEiP11ggml_tensorS5_S5_NS_6vectorIS5_NS_9allocatorIS5_EEEEbPS5_P12ggml_contextEUlvE_NS7_ISD_EEFP11ggml_cgraphvEE6targetERKSt9type_info @1215
    _ZNKSt3__110__function6__funcIZN4Qwen15QwenImageRunner7computeEiP11ggml_tensorS5_S5_NS_6vectorIS5_NS_9allocatorIS5_EEEEbPS5_P12ggml_contextEUlvE_NS7_ISD_EEFP11ggml_cgraphvEE7__cloneEPNS0_6__baseISH_EE @1216
    _ZNKSt3__110__function6__funcIZN4Qwen15QwenImageRunner7computeEiP11ggml_tensorS5_S5_NS_6vectorIS5_NS_9allocatorIS5_EEEEbPS5_P12ggml_contextEUlvE_NS7_ISD_EEFP11ggml_cgraphvEE7__cloneEv @1217
    _ZNKSt3__110__function6__funcIZN6ESRGAN7computeEiP11ggml_tensorPS4_P12ggml_contextEUlvE_NS_9allocatorIS8_EEFP11ggml_cgraphvEE11target_typeEv @1218
    _ZNKSt3__110__function6__funcIZN6ESRGAN7computeEiP11ggml_tensorPS4_P12ggml_contextEUlvE_NS_9allocatorIS8_EEFP11ggml_cgraphvEE6targetERKSt9type_info @1219
    _ZNKSt3__110__function6__funcIZN6ESRGAN7computeEiP11ggml_tensorPS4_P12ggml_contextEUlvE_NS_9allocatorIS8_EEFP11ggml_cgraphvEE7__cloneEPNS0_6__baseISD_EE @1220
    _ZNKSt3__110__function6__funcIZN6ESRGAN7computeEiP11ggml_tensorPS4_P12ggml_contextEUlvE_NS_9allocatorIS8_EEFP11ggml_cgraphvEE7__cloneEv @1221
    _ZNKSt3__110__function6__funcIZN6ZImage12ZImageRunner7computeEiP11ggml_tensorS5_S5_NS_6vectorIS5_NS_9allocatorIS5_EEEEbPS5_P12ggml_contextEUlvE_NS7_ISD_EEFP11ggml_cgraphvEE11target_typeEv @1222
    _ZNKSt3__110__function6__funcIZN6ZImage12ZImageRunner7computeEiP11ggml_tensorS5_S5_NS_6vectorIS5_NS_9allocatorIS5_EEEEbPS5_P12ggml_contextEUlvE_NS7_ISD_EEFP11ggml_cgraphvEE6targetERKSt9type_info @1223
    _ZNKSt3__110__function6__funcIZN6ZImage12ZImageRunner7computeEiP11ggml_tensorS5_S5_NS_6vectorIS5_NS_9allocatorIS5_EEEEbPS5_P12ggml_contextEUlvE_NS7_ISD_EEFP11ggml_cgraphvEE7__cloneEPNS0_6__baseISH_EE @1224
    _ZNKSt3__110__function6__funcIZN6ZImage12ZImageRunner7computeEiP11ggml_tensorS5_S5_NS_6vectorIS5_NS_9allocatorIS5_EEEEbPS5_P12ggml_contextEUlvE_NS7_ISD_EEFP11ggml_cgraphvEE7__cloneEv @1225
    _ZNKSt3__110__function6__funcIZN7FakeVAE7computeEiP11ggml_tensorbPS4_P12ggml_contextEUlS4_xxxxE_NS_9allocatorIS8_EEFvS4_xxxxEE11target_typeEv @1226
    _ZNKSt3__110__function6__funcIZN7FakeVAE7computeEiP11ggml_tensorbPS4_P12ggml_contextEUlS4_xxxxE_NS_9allocatorIS8_EEFvS4_xxxxEE6targetERKSt9type_info @1227
    _ZNKSt3__110__function6__funcIZN7FakeVAE7computeEiP11ggml_tensorbPS4_P12ggml_contextEUlS4_xxxxE_NS_9allocatorIS8_EEFvS4_xxxxEE7__cloneEPNS0_6__baseISB_EE @1228
    _ZNKSt3__110__function6__funcIZN7FakeVAE7computeEiP11ggml_tensorbPS4_P12ggml_contextEUlS4_xxxxE_NS_9allocatorIS8_EEFvS4_xxxxEE7__cloneEv @1229
    _ZNKSt3__110__function6__funcIZN8T5Runner7computeEiP11ggml_tensorS4_PS4_P12ggml_contextEUlvE_NS_9allocatorIS8_EEFP11ggml_cgraphvEE11target_typeEv @1230
    _ZNKSt3__110__function6__funcIZN8T5Runner7computeEiP11ggml_tensorS4_PS4_P12ggml_contextEUlvE_NS_9allocatorIS8_EEFP11ggml_cgraphvEE6targetERKSt9type_info @1231
    _ZNKSt3__110__function6__funcIZN8T5Runner7computeEiP11ggml_tensorS4_PS4_P12ggml_contextEUlvE_NS_9allocatorIS8_EEFP11ggml_cgraphvEE7__cloneEPNS0_6__baseISD_EE @1232
    _ZNKSt3__110__function6__funcIZN8T5Runner7computeEiP11ggml_tensorS4_PS4_P12ggml_contextEUlvE_NS_9allocatorIS8_EEFP11ggml_cgraphvEE7__cloneEv @1233
    _ZNKSt3__110__function6__funcIZN9LoraModel14load_from_fileEiNS_8functionIFbRKNS_12basic_stringIcNS_11char_traitsIcEENS_9allocatorIcEEEEEEEEUlRK13TensorStoragePP11ggml_tensorE_NS7_ISK_EEFbSG_SJ_EE11target_typeEv @1234
    _ZNKSt3__110__function6__funcIZN9LoraModel14load_from_fileEiNS_8functionIFbRKNS_12basic_stringIcNS_11char_traitsIcEENS_9allocatorIcEEEEEEEEUlRK13TensorStoragePP11ggml_tensorE_NS7_ISK_EEFbSG_SJ_EE6targetERKSt9type_info @1235
    _ZNKSt3__110__function6__funcIZN9LoraModel14load_from_fileEiNS_8functionIFbRKNS_12basic_stringIcNS_11char_traitsIcEENS_9allocatorIcEEEEEEEEUlRK13TensorStoragePP11ggml_tensorE_NS7_ISK_EEFbSG_SJ_EE7__cloneEPNS0_6__baseISM_EE @1236
    _ZNKSt3__110__function6__funcIZN9LoraModel14load_from_fileEiNS_8functionIFbRKNS_12basic_stringIcNS_11char_traitsIcEENS_9allocatorIcEEEEEEEEUlRK13TensorStoragePP11ggml_tensorE_NS7_ISK_EEFbSG_SJ_EE7__cloneEv @1237
    _ZNKSt3__110__function6__funcIZN9LoraModel5applyENS_3mapINS_12basic_stringIcNS_11char_traitsIcEENS_9allocatorIcEEEEP11ggml_tensorNS_4lessIS9_EENS7_INS_4pairIKS9_SB_EEEEEE9SDVersioniEUlvE_NS7_ISK_EEFP11ggml_cgraphvEE11target_typeEv @1238
    _ZNKSt3__110__function6__funcIZN9LoraModel5applyENS_3mapINS_12basic_stringIcNS_11char_traitsIcEENS_9allocatorIcEEEEP11ggml_tensorNS_4lessIS9_EENS7_INS_4pairIKS9_SB_EEEEEE9SDVersioniEUlvE_NS7_ISK_EEFP11ggml_cgraphvEE6targetERKSt9type_inf @1239
    _ZNKSt3__110__function6__funcIZN9LoraModel5applyENS_3mapINS_12basic_stringIcNS_11char_traitsIcEENS_9allocatorIcEEEEP11ggml_tensorNS_4lessIS9_EENS7_INS_4pairIKS9_SB_EEEEEE9SDVersioniEUlvE_NS7_ISK_EEFP11ggml_cgraphvEE7__cloneEPNS0_6__base @1240
    _ZNKSt3__110__function6__funcIZN9LoraModel5applyENS_3mapINS_12basic_stringIcNS_11char_traitsIcEENS_9allocatorIcEEEEP11ggml_tensorNS_4lessIS9_EENS7_INS_4pairIKS9_SB_EEEEEE9SDVersioniEUlvE_NS7_ISK_EEFP11ggml_cgraphvEE7__cloneEv @1241
    _ZNKSt3__111__alternateIcE12__exec_splitEbRNS_7__stateIcEE @1242
    _ZNKSt3__111__alternateIcE6__execERNS_7__stateIcEE @1243
    _ZNKSt3__111__end_stateIcE6__execERNS_7__stateIcEE @1244
    _ZNKSt3__111__lookaheadIcNS_12regex_traitsIcEEE6__execERNS_7__stateIcEE @1245
    _ZNKSt3__111__match_anyIcE6__execERNS_7__stateIcEE @1246
    _ZNKSt3__111__move_implINS_17_ClassicAlgPolicyEEclB8ne200100IPN8nlohmann16json_abi_v3_11_210basic_jsonINS_3mapENS_6vectorENS_12basic_stringIcNS_11char_traitsIcEENS_9allocatorIcEEEEbxydSC_NS5_14adl_serializerENS8_IhNSC_IhEEEEEESJ_SJ_EENS @1247
    _ZNKSt3__111basic_regexIcNS_12regex_traitsIcEEE21__match_at_start_ecmaINS_9allocatorINS_9sub_matchIPKcEEEEEEbS8_S8_RNS_13match_resultsIS8_T_EENS_15regex_constants15match_flag_typeEb @1248
    _ZNKSt3__111basic_regexIcNS_12regex_traitsIcEEE27__match_at_start_posix_subsINS_9allocatorINS_9sub_matchIPKcEEEEEEbS8_S8_RNS_13match_resultsIS8_T_EENS_15regex_constants15match_flag_typeEb @1249
    _ZNKSt3__111basic_regexIcNS_12regex_traitsIcEEE29__match_at_start_posix_nosubsINS_9allocatorINS_9sub_matchIPKcEEEEEEbS8_S8_RNS_13match_resultsIS8_T_EENS_15regex_constants15match_flag_typeEb @1250
    _ZNKSt3__111basic_regexIcNS_12regex_traitsIcEEE8__searchINS_9allocatorINS_9sub_matchIPKcEEEEEEbS8_S8_RNS_13match_resultsIS8_T_EENS_15regex_constants15match_flag_typeE @1251
    _ZNKSt3__112__hash_tableINS_17__hash_value_typeINS_12basic_stringIcNS_11char_traitsIcEENS_9allocatorIcEEEENS_15__list_iteratorINS_4pairIKS7_13TensorStorageEEPvEEEENS_22__unordered_map_hasherIS7_SF_NS_4hashIS7_EENS_8equal_toIS7_EELb1EEEN @1252
    _ZNKSt3__112__match_charIcE6__execERNS_7__stateIcEE @1253
    _ZNKSt3__112basic_stringIcNS_11char_traitsIcEENS_9allocatorIcEEE4findB8ne200100EPKcy @1254
    _ZNKSt3__112regex_traitsIcE18__lookup_classnameINS_11__wrap_iterIPKcEEEEtT_S7_bc @1255
    _ZNKSt3__112regex_traitsIcE18__lookup_classnameIPKcEEtT_S5_bc @1256
    _ZNKSt3__112regex_traitsIcE19__transform_primaryINS_11__wrap_iterIPcEEEENS_12basic_stringIcNS_11char_traitsIcEENS_9allocatorIcEEEET_SC_c @1257
    _ZNKSt3__112regex_traitsIcE19__transform_primaryIPcEENS_12basic_stringIcNS_11char_traitsIcEENS_9allocatorIcEEEET_SA_c @1258
    _ZNKSt3__112regex_traitsIcE20__lookup_collatenameINS_11__wrap_iterIPKcEEEENS_12basic_stringIcNS_11char_traitsIcEENS_9allocatorIcEEEET_SD_c @1259
    _ZNKSt3__112regex_traitsIcE20__lookup_collatenameIPKcEENS_12basic_stringIcNS_11char_traitsIcEENS_9allocatorIcEEEET_SB_c @1260
    _ZNKSt3__112regex_traitsIcE20__lookup_collatenameIPcEENS_12basic_stringIcNS_11char_traitsIcEENS_9allocatorIcEEEET_SA_c @1261
    _ZNKSt3__112regex_traitsIcE9transformINS_11__wrap_iterIPcEEEENS_12basic_stringIcNS_11char_traitsIcEENS_9allocatorIcEEEET_SC_ @1262
    _ZNKSt3__112regex_traitsIcE9transformIPcEENS_12basic_stringIcNS_11char_traitsIcEENS_9allocatorIcEEEET_SA_ @1263
    _ZNKSt3__113__empty_stateIcE6__execERNS_7__stateIcEE @1264
    _ZNKSt3__113match_resultsINS_11__wrap_iterIPKcEENS_9allocatorINS_9sub_matchIS4_EEEEE6formatINS_20back_insert_iteratorINS_12basic_stringIcNS_11char_traitsIcEENS5_IcEEEEEEEET_SI_S3_S3_NS_15regex_constants15match_flag_typeE @1265
    _ZNKSt3__114default_deleteI10FinalLayerEclB8ne200100EPS1_ @1266
    _ZNKSt3__114default_deleteI10FuseModuleEclB8ne200100EPS1_ @1267
    _ZNKSt3__114default_deleteI10JointBlockEclB8ne200100EPS1_ @1268
    _ZNKSt3__114default_deleteI10PatchEmbedEclB8ne200100EPS1_ @1269
    _ZNKSt3__114default_deleteI11CLIPEncoderEclB8ne200100EPS1_ @1270
    _ZNKSt3__114default_deleteI11FeedForwardEclB8ne200100EPS1_ @1271
    _ZNKSt3__114default_deleteI11GroupNorm32EclB8ne200100EPS1_ @1272
    _ZNKSt3__114default_deleteI11ResnetBlockEclB8ne200100EPS1_ @1273
    _ZNKSt3__114default_deleteI11T5AttentionEclB8ne200100EPS1_ @1274
    _ZNKSt3__114default_deleteI11T5LayerNormEclB8ne200100EPS1_ @1275
    _ZNKSt3__114default_deleteI11TinyDecoderEclB8ne200100EPS1_ @1276
    _ZNKSt3__114default_deleteI11TinyEncoderEclB8ne200100EPS1_ @1277
    _ZNKSt3__114default_deleteI12AlphaBlenderEclB8ne200100EPS1_ @1278
    _ZNKSt3__114default_deleteI13PMFeedForwardEclB8ne200100EPS1_ @1279
    _ZNKSt3__114default_deleteI13SelfAttentionEclB8ne200100EPS1_ @1280
    _ZNKSt3__114default_deleteI13UpSampleBlockEclB8ne200100EPS1_ @1281
    _ZNKSt3__114default_deleteI14CLIPEmbeddingsEclB8ne200100EPS1_ @1282
    _ZNKSt3__114default_deleteI14CLIPProjectionEclB8ne200100EPS1_ @1283
    _ZNKSt3__114default_deleteI14CrossAttentionEclB8ne200100EPS1_ @1284
    _ZNKSt3__114default_deleteI14VectorEmbedderEclB8ne200100EPS1_ @1285
    _ZNKSt3__114default_deleteI15CLIPVisionModelEclB8ne200100EPS1_ @1286
    _ZNKSt3__114default_deleteI15DismantledBlockEclB8ne200100EPS1_ @1287
    _ZNKSt3__114default_deleteI15DownSampleBlockEclB8ne200100EPS1_ @1288
    _ZNKSt3__114default_deleteI16QFormerPerceiverEclB8ne200100EPS1_ @1289
    _ZNKSt3__114default_deleteI16TimestepEmbedderEclB8ne200100EPS1_ @1290
    _ZNKSt3__114default_deleteI16TinyVideoDecoderEclB8ne200100EPS1_ @1291
    _ZNKSt3__114default_deleteI16TinyVideoEncoderEclB8ne200100EPS1_ @1292
    _ZNKSt3__114default_deleteI16VideoResnetBlockEclB8ne200100EPS1_ @1293
    _ZNKSt3__114default_deleteI18PerceiverAttentionEclB8ne200100EPS1_ @1294
    _ZNKSt3__114default_deleteI18ResidualDenseBlockEclB8ne200100EPS1_ @1295
    _ZNKSt3__114default_deleteI18SpatialTransformerEclB8ne200100EPS1_ @1296
    _ZNKSt3__114default_deleteI20CLIPVisionEmbeddingsEclB8ne200100EPS1_ @1297
    _ZNKSt3__114default_deleteI20T5DenseGatedActDenseEclB8ne200100EPS1_ @1298
    _ZNKSt3__114default_deleteI20T5LayerSelfAttentionEclB8ne200100EPS1_ @1299
    _ZNKSt3__114default_deleteI21BasicTransformerBlockEclB8ne200100EPS1_ @1300
    _ZNKSt3__114default_deleteI22FacePerceiverResamplerEclB8ne200100EPS1_ @1301
    _ZNKSt3__114default_deleteI3MlpEclB8ne200100EPS1_ @1302
    _ZNKSt3__114default_deleteI4GELUEclB8ne200100EPS1_ @1303
    _ZNKSt3__114default_deleteI4RRDBEclB8ne200100EPS1_ @1304
    _ZNKSt3__114default_deleteI5GEGLUEclB8ne200100EPS1_ @1305
    _ZNKSt3__114default_deleteI5TGrowEclB8ne200100EPS1_ @1306
    _ZNKSt3__114default_deleteI5TPoolEclB8ne200100EPS1_ @1307
    _ZNKSt3__114default_deleteI6Conv2dEclB8ne200100EPS1_ @1308
    _ZNKSt3__114default_deleteI6Conv3dEclB8ne200100EPS1_ @1309
    _ZNKSt3__114default_deleteI6LinearEclB8ne200100EPS1_ @1310
    _ZNKSt3__114default_deleteI7CLIPMLPEclB8ne200100EPS1_ @1311
    _ZNKSt3__114default_deleteI7DecoderEclB8ne200100EPS1_ @1312
    _ZNKSt3__114default_deleteI7EncoderEclB8ne200100EPS1_ @1313
    _ZNKSt3__114default_deleteI7RMSNormEclB8ne200100EPS1_ @1314
    _ZNKSt3__114default_deleteI7T5BlockEclB8ne200100EPS1_ @1315
    _ZNKSt3__114default_deleteI7T5StackEclB8ne200100EPS1_ @1316
    _ZNKSt3__114default_deleteI8AE3DConvEclB8ne200100EPS1_ @1317
    _ZNKSt3__114default_deleteI8IdentityEclB8ne200100EPS1_ @1318
    _ZNKSt3__114default_deleteI8MemBlockEclB8ne200100EPS1_ @1319
    _ZNKSt3__114default_deleteI8ResBlockEclB8ne200100EPS1_ @1320
    _ZNKSt3__114default_deleteI8TAEBlockEclB8ne200100EPS1_ @1321
    _ZNKSt3__114default_deleteI9AttnBlockEclB8ne200100EPS1_ @1322
    _ZNKSt3__114default_deleteI9CLIPLayerEclB8ne200100EPS1_ @1323
    _ZNKSt3__114default_deleteI9EmbeddingEclB8ne200100EPS1_ @1324
    _ZNKSt3__114default_deleteI9FuseBlockEclB8ne200100EPS1_ @1325
    _ZNKSt3__114default_deleteI9GroupNormEclB8ne200100EPS1_ @1326
    _ZNKSt3__114default_deleteI9LayerNormEclB8ne200100EPS1_ @1327
    _ZNKSt3__114default_deleteI9T5LayerFFEclB8ne200100EPS1_ @1328
    _ZNKSt3__114default_deleteIN3LLM11PatchMergerEEclB8ne200100EPS2_ @1329
    _ZNKSt3__114default_deleteIN3LLM11VisionBlockEEclB8ne200100EPS2_ @1330
    _ZNKSt3__114default_deleteIN3LLM11VisionModelEEclB8ne200100EPS2_ @1331
    _ZNKSt3__114default_deleteIN3LLM15VisionAttentionEEclB8ne200100EPS2_ @1332
    _ZNKSt3__114default_deleteIN3LLM16TransformerBlockEEclB8ne200100EPS2_ @1333
    _ZNKSt3__114default_deleteIN3LLM16VisionPatchEmbedEEclB8ne200100EPS2_ @1334
    _ZNKSt3__114default_deleteIN3LLM3MLPEEclB8ne200100EPS2_ @1335
    _ZNKSt3__114default_deleteIN3LLM9TextModelEEclB8ne200100EPS2_ @1336
    _ZNKSt3__114default_deleteIN3WAN12CausalConv3dEEclB8ne200100EPS2_ @1337
    _ZNKSt3__114default_deleteIN3WAN13ResidualBlockEEclB8ne200100EPS2_ @1338
    _ZNKSt3__114default_deleteIN3WAN14AttentionBlockEEclB8ne200100EPS2_ @1339
    _ZNKSt3__114default_deleteIN3WAN16Up_ResidualBlockEEclB8ne200100EPS2_ @1340
    _ZNKSt3__114default_deleteIN3WAN16WanSelfAttentionEEclB8ne200100EPS2_ @1341
    _ZNKSt3__114default_deleteIN3WAN17WanAttentionBlockEEclB8ne200100EPS2_ @1342
    _ZNKSt3__114default_deleteIN3WAN18Down_ResidualBlockEEclB8ne200100EPS2_ @1343
    _ZNKSt3__114default_deleteIN3WAN20WanI2VCrossAttentionEEclB8ne200100EPS2_ @1344
    _ZNKSt3__114default_deleteIN3WAN20WanT2VCrossAttentionEEclB8ne200100EPS2_ @1345
    _ZNKSt3__114default_deleteIN3WAN21VaceWanAttentionBlockEEclB8ne200100EPS2_ @1346
    _ZNKSt3__114default_deleteIN3WAN4HeadEEclB8ne200100EPS2_ @1347
    _ZNKSt3__114default_deleteIN3WAN7DupUp3DEEclB8ne200100EPS2_ @1348
    _ZNKSt3__114default_deleteIN3WAN7MLPProjEEclB8ne200100EPS2_ @1349
    _ZNKSt3__114default_deleteIN3WAN8RMS_normEEclB8ne200100EPS2_ @1350
    _ZNKSt3__114default_deleteIN3WAN8ResampleEEclB8ne200100EPS2_ @1351
    _ZNKSt3__114default_deleteIN3WAN9AvgDown3DEEclB8ne200100EPS2_ @1352
    _ZNKSt3__114default_deleteIN3WAN9Decoder3dEEclB8ne200100EPS2_ @1353
    _ZNKSt3__114default_deleteIN3WAN9Encoder3dEEclB8ne200100EPS2_ @1354
    _ZNKSt3__114default_deleteIN4Flux10ModulationEEclB8ne200100EPS2_ @1355
    _ZNKSt3__114default_deleteIN4Flux11MLPEmbedderEEclB8ne200100EPS2_ @1356
    _ZNKSt3__114default_deleteIN4Flux13SelfAttentionEEclB8ne200100EPS2_ @1357
    _ZNKSt3__114default_deleteIN4Flux3MLPEEclB8ne200100EPS2_ @1358
    _ZNKSt3__114default_deleteIN4Flux6QKNormEEclB8ne200100EPS2_ @1359
    _ZNKSt3__114default_deleteIN4Flux6YakMLPEEclB8ne200100EPS2_ @1360
    _ZNKSt3__114default_deleteIN4Flux7RMSNormEEclB8ne200100EPS2_ @1361
    _ZNKSt3__114default_deleteIN4Qwen17TimestepEmbeddingEEclB8ne200100EPS2_ @1362
    _ZNKSt3__114default_deleteIN4Qwen18QwenImageAttentionEEclB8ne200100EPS2_ @1363
    _ZNKSt3__114default_deleteIN4Qwen22AdaLayerNormContinuousEEclB8ne200100EPS2_ @1364
    _ZNKSt3__114default_deleteIN4Qwen25QwenImageTransformerBlockEEclB8ne200100EPS2_ @1365
    _ZNKSt3__114default_deleteIN4Qwen26QwenTimestepProjEmbeddingsEEclB8ne200100EPS2_ @1366
    _ZNKSt3__115__word_boundaryIcNS_12regex_traitsIcEEE6__execERNS_7__stateIcEE @1367
    _ZNKSt3__115basic_stringbufIcNS_11char_traitsIcEENS_9allocatorIcEEE3strEv @1368
    _ZNKSt3__116__back_ref_icaseIcNS_12regex_traitsIcEEE6__execERNS_7__stateIcEE @1369
    _ZNKSt3__117__repeat_one_loopIcE6__execERNS_7__stateIcEE @1370
    _ZNKSt3__118__back_ref_collateIcNS_12regex_traitsIcEEE6__execERNS_7__stateIcEE @1371
    _ZNKSt3__118__match_char_icaseIcNS_12regex_traitsIcEEE6__execERNS_7__stateIcEE @1372
    _ZNKSt3__120__bracket_expressionIcNS_12regex_traitsIcEEE6__execERNS_7__stateIcEE @1373
    _ZNKSt3__120__l_anchor_multilineIcE6__execERNS_7__stateIcEE @1374
    _ZNKSt3__120__match_char_collateIcNS_12regex_traitsIcEEE6__execERNS_7__stateIcEE @1375
    _ZNKSt3__120__r_anchor_multilineIcE6__execERNS_7__stateIcEE @1376
    _ZNKSt3__120__shared_ptr_pointerIP10FinalLayerNS_10shared_ptrI9GGMLBlockE27__shared_ptr_default_deleteIS4_S1_EENS_9allocatorIS1_EEE13__get_deleterERKSt9type_info @1377
    _ZNKSt3__120__shared_ptr_pointerIP10FuseModuleNS_10shared_ptrI9GGMLBlockE27__shared_ptr_default_deleteIS4_S1_EENS_9allocatorIS1_EEE13__get_deleterERKSt9type_info @1378
    _ZNKSt3__120__shared_ptr_pointerIP10JointBlockNS_10shared_ptrI9GGMLBlockE27__shared_ptr_default_deleteIS4_S1_EENS_9allocatorIS1_EEE13__get_deleterERKSt9type_info @1379
    _ZNKSt3__120__shared_ptr_pointerIP10PatchEmbedNS_10shared_ptrI9GGMLBlockE27__shared_ptr_default_deleteIS4_S1_EENS_9allocatorIS1_EEE13__get_deleterERKSt9type_info @1380
    _ZNKSt3__120__shared_ptr_pointerIP11CLIPEncoderNS_10shared_ptrI9GGMLBlockE27__shared_ptr_default_deleteIS4_S1_EENS_9allocatorIS1_EEE13__get_deleterERKSt9type_info @1381
    _ZNKSt3__120__shared_ptr_pointerIP11FeedForwardNS_10shared_ptrI9GGMLBlockE27__shared_ptr_default_deleteIS4_S1_EENS_9allocatorIS1_EEE13__get_deleterERKSt9type_info @1382
    _ZNKSt3__120__shared_ptr_pointerIP11GroupNorm32NS_10shared_ptrI9GGMLBlockE27__shared_ptr_default_deleteIS4_S1_EENS_9allocatorIS1_EEE13__get_deleterERKSt9type_info @1383
    _ZNKSt3__120__shared_ptr_pointerIP11ResnetBlockNS_10shared_ptrI9GGMLBlockE27__shared_ptr_default_deleteIS4_S1_EENS_9allocatorIS1_EEE13__get_deleterERKSt9type_info @1384
    _ZNKSt3__120__shared_ptr_pointerIP11T5AttentionNS_10shared_ptrI9GGMLBlockE27__shared_ptr_default_deleteIS4_S1_EENS_9allocatorIS1_EEE13__get_deleterERKSt9type_info @1385
    _ZNKSt3__120__shared_ptr_pointerIP11T5LayerNormNS_10shared_ptrI9GGMLBlockE27__shared_ptr_default_deleteIS4_S1_EENS_9allocatorIS1_EEE13__get_deleterERKSt9type_info @1386
    _ZNKSt3__120__shared_ptr_pointerIP11TinyDecoderNS_10shared_ptrI9GGMLBlockE27__shared_ptr_default_deleteIS4_S1_EENS_9allocatorIS1_EEE13__get_deleterERKSt9type_info @1387
    _ZNKSt3__120__shared_ptr_pointerIP11TinyEncoderNS_10shared_ptrI9GGMLBlockE27__shared_ptr_default_deleteIS4_S1_EENS_9allocatorIS1_EEE13__get_deleterERKSt9type_info @1388
    _ZNKSt3__120__shared_ptr_pointerIP12AlphaBlenderNS_10shared_ptrI9GGMLBlockE27__shared_ptr_default_deleteIS4_S1_EENS_9allocatorIS1_EEE13__get_deleterERKSt9type_info @1389
    _ZNKSt3__120__shared_ptr_pointerIP13PMFeedForwardNS_10shared_ptrI9GGMLBlockE27__shared_ptr_default_deleteIS4_S1_EENS_9allocatorIS1_EEE13__get_deleterERKSt9type_info @1390
    _ZNKSt3__120__shared_ptr_pointerIP13SelfAttentionNS_10shared_ptrI9GGMLBlockE27__shared_ptr_default_deleteIS4_S1_EENS_9allocatorIS1_EEE13__get_deleterERKSt9type_info @1391
    _ZNKSt3__120__shared_ptr_pointerIP13UpSampleBlockNS_10shared_ptrI9GGMLBlockE27__shared_ptr_default_deleteIS4_S1_EENS_9allocatorIS1_EEE13__get_deleterERKSt9type_info @1392
    _ZNKSt3__120__shared_ptr_pointerIP14CLIPEmbeddingsNS_10shared_ptrI9GGMLBlockE27__shared_ptr_default_deleteIS4_S1_EENS_9allocatorIS1_EEE13__get_deleterERKSt9type_info @1393
    _ZNKSt3__120__shared_ptr_pointerIP14CLIPProjectionNS_10shared_ptrI9GGMLBlockE27__shared_ptr_default_deleteIS4_S1_EENS_9allocatorIS1_EEE13__get_deleterERKSt9type_info @1394
    _ZNKSt3__120__shared_ptr_pointerIP14CrossAttentionNS_10shared_ptrI9GGMLBlockE27__shared_ptr_default_deleteIS4_S1_EENS_9allocatorIS1_EEE13__get_deleterERKSt9type_info @1395
    _ZNKSt3__120__shared_ptr_pointerIP14VectorEmbedderNS_10shared_ptrI9GGMLBlockE27__shared_ptr_default_deleteIS4_S1_EENS_9allocatorIS1_EEE13__get_deleterERKSt9type_info @1396
    _ZNKSt3__120__shared_ptr_pointerIP15CLIPVisionModelNS_10shared_ptrI9GGMLBlockE27__shared_ptr_default_deleteIS4_S1_EENS_9allocatorIS1_EEE13__get_deleterERKSt9type_info @1397
    _ZNKSt3__120__shared_ptr_pointerIP15DismantledBlockNS_10shared_ptrI9GGMLBlockE27__shared_ptr_default_deleteIS4_S1_EENS_9allocatorIS1_EEE13__get_deleterERKSt9type_info @1398
    _ZNKSt3__120__shared_ptr_pointerIP15DownSampleBlockNS_10shared_ptrI9GGMLBlockE27__shared_ptr_default_deleteIS4_S1_EENS_9allocatorIS1_EEE13__get_deleterERKSt9type_info @1399
    _ZNKSt3__120__shared_ptr_pointerIP16QFormerPerceiverNS_10shared_ptrI9GGMLBlockE27__shared_ptr_default_deleteIS4_S1_EENS_9allocatorIS1_EEE13__get_deleterERKSt9type_info @1400
    _ZNKSt3__120__shared_ptr_pointerIP16TimestepEmbedderNS_10shared_ptrI9GGMLBlockE27__shared_ptr_default_deleteIS4_S1_EENS_9allocatorIS1_EEE13__get_deleterERKSt9type_info @1401
    _ZNKSt3__120__shared_ptr_pointerIP16TinyVideoDecoderNS_10shared_ptrI9GGMLBlockE27__shared_ptr_default_deleteIS4_S1_EENS_9allocatorIS1_EEE13__get_deleterERKSt9type_info @1402
    _ZNKSt3__120__shared_ptr_pointerIP16TinyVideoEncoderNS_10shared_ptrI9GGMLBlockE27__shared_ptr_default_deleteIS4_S1_EENS_9allocatorIS1_EEE13__get_deleterERKSt9type_info @1403
    _ZNKSt3__120__shared_ptr_pointerIP16VideoResnetBlockNS_10shared_ptrI9GGMLBlockE27__shared_ptr_default_deleteIS4_S1_EENS_9allocatorIS1_EEE13__get_deleterERKSt9type_info @1404
    _ZNKSt3__120__shared_ptr_pointerIP18MultiheadAttentionNS_10shared_ptrI9GGMLBlockE27__shared_ptr_default_deleteIS4_S1_EENS_9allocatorIS1_EEE13__get_deleterERKSt9type_info @1405
    _ZNKSt3__120__shared_ptr_pointerIP18PerceiverAttentionNS_10shared_ptrI9GGMLBlockE27__shared_ptr_default_deleteIS4_S1_EENS_9allocatorIS1_EEE13__get_deleterERKSt9type_info @1406
    _ZNKSt3__120__shared_ptr_pointerIP18ResidualDenseBlockNS_10shared_ptrI9GGMLBlockE27__shared_ptr_default_deleteIS4_S1_EENS_9allocatorIS1_EEE13__get_deleterERKSt9type_info @1407
    _ZNKSt3__120__shared_ptr_pointerIP18SpatialTransformerNS_10shared_ptrI9GGMLBlockE27__shared_ptr_default_deleteIS4_S1_EENS_9allocatorIS1_EEE13__get_deleterERKSt9type_info @1408
    _ZNKSt3__120__shared_ptr_pointerIP20CLIPVisionEmbeddingsNS_10shared_ptrI9GGMLBlockE27__shared_ptr_default_deleteIS4_S1_EENS_9allocatorIS1_EEE13__get_deleterERKSt9type_info @1409
    _ZNKSt3__120__shared_ptr_pointerIP20T5DenseGatedActDenseNS_10shared_ptrI9GGMLBlockE27__shared_ptr_default_deleteIS4_S1_EENS_9allocatorIS1_EEE13__get_deleterERKSt9type_info @1410
    _ZNKSt3__120__shared_ptr_pointerIP20T5LayerSelfAttentionNS_10shared_ptrI9GGMLBlockE27__shared_ptr_default_deleteIS4_S1_EENS_9allocatorIS1_EEE13__get_deleterERKSt9type_info @1411
    _ZNKSt3__120__shared_ptr_pointerIP21BasicTransformerBlockNS_10shared_ptrI9GGMLBlockE27__shared_ptr_default_deleteIS4_S1_EENS_9allocatorIS1_EEE13__get_deleterERKSt9type_info @1412
    _ZNKSt3__120__shared_ptr_pointerIP22FacePerceiverResamplerNS_10shared_ptrI9GGMLBlockE27__shared_ptr_default_deleteIS4_S1_EENS_9allocatorIS1_EEE13__get_deleterERKSt9type_info @1413
    _ZNKSt3__120__shared_ptr_pointerIP3MlpNS_10shared_ptrI9GGMLBlockE27__shared_ptr_default_deleteIS4_S1_EENS_9allocatorIS1_EEE13__get_deleterERKSt9type_info @1414
    _ZNKSt3__120__shared_ptr_pointerIP4GELUNS_10shared_ptrI9GGMLBlockE27__shared_ptr_default_deleteIS4_S1_EENS_9allocatorIS1_EEE13__get_deleterERKSt9type_info @1415
    _ZNKSt3__120__shared_ptr_pointerIP4RRDBNS_10shared_ptrI9GGMLBlockE27__shared_ptr_default_deleteIS4_S1_EENS_9allocatorIS1_EEE13__get_deleterERKSt9type_info @1416
    _ZNKSt3__120__shared_ptr_pointerIP5GEGLUNS_10shared_ptrI9GGMLBlockE27__shared_ptr_default_deleteIS4_S1_EENS_9allocatorIS1_EEE13__get_deleterERKSt9type_info @1417
    _ZNKSt3__120__shared_ptr_pointerIP5TGrowNS_10shared_ptrI9GGMLBlockE27__shared_ptr_default_deleteIS4_S1_EENS_9allocatorIS1_EEE13__get_deleterERKSt9type_info @1418
    _ZNKSt3__120__shared_ptr_pointerIP5TPoolNS_10shared_ptrI9GGMLBlockE27__shared_ptr_default_deleteIS4_S1_EENS_9allocatorIS1_EEE13__get_deleterERKSt9type_info @1419
    _ZNKSt3__120__shared_ptr_pointerIP6Conv2dNS_10shared_ptrI9GGMLBlockE27__shared_ptr_default_deleteIS4_S1_EENS_9allocatorIS1_EEE13__get_deleterERKSt9type_info @1420
    _ZNKSt3__120__shared_ptr_pointerIP6Conv3dNS_10shared_ptrI9GGMLBlockE27__shared_ptr_default_deleteIS4_S1_EENS_9allocatorIS1_EEE13__get_deleterERKSt9type_info @1421
    _ZNKSt3__120__shared_ptr_pointerIP6LinearNS_10shared_ptrI9GGMLBlockE27__shared_ptr_default_deleteIS4_S1_EENS_9allocatorIS1_EEE13__get_deleterERKSt9type_info @1422
    _ZNKSt3__120__shared_ptr_pointerIP7CLIPMLPNS_10shared_ptrI9GGMLBlockE27__shared_ptr_default_deleteIS4_S1_EENS_9allocatorIS1_EEE13__get_deleterERKSt9type_info @1423
    _ZNKSt3__120__shared_ptr_pointerIP7DecoderNS_10shared_ptrI9GGMLBlockE27__shared_ptr_default_deleteIS4_S1_EENS_9allocatorIS1_EEE13__get_deleterERKSt9type_info @1424
    _ZNKSt3__120__shared_ptr_pointerIP7EncoderNS_10shared_ptrI9GGMLBlockE27__shared_ptr_default_deleteIS4_S1_EENS_9allocatorIS1_EEE13__get_deleterERKSt9type_info @1425
    _ZNKSt3__120__shared_ptr_pointerIP7RMSNormNS_10shared_ptrI9GGMLBlockE27__shared_ptr_default_deleteIS4_S1_EENS_9allocatorIS1_EEE13__get_deleterERKSt9type_info @1426
    _ZNKSt3__120__shared_ptr_pointerIP7T5BlockNS_10shared_ptrI9GGMLBlockE27__shared_ptr_default_deleteIS4_S1_EENS_9allocatorIS1_EEE13__get_deleterERKSt9type_info @1427
    _ZNKSt3__120__shared_ptr_pointerIP7T5StackNS_10shared_ptrI9GGMLBlockE27__shared_ptr_default_deleteIS4_S1_EENS_9allocatorIS1_EEE13__get_deleterERKSt9type_info @1428
    _ZNKSt3__120__shared_ptr_pointerIP8AE3DConvNS_10shared_ptrI9GGMLBlockE27__shared_ptr_default_deleteIS4_S1_EENS_9allocatorIS1_EEE13__get_deleterERKSt9type_info @1429
    _ZNKSt3__120__shared_ptr_pointerIP8IdentityNS_10shared_ptrI9GGMLBlockE27__shared_ptr_default_deleteIS4_S1_EENS_9allocatorIS1_EEE13__get_deleterERKSt9type_info @1430
    _ZNKSt3__120__shared_ptr_pointerIP8MemBlockNS_10shared_ptrI9GGMLBlockE27__shared_ptr_default_deleteIS4_S1_EENS_9allocatorIS1_EEE13__get_deleterERKSt9type_info @1431
    _ZNKSt3__120__shared_ptr_pointerIP8ResBlockNS_10shared_ptrI9GGMLBlockE27__shared_ptr_default_deleteIS4_S1_EENS_9allocatorIS1_EEE13__get_deleterERKSt9type_info @1432
    _ZNKSt3__120__shared_ptr_pointerIP8TAEBlockNS_10shared_ptrI9GGMLBlockE27__shared_ptr_default_deleteIS4_S1_EENS_9allocatorIS1_EEE13__get_deleterERKSt9type_info @1433
    _ZNKSt3__120__shared_ptr_pointerIP9AttnBlockNS_10shared_ptrI9GGMLBlockE27__shared_ptr_default_deleteIS4_S1_EENS_9allocatorIS1_EEE13__get_deleterERKSt9type_info @1434
    _ZNKSt3__120__shared_ptr_pointerIP9CLIPLayerNS_10shared_ptrI9GGMLBlockE27__shared_ptr_default_deleteIS4_S1_EENS_9allocatorIS1_EEE13__get_deleterERKSt9type_info @1435
    _ZNKSt3__120__shared_ptr_pointerIP9EmbeddingNS_10shared_ptrI9GGMLBlockE27__shared_ptr_default_deleteIS4_S1_EENS_9allocatorIS1_EEE13__get_deleterERKSt9type_info @1436
    _ZNKSt3__120__shared_ptr_pointerIP9FuseBlockNS_10shared_ptrI9GGMLBlockE27__shared_ptr_default_deleteIS4_S1_EENS_9allocatorIS1_EEE13__get_deleterERKSt9type_info @1437
    _ZNKSt3__120__shared_ptr_pointerIP9GroupNormNS_10shared_ptrI9GGMLBlockE27__shared_ptr_default_deleteIS4_S1_EENS_9allocatorIS1_EEE13__get_deleterERKSt9type_info @1438
    _ZNKSt3__120__shared_ptr_pointerIP9LayerNormNS_10shared_ptrI9GGMLBlockE27__shared_ptr_default_deleteIS4_S1_EENS_9allocatorIS1_EEE13__get_deleterERKSt9type_info @1439
    _ZNKSt3__120__shared_ptr_pointerIP9T5LayerFFNS_10shared_ptrI9GGMLBlockE27__shared_ptr_default_deleteIS4_S1_EENS_9allocatorIS1_EEE13__get_deleterERKSt9type_info @1440
    _ZNKSt3__120__shared_ptr_pointerIPN3LLM11PatchMergerENS_10shared_ptrI9GGMLBlockE27__shared_ptr_default_deleteIS5_S2_EENS_9allocatorIS2_EEE13__get_deleterERKSt9type_info @1441
    _ZNKSt3__120__shared_ptr_pointerIPN3LLM11VisionBlockENS_10shared_ptrI9GGMLBlockE27__shared_ptr_default_deleteIS5_S2_EENS_9allocatorIS2_EEE13__get_deleterERKSt9type_info @1442
    _ZNKSt3__120__shared_ptr_pointerIPN3LLM11VisionModelENS_10shared_ptrI9GGMLBlockE27__shared_ptr_default_deleteIS5_S2_EENS_9allocatorIS2_EEE13__get_deleterERKSt9type_info @1443
    _ZNKSt3__120__shared_ptr_pointerIPN3LLM15VisionAttentionENS_10shared_ptrI9GGMLBlockE27__shared_ptr_default_deleteIS5_S2_EENS_9allocatorIS2_EEE13__get_deleterERKSt9type_info @1444
    _ZNKSt3__120__shared_ptr_pointerIPN3LLM16TransformerBlockENS_10shared_ptrI9GGMLBlockE27__shared_ptr_default_deleteIS5_S2_EENS_9allocatorIS2_EEE13__get_deleterERKSt9type_info @1445
    _ZNKSt3__120__shared_ptr_pointerIPN3LLM16VisionPatchEmbedENS_10shared_ptrI9GGMLBlockE27__shared_ptr_default_deleteIS5_S2_EENS_9allocatorIS2_EEE13__get_deleterERKSt9type_info @1446
    _ZNKSt3__120__shared_ptr_pointerIPN3LLM3MLPENS_10shared_ptrI9GGMLBlockE27__shared_ptr_default_deleteIS5_S2_EENS_9allocatorIS2_EEE13__get_deleterERKSt9type_info @1447
    _ZNKSt3__120__shared_ptr_pointerIPN3LLM9TextModelENS_10shared_ptrI9GGMLBlockE27__shared_ptr_default_deleteIS5_S2_EENS_9allocatorIS2_EEE13__get_deleterERKSt9type_info @1448
    _ZNKSt3__120__shared_ptr_pointerIPN3WAN12CausalConv3dENS_10shared_ptrI9GGMLBlockE27__shared_ptr_default_deleteIS5_S2_EENS_9allocatorIS2_EEE13__get_deleterERKSt9type_info @1449
    _ZNKSt3__120__shared_ptr_pointerIPN3WAN13ResidualBlockENS_10shared_ptrI9GGMLBlockE27__shared_ptr_default_deleteIS5_S2_EENS_9allocatorIS2_EEE13__get_deleterERKSt9type_info @1450
    _ZNKSt3__120__shared_ptr_pointerIPN3WAN14AttentionBlockENS_10shared_ptrI9GGMLBlockE27__shared_ptr_default_deleteIS5_S2_EENS_9allocatorIS2_EEE13__get_deleterERKSt9type_info @1451
    _ZNKSt3__120__shared_ptr_pointerIPN3WAN16Up_ResidualBlockENS_10shared_ptrI9GGMLBlockE27__shared_ptr_default_deleteIS5_S2_EENS_9allocatorIS2_EEE13__get_deleterERKSt9type_info @1452
    _ZNKSt3__120__shared_ptr_pointerIPN3WAN16WanSelfAttentionENS_10shared_ptrI9GGMLBlockE27__shared_ptr_default_deleteIS5_S2_EENS_9allocatorIS2_EEE13__get_deleterERKSt9type_info @1453
    _ZNKSt3__120__shared_ptr_pointerIPN3WAN17WanAttentionBlockENS_10shared_ptrI9GGMLBlockE27__shared_ptr_default_deleteIS5_S2_EENS_9allocatorIS2_EEE13__get_deleterERKSt9type_info @1454
    _ZNKSt3__120__shared_ptr_pointerIPN3WAN18Down_ResidualBlockENS_10shared_ptrI9GGMLBlockE27__shared_ptr_default_deleteIS5_S2_EENS_9allocatorIS2_EEE13__get_deleterERKSt9type_info @1455
    _ZNKSt3__120__shared_ptr_pointerIPN3WAN20WanI2VCrossAttentionENS_10shared_ptrI9GGMLBlockE27__shared_ptr_default_deleteIS5_S2_EENS_9allocatorIS2_EEE13__get_deleterERKSt9type_info @1456
    _ZNKSt3__120__shared_ptr_pointerIPN3WAN20WanT2VCrossAttentionENS_10shared_ptrI9GGMLBlockE27__shared_ptr_default_deleteIS5_S2_EENS_9allocatorIS2_EEE13__get_deleterERKSt9type_info @1457
    _ZNKSt3__120__shared_ptr_pointerIPN3WAN21VaceWanAttentionBlockENS_10shared_ptrI9GGMLBlockE27__shared_ptr_default_deleteIS5_S2_EENS_9allocatorIS2_EEE13__get_deleterERKSt9type_info @1458
    _ZNKSt3__120__shared_ptr_pointerIPN3WAN4HeadENS_10shared_ptrI9GGMLBlockE27__shared_ptr_default_deleteIS5_S2_EENS_9allocatorIS2_EEE13__get_deleterERKSt9type_info @1459
    _ZNKSt3__120__shared_ptr_pointerIPN3WAN7DupUp3DENS_10shared_ptrI9GGMLBlockE27__shared_ptr_default_deleteIS5_S2_EENS_9allocatorIS2_EEE13__get_deleterERKSt9type_info @1460
    _ZNKSt3__120__shared_ptr_pointerIPN3WAN7MLPProjENS_10shared_ptrI9GGMLBlockE27__shared_ptr_default_deleteIS5_S2_EENS_9allocatorIS2_EEE13__get_deleterERKSt9type_info @1461
    _ZNKSt3__120__shared_ptr_pointerIPN3WAN8RMS_normENS_10shared_ptrI9GGMLBlockE27__shared_ptr_default_deleteIS5_S2_EENS_9allocatorIS2_EEE13__get_deleterERKSt9type_info @1462
    _ZNKSt3__120__shared_ptr_pointerIPN3WAN8ResampleENS_10shared_ptrI9GGMLBlockE27__shared_ptr_default_deleteIS5_S2_EENS_9allocatorIS2_EEE13__get_deleterERKSt9type_info @1463
    _ZNKSt3__120__shared_ptr_pointerIPN3WAN9AvgDown3DENS_10shared_ptrI9GGMLBlockE27__shared_ptr_default_deleteIS5_S2_EENS_9allocatorIS2_EEE13__get_deleterERKSt9type_info @1464
    _ZNKSt3__120__shared_ptr_pointerIPN3WAN9Decoder3dENS_10shared_ptrI9GGMLBlockE27__shared_ptr_default_deleteIS5_S2_EENS_9allocatorIS2_EEE13__get_deleterERKSt9type_info @1465
    _ZNKSt3__120__shared_ptr_pointerIPN3WAN9Encoder3dENS_10shared_ptrI9GGMLBlockE27__shared_ptr_default_deleteIS5_S2_EENS_9allocatorIS2_EEE13__get_deleterERKSt9type_info @1466
    _ZNKSt3__120__shared_ptr_pointerIPN4Flux10ModulationENS_10shared_ptrI9GGMLBlockE27__shared_ptr_default_deleteIS5_S2_EENS_9allocatorIS2_EEE13__get_deleterERKSt9type_info @1467
    _ZNKSt3__120__shared_ptr_pointerIPN4Flux11MLPEmbedderENS_10shared_ptrI9GGMLBlockE27__shared_ptr_default_deleteIS5_S2_EENS_9allocatorIS2_EEE13__get_deleterERKSt9type_info @1468
    _ZNKSt3__120__shared_ptr_pointerIPN4Flux13SelfAttentionENS_10shared_ptrI9GGMLBlockE27__shared_ptr_default_deleteIS5_S2_EENS_9allocatorIS2_EEE13__get_deleterERKSt9type_info @1469
    _ZNKSt3__120__shared_ptr_pointerIPN4Flux3MLPENS_10shared_ptrI9GGMLBlockE27__shared_ptr_default_deleteIS5_S2_EENS_9allocatorIS2_EEE13__get_deleterERKSt9type_info @1470
    _ZNKSt3__120__shared_ptr_pointerIPN4Flux6QKNormENS_10shared_ptrI9GGMLBlockE27__shared_ptr_default_deleteIS5_S2_EENS_9allocatorIS2_EEE13__get_deleterERKSt9type_info @1471
    _ZNKSt3__120__shared_ptr_pointerIPN4Flux6YakMLPENS_10shared_ptrI9GGMLBlockE27__shared_ptr_default_deleteIS5_S2_EENS_9allocatorIS2_EEE13__get_deleterERKSt9type_info @1472
    _ZNKSt3__120__shared_ptr_pointerIPN4Flux7RMSNormENS_10shared_ptrI9GGMLBlockE27__shared_ptr_default_deleteIS5_S2_EENS_9allocatorIS2_EEE13__get_deleterERKSt9type_info @1473
    _ZNKSt3__120__shared_ptr_pointerIPN4Qwen17TimestepEmbeddingENS_10shared_ptrI9GGMLBlockE27__shared_ptr_default_deleteIS5_S2_EENS_9allocatorIS2_EEE13__get_deleterERKSt9type_info @1474
    _ZNKSt3__120__shared_ptr_pointerIPN4Qwen18QwenImageAttentionENS_10shared_ptrI9GGMLBlockE27__shared_ptr_default_deleteIS5_S2_EENS_9allocatorIS2_EEE13__get_deleterERKSt9type_info @1475
    _ZNKSt3__120__shared_ptr_pointerIPN4Qwen22AdaLayerNormContinuousENS_10shared_ptrI9GGMLBlockE27__shared_ptr_default_deleteIS5_S2_EENS_9allocatorIS2_EEE13__get_deleterERKSt9type_info @1476
    _ZNKSt3__120__shared_ptr_pointerIPN4Qwen25QwenImageTransformerBlockENS_10shared_ptrI9GGMLBlockE27__shared_ptr_default_deleteIS5_S2_EENS_9allocatorIS2_EEE13__get_deleterERKSt9type_info @1477
    _ZNKSt3__120__shared_ptr_pointerIPN4Qwen26QwenTimestepProjEmbeddingsENS_10shared_ptrI9GGMLBlockE27__shared_ptr_default_deleteIS5_S2_EENS_9allocatorIS2_EEE13__get_deleterERKSt9type_info @1478
    _ZNKSt3__120__shared_ptr_pointerIPNS_13__empty_stateIcEENS_10shared_ptrIS2_E27__shared_ptr_default_deleteIS2_S2_EENS_9allocatorIS2_EEE13__get_deleterERKSt9type_info @1479
    _ZNKSt3__121__empty_non_own_stateIcE6__execERNS_7__stateIcEE @1480
    _ZNKSt3__121__murmur2_or_cityhashIyLy64EEclB8ne200100EPKvy @1481
    _ZNKSt3__126__end_marked_subexpressionIcE6__execERNS_7__stateIcEE @1482
    _ZNKSt3__128__begin_marked_subexpressionIcE6__execERNS_7__stateIcEE @1483
    _ZNKSt3__16__loopIcE12__exec_splitEbRNS_7__stateIcEE @1484
    _ZNKSt3__16__loopIcE6__execERNS_7__stateIcEE @1485
    _ZNKSt3__16__nodeIcE12__exec_splitEbRNS_7__stateIcEE @1486
    _ZNKSt3__16__nodeIcE6__execERNS_7__stateIcEE @1487
    _ZNKSt3__16__treeINS_12__value_typeINS_12basic_stringIcNS_11char_traitsIcEENS_9allocatorIcEEEEP11ggml_tensorEENS_19__map_value_compareIS7_SA_NS_4lessIS7_EELb1EEENS5_ISA_EEE4findIS7_EENS_21__tree_const_iteratorISA_PNS_11__tree_nodeISA_Pv @1488
    _ZNSt11range_errorC2B8ne200100EPKc @1489
    _ZNSt12length_errorC2B8ne200100EPKc @1490
    _ZNSt12out_of_rangeC2B8ne200100EPKc @1491
    _ZNSt3__110__back_refIcED0Ev @1492
    _ZNSt3__110__function6__baseIFP11ggml_cgraphvEED2Ev @1493
    _ZNSt3__110__function6__baseIFP11ggml_tensorS3_fiEED2Ev @1494
    _ZNSt3__110__function6__baseIFbRK13TensorStoragePP11ggml_tensorEED2Ev @1495
    _ZNSt3__110__function6__baseIFbRKNS_12basic_stringIcNS_11char_traitsIcEENS_9allocatorIcEEEEEED2Ev @1496
    _ZNSt3__110__function6__baseIFbRNS_12basic_stringIcNS_11char_traitsIcEENS_9allocatorIcEEEERNS_6vectorIiNS5_IiEEEEEED2Ev @1497
    _ZNSt3__110__function6__baseIFffEED2Ev @1498
    _ZNSt3__110__function6__baseIFvP11ggml_tensorS3_bEED2Ev @1499
    _ZNSt3__110__function6__baseIFvP11ggml_tensorxxxxEED2Ev @1500
    _ZNSt3__110__function6__baseIFviiP10sd_image_tbPvEED2Ev @1501
    _ZNSt3__110__function6__funcINS_6__bindIM8DenoiserFffEJPS3_RKNS_12placeholders4__phILi1EEEEEENS_9allocatorISC_EEFffEE18destroy_deallocateEv @1502
    _ZNSt3__110__function6__funcINS_6__bindIM8DenoiserFffEJPS3_RKNS_12placeholders4__phILi1EEEEEENS_9allocatorISC_EEFffEE7destroyEv @1503
    _ZNSt3__110__function6__funcINS_6__bindIM8DenoiserFffEJPS3_RKNS_12placeholders4__phILi1EEEEEENS_9allocatorISC_EEFffEED0Ev @1504
    _ZNSt3__110__function6__funcINS_6__bindIM8DenoiserFffEJPS3_RKNS_12placeholders4__phILi1EEEEEENS_9allocatorISC_EEFffEEclEOf @1505
    _ZNSt3__110__function6__funcIPFviiP10sd_image_tbPvENS_9allocatorIS6_EES5_E18destroy_deallocateEv @1506
    _ZNSt3__110__function6__funcIPFviiP10sd_image_tbPvENS_9allocatorIS6_EES5_E7destroyEv @1507
    _ZNSt3__110__function6__funcIPFviiP10sd_image_tbPvENS_9allocatorIS6_EES5_ED0Ev @1508
    _ZNSt3__110__function6__funcIPFviiP10sd_image_tbPvENS_9allocatorIS6_EES5_EclEOiSA_OS3_ObOS4_ @1509
    _ZNSt3__110__function6__funcIZN10ControlNet7computeEiP11ggml_tensorS4_S4_S4_S4_PS4_P12ggml_contextEUlvE_NS_9allocatorIS8_EEFP11ggml_cgraphvEE18destroy_deallocateEv @1510
    _ZNSt3__110__function6__funcIZN10ControlNet7computeEiP11ggml_tensorS4_S4_S4_S4_PS4_P12ggml_contextEUlvE_NS_9allocatorIS8_EEFP11ggml_cgraphvEE7destroyEv @1511
    _ZNSt3__110__function6__funcIZN10ControlNet7computeEiP11ggml_tensorS4_S4_S4_S4_PS4_P12ggml_contextEUlvE_NS_9allocatorIS8_EEFP11ggml_cgraphvEED0Ev @1512
    _ZNSt3__110__function6__funcIZN10ControlNet7computeEiP11ggml_tensorS4_S4_S4_S4_PS4_P12ggml_contextEUlvE_NS_9allocatorIS8_EEFP11ggml_cgraphvEEclEv @1513
    _ZNSt3__110__function6__funcIZN11LLMEmbedder21get_learned_conditionEP12ggml_contextiRK17ConditionerParamsEUlP11ggml_tensorxxxxE0_NS_9allocatorISA_EEFvS9_xxxxEE18destroy_deallocateEv @1514
    _ZNSt3__110__function6__funcIZN11LLMEmbedder21get_learned_conditionEP12ggml_contextiRK17ConditionerParamsEUlP11ggml_tensorxxxxE0_NS_9allocatorISA_EEFvS9_xxxxEE7destroyEv @1515
    _ZNSt3__110__function6__funcIZN11LLMEmbedder21get_learned_conditionEP12ggml_contextiRK17ConditionerParamsEUlP11ggml_tensorxxxxE0_NS_9allocatorISA_EEFvS9_xxxxEED0Ev @1516
    _ZNSt3__110__function6__funcIZN11LLMEmbedder21get_learned_conditionEP12ggml_contextiRK17ConditionerParamsEUlP11ggml_tensorxxxxE0_NS_9allocatorISA_EEFvS9_xxxxEEclEOS9_OxSG_SG_SG_ @1517
    _ZNSt3__110__function6__funcIZN11LLMEmbedder21get_learned_conditionEP12ggml_contextiRK17ConditionerParamsEUlP11ggml_tensorxxxxE_NS_9allocatorISA_EEFvS9_xxxxEE18destroy_deallocateEv @1518
    _ZNSt3__110__function6__funcIZN11LLMEmbedder21get_learned_conditionEP12ggml_contextiRK17ConditionerParamsEUlP11ggml_tensorxxxxE_NS_9allocatorISA_EEFvS9_xxxxEE7destroyEv @1519
    _ZNSt3__110__function6__funcIZN11LLMEmbedder21get_learned_conditionEP12ggml_contextiRK17ConditionerParamsEUlP11ggml_tensorxxxxE_NS_9allocatorISA_EEFvS9_xxxxEED0Ev @1520
    _ZNSt3__110__function6__funcIZN11LLMEmbedder21get_learned_conditionEP12ggml_contextiRK17ConditionerParamsEUlP11ggml_tensorxxxxE_NS_9allocatorISA_EEFvS9_xxxxEEclEOS9_OxSG_SG_SG_ @1521
    _ZNSt3__110__function6__funcIZN11MMDiTRunner7computeEiP11ggml_tensorS4_S4_S4_PS4_P12ggml_contextNS_6vectorIiNS_9allocatorIiEEEEEUlvE_NS9_ISC_EEFP11ggml_cgraphvEE18destroy_deallocateEv @1522
    _ZNSt3__110__function6__funcIZN11MMDiTRunner7computeEiP11ggml_tensorS4_S4_S4_PS4_P12ggml_contextNS_6vectorIiNS_9allocatorIiEEEEEUlvE_NS9_ISC_EEFP11ggml_cgraphvEE7destroyEv @1523
    _ZNSt3__110__function6__funcIZN11MMDiTRunner7computeEiP11ggml_tensorS4_S4_S4_PS4_P12ggml_contextNS_6vectorIiNS_9allocatorIiEEEEEUlvE_NS9_ISC_EEFP11ggml_cgraphvEED0Ev @1524
    _ZNSt3__110__function6__funcIZN11MMDiTRunner7computeEiP11ggml_tensorS4_S4_S4_PS4_P12ggml_contextNS_6vectorIiNS_9allocatorIiEEEEEUlvE_NS9_ISC_EEFP11ggml_cgraphvEEclEv @1525
    _ZNSt3__110__function6__funcIZN12UpscalerGGML7upscaleE10sd_image_tjEUlP11ggml_tensorS5_bE_NS_9allocatorIS6_EEFvS5_S5_bEE18destroy_deallocateEv @1526
    _ZNSt3__110__function6__funcIZN12UpscalerGGML7upscaleE10sd_image_tjEUlP11ggml_tensorS5_bE_NS_9allocatorIS6_EEFvS5_S5_bEE7destroyEv @1527
    _ZNSt3__110__function6__funcIZN12UpscalerGGML7upscaleE10sd_image_tjEUlP11ggml_tensorS5_bE_NS_9allocatorIS6_EEFvS5_S5_bEED0Ev @1528
    _ZNSt3__110__function6__funcIZN12UpscalerGGML7upscaleE10sd_image_tjEUlP11ggml_tensorS5_bE_NS_9allocatorIS6_EEFvS5_S5_bEEclEOS5_SB_Ob @1529
    _ZNSt3__110__function6__funcIZN13AutoEncoderKL7computeEiP11ggml_tensorbPS4_P12ggml_contextEUlvE_NS_9allocatorIS8_EEFP11ggml_cgraphvEE18destroy_deallocateEv @1530
    _ZNSt3__110__function6__funcIZN13AutoEncoderKL7computeEiP11ggml_tensorbPS4_P12ggml_contextEUlvE_NS_9allocatorIS8_EEFP11ggml_cgraphvEE7destroyEv @1531
    _ZNSt3__110__function6__funcIZN13AutoEncoderKL7computeEiP11ggml_tensorbPS4_P12ggml_contextEUlvE_NS_9allocatorIS8_EEFP11ggml_cgraphvEED0Ev @1532
    _ZNSt3__110__function6__funcIZN13AutoEncoderKL7computeEiP11ggml_tensorbPS4_P12ggml_contextEUlvE_NS_9allocatorIS8_EEFP11ggml_cgraphvEEclEv @1533
    _ZNSt3__110__function6__funcIZN15SD3CLIPEmbedder8tokenizeENS_12basic_stringIcNS_11char_traitsIcEENS_9allocatorIcEEEEybEUlRS8_RNS_6vectorIiNS6_IiEEEEE_NS6_ISE_EEFbS9_SD_EE18destroy_deallocateEv @1534
    _ZNSt3__110__function6__funcIZN15SD3CLIPEmbedder8tokenizeENS_12basic_stringIcNS_11char_traitsIcEENS_9allocatorIcEEEEybEUlRS8_RNS_6vectorIiNS6_IiEEEEE_NS6_ISE_EEFbS9_SD_EE7destroyEv @1535
    _ZNSt3__110__function6__funcIZN15SD3CLIPEmbedder8tokenizeENS_12basic_stringIcNS_11char_traitsIcEENS_9allocatorIcEEEEybEUlRS8_RNS_6vectorIiNS6_IiEEEEE_NS6_ISE_EEFbS9_SD_EED0Ev @1536
    _ZNSt3__110__function6__funcIZN15SD3CLIPEmbedder8tokenizeENS_12basic_stringIcNS_11char_traitsIcEENS_9allocatorIcEEEEybEUlRS8_RNS_6vectorIiNS6_IiEEEEE_NS6_ISE_EEFbS9_SD_EEclES9_SD_ @1537
    _ZNSt3__110__function6__funcIZN15UNetModelRunner7computeEiP11ggml_tensorS4_S4_S4_S4_iNS_6vectorIS4_NS_9allocatorIS4_EEEEfPS4_P12ggml_contextEUlvE_NS6_ISC_EEFP11ggml_cgraphvEE18destroy_deallocateEv @1538
    _ZNSt3__110__function6__funcIZN15UNetModelRunner7computeEiP11ggml_tensorS4_S4_S4_S4_iNS_6vectorIS4_NS_9allocatorIS4_EEEEfPS4_P12ggml_contextEUlvE_NS6_ISC_EEFP11ggml_cgraphvEE7destroyEv @1539
    _ZNSt3__110__function6__funcIZN15UNetModelRunner7computeEiP11ggml_tensorS4_S4_S4_S4_iNS_6vectorIS4_NS_9allocatorIS4_EEEEfPS4_P12ggml_contextEUlvE_NS6_ISC_EEFP11ggml_cgraphvEED0Ev @1540
    _ZNSt3__110__function6__funcIZN15UNetModelRunner7computeEiP11ggml_tensorS4_S4_S4_S4_iNS_6vectorIS4_NS_9allocatorIS4_EEEEfPS4_P12ggml_contextEUlvE_NS6_ISC_EEFP11ggml_cgraphvEEclEv @1541
    _ZNSt3__110__function6__funcIZN16FluxCLIPEmbedder8tokenizeENS_12basic_stringIcNS_11char_traitsIcEENS_9allocatorIcEEEEybEUlRS8_RNS_6vectorIiNS6_IiEEEEE_NS6_ISE_EEFbS9_SD_EE18destroy_deallocateEv @1542
    _ZNSt3__110__function6__funcIZN16FluxCLIPEmbedder8tokenizeENS_12basic_stringIcNS_11char_traitsIcEENS_9allocatorIcEEEEybEUlRS8_RNS_6vectorIiNS6_IiEEEEE_NS6_ISE_EEFbS9_SD_EE7destroyEv @1543
    _ZNSt3__110__function6__funcIZN16FluxCLIPEmbedder8tokenizeENS_12basic_stringIcNS_11char_traitsIcEENS_9allocatorIcEEEEybEUlRS8_RNS_6vectorIiNS6_IiEEEEE_NS6_ISE_EEFbS9_SD_EED0Ev @1544
    _ZNSt3__110__function6__funcIZN16FluxCLIPEmbedder8tokenizeENS_12basic_stringIcNS_11char_traitsIcEENS_9allocatorIcEEEEybEUlRS8_RNS_6vectorIiNS6_IiEEEEE_NS6_ISE_EEFbS9_SD_EEclES9_SD_ @1545
    _ZNSt3__110__function6__funcIZN19CLIPTextModelRunner7computeEiP11ggml_tensoriPvybiPS4_P12ggml_contextEUlvE_NS_9allocatorIS9_EEFP11ggml_cgraphvEE18destroy_deallocateEv @1546
    _ZNSt3__110__function6__funcIZN19CLIPTextModelRunner7computeEiP11ggml_tensoriPvybiPS4_P12ggml_contextEUlvE_NS_9allocatorIS9_EEFP11ggml_cgraphvEE7destroyEv @1547
    _ZNSt3__110__function6__funcIZN19CLIPTextModelRunner7computeEiP11ggml_tensoriPvybiPS4_P12ggml_contextEUlvE_NS_9allocatorIS9_EEFP11ggml_cgraphvEED0Ev @1548
    _ZNSt3__110__function6__funcIZN19CLIPTextModelRunner7computeEiP11ggml_tensoriPvybiPS4_P12ggml_contextEUlvE_NS_9allocatorIS9_EEFP11ggml_cgraphvEEclEv @1549
    _ZNSt3__110__function6__funcIZN19PhotoMakerIDEncoder7computeEiP11ggml_tensorS4_S4_RNS_6vectorIbNS_9allocatorIbEEEEPS4_P12ggml_contextEUlvE_NS6_ISD_EEFP11ggml_cgraphvEE18destroy_deallocateEv @1550
    _ZNSt3__110__function6__funcIZN19PhotoMakerIDEncoder7computeEiP11ggml_tensorS4_S4_RNS_6vectorIbNS_9allocatorIbEEEEPS4_P12ggml_contextEUlvE_NS6_ISD_EEFP11ggml_cgraphvEE7destroyEv @1551
    _ZNSt3__110__function6__funcIZN19PhotoMakerIDEncoder7computeEiP11ggml_tensorS4_S4_RNS_6vectorIbNS_9allocatorIbEEEEPS4_P12ggml_contextEUlvE_NS6_ISD_EEFP11ggml_cgraphvEED0Ev @1552
    _ZNSt3__110__function6__funcIZN19PhotoMakerIDEncoder7computeEiP11ggml_tensorS4_S4_RNS_6vectorIbNS_9allocatorIbEEEEPS4_P12ggml_contextEUlvE_NS6_ISD_EEFP11ggml_cgraphvEEclEv @1553
    _ZNSt3__110__function6__funcIZN19StableDiffusionGGML10vae_encodeEP12ggml_contextP11ggml_tensorbEUlS6_S6_bE0_NS_9allocatorIS7_EEFvS6_S6_bEE18destroy_deallocateEv @1554
    _ZNSt3__110__function6__funcIZN19StableDiffusionGGML10vae_encodeEP12ggml_contextP11ggml_tensorbEUlS6_S6_bE0_NS_9allocatorIS7_EEFvS6_S6_bEE7destroyEv @1555
    _ZNSt3__110__function6__funcIZN19StableDiffusionGGML10vae_encodeEP12ggml_contextP11ggml_tensorbEUlS6_S6_bE0_NS_9allocatorIS7_EEFvS6_S6_bEED0Ev @1556
    _ZNSt3__110__function6__funcIZN19StableDiffusionGGML10vae_encodeEP12ggml_contextP11ggml_tensorbEUlS6_S6_bE0_NS_9allocatorIS7_EEFvS6_S6_bEEclEOS6_SC_Ob @1557
    _ZNSt3__110__function6__funcIZN19StableDiffusionGGML10vae_encodeEP12ggml_contextP11ggml_tensorbEUlS6_S6_bE_NS_9allocatorIS7_EEFvS6_S6_bEE18destroy_deallocateEv @1558
    _ZNSt3__110__function6__funcIZN19StableDiffusionGGML10vae_encodeEP12ggml_contextP11ggml_tensorbEUlS6_S6_bE_NS_9allocatorIS7_EEFvS6_S6_bEE7destroyEv @1559
    _ZNSt3__110__function6__funcIZN19StableDiffusionGGML10vae_encodeEP12ggml_contextP11ggml_tensorbEUlS6_S6_bE_NS_9allocatorIS7_EEFvS6_S6_bEED0Ev @1560
    _ZNSt3__110__function6__funcIZN19StableDiffusionGGML10vae_encodeEP12ggml_contextP11ggml_tensorbEUlS6_S6_bE_NS_9allocatorIS7_EEFvS6_S6_bEEclEOS6_SC_Ob @1561
    _ZNSt3__110__function6__funcIZN19StableDiffusionGGML13preview_imageEP12ggml_contextiP11ggml_tensor9SDVersion9preview_tS6_NS_8functionIFviiP10sd_image_tbPvEEESC_bEUlS6_S6_bE0_NS_9allocatorISF_EEFvS6_S6_bEE18destroy_deallocateEv @1562
    _ZNSt3__110__function6__funcIZN19StableDiffusionGGML13preview_imageEP12ggml_contextiP11ggml_tensor9SDVersion9preview_tS6_NS_8functionIFviiP10sd_image_tbPvEEESC_bEUlS6_S6_bE0_NS_9allocatorISF_EEFvS6_S6_bEE7destroyEv @1563
    _ZNSt3__110__function6__funcIZN19StableDiffusionGGML13preview_imageEP12ggml_contextiP11ggml_tensor9SDVersion9preview_tS6_NS_8functionIFviiP10sd_image_tbPvEEESC_bEUlS6_S6_bE0_NS_9allocatorISF_EEFvS6_S6_bEED0Ev @1564
    _ZNSt3__110__function6__funcIZN19StableDiffusionGGML13preview_imageEP12ggml_contextiP11ggml_tensor9SDVersion9preview_tS6_NS_8functionIFviiP10sd_image_tbPvEEESC_bEUlS6_S6_bE0_NS_9allocatorISF_EEFvS6_S6_bEEclEOS6_SK_Ob @1565
    _ZNSt3__110__function6__funcIZN19StableDiffusionGGML13preview_imageEP12ggml_contextiP11ggml_tensor9SDVersion9preview_tS6_NS_8functionIFviiP10sd_image_tbPvEEESC_bEUlS6_S6_bE_NS_9allocatorISF_EEFvS6_S6_bEE18destroy_deallocateEv @1566
    _ZNSt3__110__function6__funcIZN19StableDiffusionGGML13preview_imageEP12ggml_contextiP11ggml_tensor9SDVersion9preview_tS6_NS_8functionIFviiP10sd_image_tbPvEEESC_bEUlS6_S6_bE_NS_9allocatorISF_EEFvS6_S6_bEE7destroyEv @1567
    _ZNSt3__110__function6__funcIZN19StableDiffusionGGML13preview_imageEP12ggml_contextiP11ggml_tensor9SDVersion9preview_tS6_NS_8functionIFviiP10sd_image_tbPvEEESC_bEUlS6_S6_bE_NS_9allocatorISF_EEFvS6_S6_bEED0Ev @1568
    _ZNSt3__110__function6__funcIZN19StableDiffusionGGML13preview_imageEP12ggml_contextiP11ggml_tensor9SDVersion9preview_tS6_NS_8functionIFviiP10sd_image_tbPvEEESC_bEUlS6_S6_bE_NS_9allocatorISF_EEFvS6_S6_bEEclEOS6_SK_Ob @1569
    _ZNSt3__110__function6__funcIZN19StableDiffusionGGML17get_pmid_conditonEP12ggml_context14sd_pm_params_tR17ConditionerParamsEUlP11ggml_tensorxxxxE_NS_9allocatorISA_EEFvS9_xxxxEE18destroy_deallocateEv @1570
    _ZNSt3__110__function6__funcIZN19StableDiffusionGGML17get_pmid_conditonEP12ggml_context14sd_pm_params_tR17ConditionerParamsEUlP11ggml_tensorxxxxE_NS_9allocatorISA_EEFvS9_xxxxEE7destroyEv @1571
    _ZNSt3__110__function6__funcIZN19StableDiffusionGGML17get_pmid_conditonEP12ggml_context14sd_pm_params_tR17ConditionerParamsEUlP11ggml_tensorxxxxE_NS_9allocatorISA_EEFvS9_xxxxEED0Ev @1572
    _ZNSt3__110__function6__funcIZN19StableDiffusionGGML17get_pmid_conditonEP12ggml_context14sd_pm_params_tR17ConditionerParamsEUlP11ggml_tensorxxxxE_NS_9allocatorISA_EEFvS9_xxxxEEclEOS9_OxSG_SG_SG_ @1573
    _ZNSt3__110__function6__funcIZN19StableDiffusionGGML17process_latent_inEP11ggml_tensorEUlS4_xxxxE_NS_9allocatorIS5_EEFvS4_xxxxEE18destroy_deallocateEv @1574
    _ZNSt3__110__function6__funcIZN19StableDiffusionGGML17process_latent_inEP11ggml_tensorEUlS4_xxxxE_NS_9allocatorIS5_EEFvS4_xxxxEE7destroyEv @1575
    _ZNSt3__110__function6__funcIZN19StableDiffusionGGML17process_latent_inEP11ggml_tensorEUlS4_xxxxE_NS_9allocatorIS5_EEFvS4_xxxxEED0Ev @1576
    _ZNSt3__110__function6__funcIZN19StableDiffusionGGML17process_latent_inEP11ggml_tensorEUlS4_xxxxE_NS_9allocatorIS5_EEFvS4_xxxxEEclEOS4_OxSB_SB_SB_ @1577
    _ZNSt3__110__function6__funcIZN19StableDiffusionGGML18decode_first_stageEP12ggml_contextP11ggml_tensorbEUlS6_S6_bE0_NS_9allocatorIS7_EEFvS6_S6_bEE18destroy_deallocateEv @1578
    _ZNSt3__110__function6__funcIZN19StableDiffusionGGML18decode_first_stageEP12ggml_contextP11ggml_tensorbEUlS6_S6_bE0_NS_9allocatorIS7_EEFvS6_S6_bEE7destroyEv @1579
    _ZNSt3__110__function6__funcIZN19StableDiffusionGGML18decode_first_stageEP12ggml_contextP11ggml_tensorbEUlS6_S6_bE0_NS_9allocatorIS7_EEFvS6_S6_bEED0Ev @1580
    _ZNSt3__110__function6__funcIZN19StableDiffusionGGML18decode_first_stageEP12ggml_contextP11ggml_tensorbEUlS6_S6_bE0_NS_9allocatorIS7_EEFvS6_S6_bEEclEOS6_SC_Ob @1581
    _ZNSt3__110__function6__funcIZN19StableDiffusionGGML18decode_first_stageEP12ggml_contextP11ggml_tensorbEUlS6_S6_bE_NS_9allocatorIS7_EEFvS6_S6_bEE18destroy_deallocateEv @1582
    _ZNSt3__110__function6__funcIZN19StableDiffusionGGML18decode_first_stageEP12ggml_contextP11ggml_tensorbEUlS6_S6_bE_NS_9allocatorIS7_EEFvS6_S6_bEE7destroyEv @1583
    _ZNSt3__110__function6__funcIZN19StableDiffusionGGML18decode_first_stageEP12ggml_contextP11ggml_tensorbEUlS6_S6_bE_NS_9allocatorIS7_EEFvS6_S6_bEED0Ev @1584
    _ZNSt3__110__function6__funcIZN19StableDiffusionGGML18decode_first_stageEP12ggml_contextP11ggml_tensorbEUlS6_S6_bE_NS_9allocatorIS7_EEFvS6_S6_bEEclEOS6_SC_Ob @1585
    _ZNSt3__110__function6__funcIZN19StableDiffusionGGML18process_latent_outEP11ggml_tensorEUlS4_xxxxE_NS_9allocatorIS5_EEFvS4_xxxxEE18destroy_deallocateEv @1586
    _ZNSt3__110__function6__funcIZN19StableDiffusionGGML18process_latent_outEP11ggml_tensorEUlS4_xxxxE_NS_9allocatorIS5_EEFvS4_xxxxEE7destroyEv @1587
    _ZNSt3__110__function6__funcIZN19StableDiffusionGGML18process_latent_outEP11ggml_tensorEUlS4_xxxxE_NS_9allocatorIS5_EEFvS4_xxxxEED0Ev @1588
    _ZNSt3__110__function6__funcIZN19StableDiffusionGGML18process_latent_outEP11ggml_tensorEUlS4_xxxxE_NS_9allocatorIS5_EEFvS4_xxxxEEclEOS4_OxSB_SB_SB_ @1589
    _ZNSt3__110__function6__funcIZN19StableDiffusionGGML22apply_loras_at_runtimeERKNS_13unordered_mapINS_12basic_stringIcNS_11char_traitsIcEENS_9allocatorIcEEEEfNS_4hashIS9_EENS_8equal_toIS9_EENS7_INS_4pairIKS9_fEEEEEEEUlRSF_E0_NS7_ISM_EEFb @1590
    _ZNSt3__110__function6__funcIZN19StableDiffusionGGML22apply_loras_at_runtimeERKNS_13unordered_mapINS_12basic_stringIcNS_11char_traitsIcEENS_9allocatorIcEEEEfNS_4hashIS9_EENS_8equal_toIS9_EENS7_INS_4pairIKS9_fEEEEEEEUlRSF_E0_NS7_ISM_EEFb @1591
    _ZNSt3__110__function6__funcIZN19StableDiffusionGGML22apply_loras_at_runtimeERKNS_13unordered_mapINS_12basic_stringIcNS_11char_traitsIcEENS_9allocatorIcEEEEfNS_4hashIS9_EENS_8equal_toIS9_EENS7_INS_4pairIKS9_fEEEEEEEUlRSF_E0_NS7_ISM_EEFb @1592
    _ZNSt3__110__function6__funcIZN19StableDiffusionGGML22apply_loras_at_runtimeERKNS_13unordered_mapINS_12basic_stringIcNS_11char_traitsIcEENS_9allocatorIcEEEEfNS_4hashIS9_EENS_8equal_toIS9_EENS7_INS_4pairIKS9_fEEEEEEEUlRSF_E0_NS7_ISM_EEFb @1593
    _ZNSt3__110__function6__funcIZN19StableDiffusionGGML22apply_loras_at_runtimeERKNS_13unordered_mapINS_12basic_stringIcNS_11char_traitsIcEENS_9allocatorIcEEEEfNS_4hashIS9_EENS_8equal_toIS9_EENS7_INS_4pairIKS9_fEEEEEEEUlRSF_E1_NS7_ISM_EEFb @1594
    _ZNSt3__110__function6__funcIZN19StableDiffusionGGML22apply_loras_at_runtimeERKNS_13unordered_mapINS_12basic_stringIcNS_11char_traitsIcEENS_9allocatorIcEEEEfNS_4hashIS9_EENS_8equal_toIS9_EENS7_INS_4pairIKS9_fEEEEEEEUlRSF_E1_NS7_ISM_EEFb @1595
    _ZNSt3__110__function6__funcIZN19StableDiffusionGGML22apply_loras_at_runtimeERKNS_13unordered_mapINS_12basic_stringIcNS_11char_traitsIcEENS_9allocatorIcEEEEfNS_4hashIS9_EENS_8equal_toIS9_EENS7_INS_4pairIKS9_fEEEEEEEUlRSF_E1_NS7_ISM_EEFb @1596
    _ZNSt3__110__function6__funcIZN19StableDiffusionGGML22apply_loras_at_runtimeERKNS_13unordered_mapINS_12basic_stringIcNS_11char_traitsIcEENS_9allocatorIcEEEEfNS_4hashIS9_EENS_8equal_toIS9_EENS7_INS_4pairIKS9_fEEEEEEEUlRSF_E1_NS7_ISM_EEFb @1597
    _ZNSt3__110__function6__funcIZN19StableDiffusionGGML22apply_loras_at_runtimeERKNS_13unordered_mapINS_12basic_stringIcNS_11char_traitsIcEENS_9allocatorIcEEEEfNS_4hashIS9_EENS_8equal_toIS9_EENS7_INS_4pairIKS9_fEEEEEEEUlRSF_E_NS7_ISM_EEFbS @1598
    _ZNSt3__110__function6__funcIZN19StableDiffusionGGML22apply_loras_at_runtimeERKNS_13unordered_mapINS_12basic_stringIcNS_11char_traitsIcEENS_9allocatorIcEEEEfNS_4hashIS9_EENS_8equal_toIS9_EENS7_INS_4pairIKS9_fEEEEEEEUlRSF_E_NS7_ISM_EEFbS @1599
    _ZNSt3__110__function6__funcIZN19StableDiffusionGGML22apply_loras_at_runtimeERKNS_13unordered_mapINS_12basic_stringIcNS_11char_traitsIcEENS_9allocatorIcEEEEfNS_4hashIS9_EENS_8equal_toIS9_EENS7_INS_4pairIKS9_fEEEEEEEUlRSF_E_NS7_ISM_EEFbS @1600
    _ZNSt3__110__function6__funcIZN19StableDiffusionGGML22apply_loras_at_runtimeERKNS_13unordered_mapINS_12basic_stringIcNS_11char_traitsIcEENS_9allocatorIcEEEEfNS_4hashIS9_EENS_8equal_toIS9_EENS7_INS_4pairIKS9_fEEEEEEEUlRSF_E_NS7_ISM_EEFbS @1601
    _ZNSt3__110__function6__funcIZN19StableDiffusionGGML4initEPK15sd_ctx_params_tEUlRKNS_12basic_stringIcNS_11char_traitsIcEENS_9allocatorIcEEEEE_NS9_ISE_EEFbSD_EE18destroy_deallocateEv @1602
    _ZNSt3__110__function6__funcIZN19StableDiffusionGGML4initEPK15sd_ctx_params_tEUlRKNS_12basic_stringIcNS_11char_traitsIcEENS_9allocatorIcEEEEE_NS9_ISE_EEFbSD_EE7destroyEv @1603
    _ZNSt3__110__function6__funcIZN19StableDiffusionGGML4initEPK15sd_ctx_params_tEUlRKNS_12basic_stringIcNS_11char_traitsIcEENS_9allocatorIcEEEEE_NS9_ISE_EEFbSD_EED0Ev @1604
    _ZNSt3__110__function6__funcIZN19StableDiffusionGGML4initEPK15sd_ctx_params_tEUlRKNS_12basic_stringIcNS_11char_traitsIcEENS_9allocatorIcEEEEE_NS9_ISE_EEFbSD_EEclESD_ @1605
    _ZNSt3__110__function6__funcIZN19StableDiffusionGGML6sampleEP12ggml_contextNS_10shared_ptrI14DiffusionModelEEbP11ggml_tensorS9_11SDConditionSA_SA_S9_f20sd_guidance_params_tfi15sample_method_tRKNS_6vectorIfNS_9allocatorIfEEEEiSA_NSD_IS9_ @1606
    _ZNSt3__110__function6__funcIZN19StableDiffusionGGML6sampleEP12ggml_contextNS_10shared_ptrI14DiffusionModelEEbP11ggml_tensorS9_11SDConditionSA_SA_S9_f20sd_guidance_params_tfi15sample_method_tRKNS_6vectorIfNS_9allocatorIfEEEEiSA_NSD_IS9_ @1607
    _ZNSt3__110__function6__funcIZN19StableDiffusionGGML6sampleEP12ggml_contextNS_10shared_ptrI14DiffusionModelEEbP11ggml_tensorS9_11SDConditionSA_SA_S9_f20sd_guidance_params_tfi15sample_method_tRKNS_6vectorIfNS_9allocatorIfEEEEiSA_NSD_IS9_ @1608
    _ZNSt3__110__function6__funcIZN19StableDiffusionGGML6sampleEP12ggml_contextNS_10shared_ptrI14DiffusionModelEEbP11ggml_tensorS9_11SDConditionSA_SA_S9_f20sd_guidance_params_tfi15sample_method_tRKNS_6vectorIfNS_9allocatorIfEEEEiSA_NSD_IS9_ @1609
    _ZNSt3__110__function6__funcIZN20TinyImageAutoEncoder7computeEiP11ggml_tensorbPS4_P12ggml_contextEUlvE_NS_9allocatorIS8_EEFP11ggml_cgraphvEE18destroy_deallocateEv @1610
    _ZNSt3__110__function6__funcIZN20TinyImageAutoEncoder7computeEiP11ggml_tensorbPS4_P12ggml_contextEUlvE_NS_9allocatorIS8_EEFP11ggml_cgraphvEE7destroyEv @1611
    _ZNSt3__110__function6__funcIZN20TinyImageAutoEncoder7computeEiP11ggml_tensorbPS4_P12ggml_contextEUlvE_NS_9allocatorIS8_EEFP11ggml_cgraphvEED0Ev @1612
    _ZNSt3__110__function6__funcIZN20TinyImageAutoEncoder7computeEiP11ggml_tensorbPS4_P12ggml_contextEUlvE_NS_9allocatorIS8_EEFP11ggml_cgraphvEEclEv @1613
    _ZNSt3__110__function6__funcIZN20TinyVideoAutoEncoder7computeEiP11ggml_tensorbPS4_P12ggml_contextEUlvE_NS_9allocatorIS8_EEFP11ggml_cgraphvEE18destroy_deallocateEv @1614
    _ZNSt3__110__function6__funcIZN20TinyVideoAutoEncoder7computeEiP11ggml_tensorbPS4_P12ggml_contextEUlvE_NS_9allocatorIS8_EEFP11ggml_cgraphvEE7destroyEv @1615
    _ZNSt3__110__function6__funcIZN20TinyVideoAutoEncoder7computeEiP11ggml_tensorbPS4_P12ggml_contextEUlvE_NS_9allocatorIS8_EEFP11ggml_cgraphvEED0Ev @1616
    _ZNSt3__110__function6__funcIZN20TinyVideoAutoEncoder7computeEiP11ggml_tensorbPS4_P12ggml_contextEUlvE_NS_9allocatorIS8_EEFP11ggml_cgraphvEEclEv @1617
    _ZNSt3__110__function6__funcIZN24FrozenCLIPVisionEmbedder7computeEiP11ggml_tensorbiPS4_P12ggml_contextEUlvE_NS_9allocatorIS8_EEFP11ggml_cgraphvEE18destroy_deallocateEv @1618
    _ZNSt3__110__function6__funcIZN24FrozenCLIPVisionEmbedder7computeEiP11ggml_tensorbiPS4_P12ggml_contextEUlvE_NS_9allocatorIS8_EEFP11ggml_cgraphvEE7destroyEv @1619
    _ZNSt3__110__function6__funcIZN24FrozenCLIPVisionEmbedder7computeEiP11ggml_tensorbiPS4_P12ggml_contextEUlvE_NS_9allocatorIS8_EEFP11ggml_cgraphvEED0Ev @1620
    _ZNSt3__110__function6__funcIZN24FrozenCLIPVisionEmbedder7computeEiP11ggml_tensorbiPS4_P12ggml_contextEUlvE_NS_9allocatorIS8_EEFP11ggml_cgraphvEEclEv @1621
    _ZNSt3__110__function6__funcIZN33FrozenCLIPEmbedderWithCustomWords14load_embeddingENS_12basic_stringIcNS_11char_traitsIcEENS_9allocatorIcEEEES8_RNS_6vectorIiNS6_IiEEEEEUlRK13TensorStoragePP11ggml_tensorE_NS6_ISJ_EEFbSF_SI_EE18destroy_de @1622
    _ZNSt3__110__function6__funcIZN33FrozenCLIPEmbedderWithCustomWords14load_embeddingENS_12basic_stringIcNS_11char_traitsIcEENS_9allocatorIcEEEES8_RNS_6vectorIiNS6_IiEEEEEUlRK13TensorStoragePP11ggml_tensorE_NS6_ISJ_EEFbSF_SI_EE7destroyEv @1623
    _ZNSt3__110__function6__funcIZN33FrozenCLIPEmbedderWithCustomWords14load_embeddingENS_12basic_stringIcNS_11char_traitsIcEENS_9allocatorIcEEEES8_RNS_6vectorIiNS6_IiEEEEEUlRK13TensorStoragePP11ggml_tensorE_NS6_ISJ_EEFbSF_SI_EED0Ev @1624
    _ZNSt3__110__function6__funcIZN33FrozenCLIPEmbedderWithCustomWords14load_embeddingENS_12basic_stringIcNS_11char_traitsIcEENS_9allocatorIcEEEES8_RNS_6vectorIiNS6_IiEEEEEUlRK13TensorStoragePP11ggml_tensorE_NS6_ISJ_EEFbSF_SI_EEclESF_OSI_ @1625
    _ZNSt3__110__function6__funcIZN33FrozenCLIPEmbedderWithCustomWords19convert_token_to_idENS_12basic_stringIcNS_11char_traitsIcEENS_9allocatorIcEEEEEUlRS8_RNS_6vectorIiNS6_IiEEEEE_NS6_ISE_EEFbS9_SD_EE18destroy_deallocateEv @1626
    _ZNSt3__110__function6__funcIZN33FrozenCLIPEmbedderWithCustomWords19convert_token_to_idENS_12basic_stringIcNS_11char_traitsIcEENS_9allocatorIcEEEEEUlRS8_RNS_6vectorIiNS6_IiEEEEE_NS6_ISE_EEFbS9_SD_EE7destroyEv @1627
    _ZNSt3__110__function6__funcIZN33FrozenCLIPEmbedderWithCustomWords19convert_token_to_idENS_12basic_stringIcNS_11char_traitsIcEENS_9allocatorIcEEEEEUlRS8_RNS_6vectorIiNS6_IiEEEEE_NS6_ISE_EEFbS9_SD_EED0Ev @1628
    _ZNSt3__110__function6__funcIZN33FrozenCLIPEmbedderWithCustomWords19convert_token_to_idENS_12basic_stringIcNS_11char_traitsIcEENS_9allocatorIcEEEEEUlRS8_RNS_6vectorIiNS6_IiEEEEE_NS6_ISE_EEFbS9_SD_EEclES9_SD_ @1629
    _ZNSt3__110__function6__funcIZN33FrozenCLIPEmbedderWithCustomWords27tokenize_with_trigger_tokenENS_12basic_stringIcNS_11char_traitsIcEENS_9allocatorIcEEEEiiybEUlRS8_RNS_6vectorIiNS6_IiEEEEE_NS6_ISE_EEFbS9_SD_EE18destroy_deallocateEv @1630
    _ZNSt3__110__function6__funcIZN33FrozenCLIPEmbedderWithCustomWords27tokenize_with_trigger_tokenENS_12basic_stringIcNS_11char_traitsIcEENS_9allocatorIcEEEEiiybEUlRS8_RNS_6vectorIiNS6_IiEEEEE_NS6_ISE_EEFbS9_SD_EE7destroyEv @1631
    _ZNSt3__110__function6__funcIZN33FrozenCLIPEmbedderWithCustomWords27tokenize_with_trigger_tokenENS_12basic_stringIcNS_11char_traitsIcEENS_9allocatorIcEEEEiiybEUlRS8_RNS_6vectorIiNS6_IiEEEEE_NS6_ISE_EEFbS9_SD_EED0Ev @1632
    _ZNSt3__110__function6__funcIZN33FrozenCLIPEmbedderWithCustomWords27tokenize_with_trigger_tokenENS_12basic_stringIcNS_11char_traitsIcEENS_9allocatorIcEEEEiiybEUlRS8_RNS_6vectorIiNS6_IiEEEEE_NS6_ISE_EEFbS9_SD_EEclES9_SD_ @1633
    _ZNSt3__110__function6__funcIZN33FrozenCLIPEmbedderWithCustomWords8tokenizeENS_12basic_stringIcNS_11char_traitsIcEENS_9allocatorIcEEEEybEUlRS8_RNS_6vectorIiNS6_IiEEEEE_NS6_ISE_EEFbS9_SD_EE18destroy_deallocateEv @1634
    _ZNSt3__110__function6__funcIZN33FrozenCLIPEmbedderWithCustomWords8tokenizeENS_12basic_stringIcNS_11char_traitsIcEENS_9allocatorIcEEEEybEUlRS8_RNS_6vectorIiNS6_IiEEEEE_NS6_ISE_EEFbS9_SD_EE7destroyEv @1635
    _ZNSt3__110__function6__funcIZN33FrozenCLIPEmbedderWithCustomWords8tokenizeENS_12basic_stringIcNS_11char_traitsIcEENS_9allocatorIcEEEEybEUlRS8_RNS_6vectorIiNS6_IiEEEEE_NS6_ISE_EEFbS9_SD_EED0Ev @1636
    _ZNSt3__110__function6__funcIZN33FrozenCLIPEmbedderWithCustomWords8tokenizeENS_12basic_stringIcNS_11char_traitsIcEENS_9allocatorIcEEEEybEUlRS8_RNS_6vectorIiNS6_IiEEEEE_NS6_ISE_EEFbS9_SD_EEclES9_SD_ @1637
    _ZNSt3__110__function6__funcIZN3LLM9LLMRunner12encode_imageEiP11ggml_tensorPS5_P12ggml_contextEUlvE_NS_9allocatorIS9_EEFP11ggml_cgraphvEE18destroy_deallocateEv @1638
    _ZNSt3__110__function6__funcIZN3LLM9LLMRunner12encode_imageEiP11ggml_tensorPS5_P12ggml_contextEUlvE_NS_9allocatorIS9_EEFP11ggml_cgraphvEE7destroyEv @1639
    _ZNSt3__110__function6__funcIZN3LLM9LLMRunner12encode_imageEiP11ggml_tensorPS5_P12ggml_contextEUlvE_NS_9allocatorIS9_EEFP11ggml_cgraphvEED0Ev @1640
    _ZNSt3__110__function6__funcIZN3LLM9LLMRunner12encode_imageEiP11ggml_tensorPS5_P12ggml_contextEUlvE_NS_9allocatorIS9_EEFP11ggml_cgraphvEEclEv @1641
    _ZNSt3__110__function6__funcIZN3LLM9LLMRunner7computeEiP11ggml_tensorS5_NS_6vectorINS_4pairIiS5_EENS_9allocatorIS8_EEEENS_3setIiNS_4lessIiEENS9_IiEEEEPS5_P12ggml_contextEUlvE_NS9_ISK_EEFP11ggml_cgraphvEE18destroy_deallocateEv @1642
    _ZNSt3__110__function6__funcIZN3LLM9LLMRunner7computeEiP11ggml_tensorS5_NS_6vectorINS_4pairIiS5_EENS_9allocatorIS8_EEEENS_3setIiNS_4lessIiEENS9_IiEEEEPS5_P12ggml_contextEUlvE_NS9_ISK_EEFP11ggml_cgraphvEE7destroyEv @1643
    _ZNSt3__110__function6__funcIZN3LLM9LLMRunner7computeEiP11ggml_tensorS5_NS_6vectorINS_4pairIiS5_EENS_9allocatorIS8_EEEENS_3setIiNS_4lessIiEENS9_IiEEEEPS5_P12ggml_contextEUlvE_NS9_ISK_EEFP11ggml_cgraphvEED0Ev @1644
    _ZNSt3__110__function6__funcIZN3LLM9LLMRunner7computeEiP11ggml_tensorS5_NS_6vectorINS_4pairIiS5_EENS_9allocatorIS8_EEEENS_3setIiNS_4lessIiEENS9_IiEEEEPS5_P12ggml_contextEUlvE_NS9_ISK_EEFP11ggml_cgraphvEEclEv @1645
    _ZNSt3__110__function6__funcIZN3WAN12WanVAERunner7computeEiP11ggml_tensorbPS5_P12ggml_contextEUlvE_NS_9allocatorIS9_EEFP11ggml_cgraphvEE18destroy_deallocateEv @1646
    _ZNSt3__110__function6__funcIZN3WAN12WanVAERunner7computeEiP11ggml_tensorbPS5_P12ggml_contextEUlvE_NS_9allocatorIS9_EEFP11ggml_cgraphvEE7destroyEv @1647
    _ZNSt3__110__function6__funcIZN3WAN12WanVAERunner7computeEiP11ggml_tensorbPS5_P12ggml_contextEUlvE_NS_9allocatorIS9_EEFP11ggml_cgraphvEED0Ev @1648
    _ZNSt3__110__function6__funcIZN3WAN12WanVAERunner7computeEiP11ggml_tensorbPS5_P12ggml_contextEUlvE_NS_9allocatorIS9_EEFP11ggml_cgraphvEEclEv @1649
    _ZNSt3__110__function6__funcIZN3WAN9WanRunner7computeEiP11ggml_tensorS5_S5_S5_S5_S5_S5_fPS5_P12ggml_contextEUlvE_NS_9allocatorIS9_EEFP11ggml_cgraphvEE18destroy_deallocateEv @1650
    _ZNSt3__110__function6__funcIZN3WAN9WanRunner7computeEiP11ggml_tensorS5_S5_S5_S5_S5_S5_fPS5_P12ggml_contextEUlvE_NS_9allocatorIS9_EEFP11ggml_cgraphvEE7destroyEv @1651
    _ZNSt3__110__function6__funcIZN3WAN9WanRunner7computeEiP11ggml_tensorS5_S5_S5_S5_S5_S5_fPS5_P12ggml_contextEUlvE_NS_9allocatorIS9_EEFP11ggml_cgraphvEED0Ev @1652
    _ZNSt3__110__function6__funcIZN3WAN9WanRunner7computeEiP11ggml_tensorS5_S5_S5_S5_S5_S5_fPS5_P12ggml_contextEUlvE_NS_9allocatorIS9_EEFP11ggml_cgraphvEEclEv @1653
    _ZNSt3__110__function6__funcIZN4Flux10FluxRunner7computeEiP11ggml_tensorS5_S5_S5_S5_S5_NS_6vectorIS5_NS_9allocatorIS5_EEEEbPS5_P12ggml_contextNS6_IiNS7_IiEEEEEUlvE_NS7_ISF_EEFP11ggml_cgraphvEE18destroy_deallocateEv @1654
    _ZNSt3__110__function6__funcIZN4Flux10FluxRunner7computeEiP11ggml_tensorS5_S5_S5_S5_S5_NS_6vectorIS5_NS_9allocatorIS5_EEEEbPS5_P12ggml_contextNS6_IiNS7_IiEEEEEUlvE_NS7_ISF_EEFP11ggml_cgraphvEE7destroyEv @1655
    _ZNSt3__110__function6__funcIZN4Flux10FluxRunner7computeEiP11ggml_tensorS5_S5_S5_S5_S5_NS_6vectorIS5_NS_9allocatorIS5_EEEEbPS5_P12ggml_contextNS6_IiNS7_IiEEEEEUlvE_NS7_ISF_EEFP11ggml_cgraphvEED0Ev @1656
    _ZNSt3__110__function6__funcIZN4Flux10FluxRunner7computeEiP11ggml_tensorS5_S5_S5_S5_S5_NS_6vectorIS5_NS_9allocatorIS5_EEEEbPS5_P12ggml_contextNS6_IiNS7_IiEEEEEUlvE_NS7_ISF_EEFP11ggml_cgraphvEEclEv @1657
    _ZNSt3__110__function6__funcIZN4Qwen15QwenImageRunner7computeEiP11ggml_tensorS5_S5_NS_6vectorIS5_NS_9allocatorIS5_EEEEbPS5_P12ggml_contextEUlvE_NS7_ISD_EEFP11ggml_cgraphvEE18destroy_deallocateEv @1658
    _ZNSt3__110__function6__funcIZN4Qwen15QwenImageRunner7computeEiP11ggml_tensorS5_S5_NS_6vectorIS5_NS_9allocatorIS5_EEEEbPS5_P12ggml_contextEUlvE_NS7_ISD_EEFP11ggml_cgraphvEE7destroyEv @1659
    _ZNSt3__110__function6__funcIZN4Qwen15QwenImageRunner7computeEiP11ggml_tensorS5_S5_NS_6vectorIS5_NS_9allocatorIS5_EEEEbPS5_P12ggml_contextEUlvE_NS7_ISD_EEFP11ggml_cgraphvEED0Ev @1660
    _ZNSt3__110__function6__funcIZN4Qwen15QwenImageRunner7computeEiP11ggml_tensorS5_S5_NS_6vectorIS5_NS_9allocatorIS5_EEEEbPS5_P12ggml_contextEUlvE_NS7_ISD_EEFP11ggml_cgraphvEEclEv @1661
    _ZNSt3__110__function6__funcIZN6ESRGAN7computeEiP11ggml_tensorPS4_P12ggml_contextEUlvE_NS_9allocatorIS8_EEFP11ggml_cgraphvEE18destroy_deallocateEv @1662
    _ZNSt3__110__function6__funcIZN6ESRGAN7computeEiP11ggml_tensorPS4_P12ggml_contextEUlvE_NS_9allocatorIS8_EEFP11ggml_cgraphvEE7destroyEv @1663
    _ZNSt3__110__function6__funcIZN6ESRGAN7computeEiP11ggml_tensorPS4_P12ggml_contextEUlvE_NS_9allocatorIS8_EEFP11ggml_cgraphvEED0Ev @1664
    _ZNSt3__110__function6__funcIZN6ESRGAN7computeEiP11ggml_tensorPS4_P12ggml_contextEUlvE_NS_9allocatorIS8_EEFP11ggml_cgraphvEEclEv @1665
    _ZNSt3__110__function6__funcIZN6ZImage12ZImageRunner7computeEiP11ggml_tensorS5_S5_NS_6vectorIS5_NS_9allocatorIS5_EEEEbPS5_P12ggml_contextEUlvE_NS7_ISD_EEFP11ggml_cgraphvEE18destroy_deallocateEv @1666
    _ZNSt3__110__function6__funcIZN6ZImage12ZImageRunner7computeEiP11ggml_tensorS5_S5_NS_6vectorIS5_NS_9allocatorIS5_EEEEbPS5_P12ggml_contextEUlvE_NS7_ISD_EEFP11ggml_cgraphvEE7destroyEv @1667
    _ZNSt3__110__function6__funcIZN6ZImage12ZImageRunner7computeEiP11ggml_tensorS5_S5_NS_6vectorIS5_NS_9allocatorIS5_EEEEbPS5_P12ggml_contextEUlvE_NS7_ISD_EEFP11ggml_cgraphvEED0Ev @1668
    _ZNSt3__110__function6__funcIZN6ZImage12ZImageRunner7computeEiP11ggml_tensorS5_S5_NS_6vectorIS5_NS_9allocatorIS5_EEEEbPS5_P12ggml_contextEUlvE_NS7_ISD_EEFP11ggml_cgraphvEEclEv @1669
    _ZNSt3__110__function6__funcIZN7FakeVAE7computeEiP11ggml_tensorbPS4_P12ggml_contextEUlS4_xxxxE_NS_9allocatorIS8_EEFvS4_xxxxEE18destroy_deallocateEv @1670
    _ZNSt3__110__function6__funcIZN7FakeVAE7computeEiP11ggml_tensorbPS4_P12ggml_contextEUlS4_xxxxE_NS_9allocatorIS8_EEFvS4_xxxxEE7destroyEv @1671
    _ZNSt3__110__function6__funcIZN7FakeVAE7computeEiP11ggml_tensorbPS4_P12ggml_contextEUlS4_xxxxE_NS_9allocatorIS8_EEFvS4_xxxxEED0Ev @1672
    _ZNSt3__110__function6__funcIZN7FakeVAE7computeEiP11ggml_tensorbPS4_P12ggml_contextEUlS4_xxxxE_NS_9allocatorIS8_EEFvS4_xxxxEEclEOS4_OxSE_SE_SE_ @1673
    _ZNSt3__110__function6__funcIZN8T5Runner7computeEiP11ggml_tensorS4_PS4_P12ggml_contextEUlvE_NS_9allocatorIS8_EEFP11ggml_cgraphvEE18destroy_deallocateEv @1674
    _ZNSt3__110__function6__funcIZN8T5Runner7computeEiP11ggml_tensorS4_PS4_P12ggml_contextEUlvE_NS_9allocatorIS8_EEFP11ggml_cgraphvEE7destroyEv @1675
    _ZNSt3__110__function6__funcIZN8T5Runner7computeEiP11ggml_tensorS4_PS4_P12ggml_contextEUlvE_NS_9allocatorIS8_EEFP11ggml_cgraphvEED0Ev @1676
    _ZNSt3__110__function6__funcIZN8T5Runner7computeEiP11ggml_tensorS4_PS4_P12ggml_contextEUlvE_NS_9allocatorIS8_EEFP11ggml_cgraphvEEclEv @1677
    _ZNSt3__110__function6__funcIZN9LoraModel14load_from_fileEiNS_8functionIFbRKNS_12basic_stringIcNS_11char_traitsIcEENS_9allocatorIcEEEEEEEEUlRK13TensorStoragePP11ggml_tensorE_NS7_ISK_EEFbSG_SJ_EE18destroy_deallocateEv @1678
    _ZNSt3__110__function6__funcIZN9LoraModel14load_from_fileEiNS_8functionIFbRKNS_12basic_stringIcNS_11char_traitsIcEENS_9allocatorIcEEEEEEEEUlRK13TensorStoragePP11ggml_tensorE_NS7_ISK_EEFbSG_SJ_EE7destroyEv @1679
    _ZNSt3__110__function6__funcIZN9LoraModel14load_from_fileEiNS_8functionIFbRKNS_12basic_stringIcNS_11char_traitsIcEENS_9allocatorIcEEEEEEEEUlRK13TensorStoragePP11ggml_tensorE_NS7_ISK_EEFbSG_SJ_EED0Ev @1680
    _ZNSt3__110__function6__funcIZN9LoraModel14load_from_fileEiNS_8functionIFbRKNS_12basic_stringIcNS_11char_traitsIcEENS_9allocatorIcEEEEEEEEUlRK13TensorStoragePP11ggml_tensorE_NS7_ISK_EEFbSG_SJ_EEclESG_OSJ_ @1681
    _ZNSt3__110__function6__funcIZN9LoraModel5applyENS_3mapINS_12basic_stringIcNS_11char_traitsIcEENS_9allocatorIcEEEEP11ggml_tensorNS_4lessIS9_EENS7_INS_4pairIKS9_SB_EEEEEE9SDVersioniEUlvE_NS7_ISK_EEFP11ggml_cgraphvEE18destroy_deallocateEv @1682
    _ZNSt3__110__function6__funcIZN9LoraModel5applyENS_3mapINS_12basic_stringIcNS_11char_traitsIcEENS_9allocatorIcEEEEP11ggml_tensorNS_4lessIS9_EENS7_INS_4pairIKS9_SB_EEEEEE9SDVersioniEUlvE_NS7_ISK_EEFP11ggml_cgraphvEE7destroyEv @1683
    _ZNSt3__110__function6__funcIZN9LoraModel5applyENS_3mapINS_12basic_stringIcNS_11char_traitsIcEENS_9allocatorIcEEEEP11ggml_tensorNS_4lessIS9_EENS7_INS_4pairIKS9_SB_EEEEEE9SDVersioniEUlvE_NS7_ISK_EEFP11ggml_cgraphvEED0Ev @1684
    _ZNSt3__110__function6__funcIZN9LoraModel5applyENS_3mapINS_12basic_stringIcNS_11char_traitsIcEENS_9allocatorIcEEEEP11ggml_tensorNS_4lessIS9_EENS7_INS_4pairIKS9_SB_EEEEEE9SDVersioniEUlvE_NS7_ISK_EEFP11ggml_cgraphvEEclEv @1685
    _ZNSt3__110__pop_heapB8ne200100INS_17_ClassicAlgPolicyENS_6__lessIvvEEPNS_4pairINS_12basic_stringIcNS_11char_traitsIcEENS_9allocatorIcEEEEiEEEEvT1_SD_RT0_NS_15iterator_traitsISD_E15difference_typeE @1686
    _ZNSt3__110shared_ptrI10ControlNetED2B8ne200100Ev @1687
    _ZNSt3__110shared_ptrI10FinalLayerED2B8ne200100Ev @1688
    _ZNSt3__110shared_ptrI10FuseModuleED2B8ne200100Ev @1689
    _ZNSt3__110shared_ptrI10JointBlockED2B8ne200100Ev @1690
    _ZNSt3__110shared_ptrI10PatchEmbedED2B8ne200100Ev @1691
    _ZNSt3__110shared_ptrI10UnaryBlockED2B8ne200100Ev @1692
    _ZNSt3__110shared_ptrI11CLIPEncoderED2B8ne200100Ev @1693
    _ZNSt3__110shared_ptrI11ConditionerED2B8ne200100Ev @1694
    _ZNSt3__110shared_ptrI11ConditionerEaSB8ne200100I11LLMEmbedderTnNS_9enable_ifIXsr17__compatible_withIT_S1_EE5valueEiE4typeELi0EEERS2_ONS0_IS6_EE @1695
    _ZNSt3__110shared_ptrI11ConditionerEaSB8ne200100I33FrozenCLIPEmbedderWithCustomWordsTnNS_9enable_ifIXsr17__compatible_withIT_S1_EE5valueEiE4typeELi0EEERS2_ONS0_IS6_EE @1696
    _ZNSt3__110shared_ptrI11FeedForwardED2B8ne200100Ev @1697
    _ZNSt3__110shared_ptrI11GroupNorm32ED2B8ne200100Ev @1698
    _ZNSt3__110shared_ptrI11LLMEmbedderED2B8ne200100Ev @1699
    _ZNSt3__110shared_ptrI11ResnetBlockED2B8ne200100Ev @1700
    _ZNSt3__110shared_ptrI11T5AttentionED2B8ne200100Ev @1701
    _ZNSt3__110shared_ptrI11T5LayerNormED2B8ne200100Ev @1702
    _ZNSt3__110shared_ptrI11TinyDecoderED2B8ne200100Ev @1703
    _ZNSt3__110shared_ptrI11TinyEncoderED2B8ne200100Ev @1704
    _ZNSt3__110shared_ptrI11ZImageModelED2B8ne200100Ev @1705
    _ZNSt3__110shared_ptrI12AlphaBlenderED2B8ne200100Ev @1706
    _ZNSt3__110shared_ptrI12EDMVDenoiserED2B8ne200100Ev @1707
    _ZNSt3__110shared_ptrI13PMFeedForwardED2B8ne200100Ev @1708
    _ZNSt3__110shared_ptrI13SelfAttentionED2B8ne200100Ev @1709
    _ZNSt3__110shared_ptrI13UpSampleBlockED2B8ne200100Ev @1710
    _ZNSt3__110shared_ptrI13VideoResBlockED2B8ne200100Ev @1711
    _ZNSt3__110shared_ptrI13WeightAdapterED2B8ne200100Ev @1712
    _ZNSt3__110shared_ptrI14CLIPEmbeddingsED2B8ne200100Ev @1713
    _ZNSt3__110shared_ptrI14CLIPProjectionED2B8ne200100Ev @1714
    _ZNSt3__110shared_ptrI14CrossAttentionED2B8ne200100Ev @1715
    _ZNSt3__110shared_ptrI14DiffusionModelED2B8ne200100Ev @1716
    _ZNSt3__110shared_ptrI14DiffusionModelEaSB8ne200100I11ZImageModelTnNS_9enable_ifIXsr17__compatible_withIT_S1_EE5valueEiE4typeELi0EEERS2_ONS0_IS6_EE @1717
    _ZNSt3__110shared_ptrI14DiffusionModelEaSB8ne200100I14QwenImageModelTnNS_9enable_ifIXsr17__compatible_withIT_S1_EE5valueEiE4typeELi0EEERS2_ONS0_IS6_EE @1718
    _ZNSt3__110shared_ptrI14DiffusionModelEaSB8ne200100I8WanModelTnNS_9enable_ifIXsr17__compatible_withIT_S1_EE5valueEiE4typeELi0EEERS2_ONS0_IS6_EE @1719
    _ZNSt3__110shared_ptrI14DiffusionModelEaSB8ne200100I9UNetModelTnNS_9enable_ifIXsr17__compatible_withIT_S1_EE5valueEiE4typeELi0EEERS2_ONS0_IS6_EE @1720
    _ZNSt3__110shared_ptrI14QwenImageModelED2B8ne200100Ev @1721
    _ZNSt3__110shared_ptrI14SigmaSchedulerED2B8ne200100Ev @1722
    _ZNSt3__110shared_ptrI14VectorEmbedderED2B8ne200100Ev @1723
    _ZNSt3__110shared_ptrI15CLIPVisionModelED2B8ne200100Ev @1724
    _ZNSt3__110shared_ptrI15DismantledBlockED2B8ne200100Ev @1725
    _ZNSt3__110shared_ptrI15DownSampleBlockED2B8ne200100Ev @1726
    _ZNSt3__110shared_ptrI15TinyAutoEncoderED2B8ne200100Ev @1727
    _ZNSt3__110shared_ptrI16CompVisVDenoiserED2B8ne200100Ev @1728
    _ZNSt3__110shared_ptrI16FluxFlowDenoiserED2B8ne200100Ev @1729
    _ZNSt3__110shared_ptrI16MultiLoraAdapterED2B8ne200100Ev @1730
    _ZNSt3__110shared_ptrI16QFormerPerceiverED2B8ne200100Ev @1731
    _ZNSt3__110shared_ptrI16TimestepEmbedderED2B8ne200100Ev @1732
    _ZNSt3__110shared_ptrI16TinyVideoDecoderED2B8ne200100Ev @1733
    _ZNSt3__110shared_ptrI16TinyVideoEncoderED2B8ne200100Ev @1734
    _ZNSt3__110shared_ptrI17Flux2FlowDenoiserED2B8ne200100Ev @1735
    _ZNSt3__110shared_ptrI17PhotoMakerIDEmbedED2B8ne200100Ev @1736
    _ZNSt3__110shared_ptrI18MultiheadAttentionED2B8ne200100Ev @1737
    _ZNSt3__110shared_ptrI18PerceiverAttentionED2B8ne200100Ev @1738
    _ZNSt3__110shared_ptrI18ResidualDenseBlockED2B8ne200100Ev @1739
    _ZNSt3__110shared_ptrI18SpatialTransformerED2B8ne200100Ev @1740
    _ZNSt3__110shared_ptrI19CLIPTextModelRunnerED2B8ne200100Ev @1741
    _ZNSt3__110shared_ptrI19PhotoMakerIDEncoderED2B8ne200100Ev @1742
    _ZNSt3__110shared_ptrI20CLIPVisionEmbeddingsED2B8ne200100Ev @1743
    _ZNSt3__110shared_ptrI20DiscreteFlowDenoiserED2B8ne200100Ev @1744
    _ZNSt3__110shared_ptrI20T5DenseGatedActDenseED2B8ne200100Ev @1745
    _ZNSt3__110shared_ptrI20T5LayerSelfAttentionED2B8ne200100Ev @1746
    _ZNSt3__110shared_ptrI21BasicTransformerBlockED2B8ne200100Ev @1747
    _ZNSt3__110shared_ptrI22FacePerceiverResamplerED2B8ne200100Ev @1748
    _ZNSt3__110shared_ptrI23SpatialVideoTransformerED2B8ne200100Ev @1749
    _ZNSt3__110shared_ptrI24FrozenCLIPVisionEmbedderED2B8ne200100Ev @1750
    _ZNSt3__110shared_ptrI24FrozenCLIPVisionEmbedderEaSB8ne200100EOS2_ @1751
    _ZNSt3__110shared_ptrI33FrozenCLIPEmbedderWithCustomWordsED2B8ne200100Ev @1752
    _ZNSt3__110shared_ptrI3MlpED2B8ne200100Ev @1753
    _ZNSt3__110shared_ptrI3RNGED2B8ne200100Ev @1754
    _ZNSt3__110shared_ptrI3VAEED2B8ne200100Ev @1755
    _ZNSt3__110shared_ptrI4RRDBED2B8ne200100Ev @1756
    _ZNSt3__110shared_ptrI6Conv2dED2B8ne200100Ev @1757
    _ZNSt3__110shared_ptrI6Conv3dED2B8ne200100Ev @1758
    _ZNSt3__110shared_ptrI6LinearED2B8ne200100Ev @1759
    _ZNSt3__110shared_ptrI7CLIPMLPED2B8ne200100Ev @1760
    _ZNSt3__110shared_ptrI7DecoderED2B8ne200100Ev @1761
    _ZNSt3__110shared_ptrI7EncoderED2B8ne200100Ev @1762
    _ZNSt3__110shared_ptrI7RMSNormED2B8ne200100Ev @1763
    _ZNSt3__110shared_ptrI7T5BlockED2B8ne200100Ev @1764
    _ZNSt3__110shared_ptrI7T5StackED2B8ne200100Ev @1765
    _ZNSt3__110shared_ptrI8DenoiserEaSB8ne200100I12EDMVDenoiserTnNS_9enable_ifIXsr17__compatible_withIT_S1_EE5valueEiE4typeELi0EEERS2_ONS0_IS6_EE @1766
    _ZNSt3__110shared_ptrI8DenoiserEaSB8ne200100I16CompVisVDenoiserTnNS_9enable_ifIXsr17__compatible_withIT_S1_EE5valueEiE4typeELi0EEERS2_ONS0_IS6_EE @1767
    _ZNSt3__110shared_ptrI8DenoiserEaSB8ne200100I16FluxFlowDenoiserTnNS_9enable_ifIXsr17__compatible_withIT_S1_EE5valueEiE4typeELi0EEERS2_ONS0_IS6_EE @1768
    _ZNSt3__110shared_ptrI8DenoiserEaSB8ne200100I17Flux2FlowDenoiserTnNS_9enable_ifIXsr17__compatible_withIT_S1_EE5valueEiE4typeELi0EEERS2_ONS0_IS6_EE @1769
    _ZNSt3__110shared_ptrI8DenoiserEaSB8ne200100I20DiscreteFlowDenoiserTnNS_9enable_ifIXsr17__compatible_withIT_S1_EE5valueEiE4typeELi0EEERS2_ONS0_IS6_EE @1770
    _ZNSt3__110shared_ptrI8MemBlockED2B8ne200100Ev @1771
    _ZNSt3__110shared_ptrI8ResBlockED2B8ne200100Ev @1772
    _ZNSt3__110shared_ptrI8T5RunnerED2B8ne200100Ev @1773
    _ZNSt3__110shared_ptrI8WanModelED2B8ne200100Ev @1774
    _ZNSt3__110shared_ptrI9AttnBlockED2B8ne200100Ev @1775
    _ZNSt3__110shared_ptrI9CLIPLayerED2B8ne200100Ev @1776
    _ZNSt3__110shared_ptrI9EmbeddingED2B8ne200100Ev @1777
    _ZNSt3__110shared_ptrI9FuseBlockED2B8ne200100Ev @1778
    _ZNSt3__110shared_ptrI9GGMLBlockED2B8ne200100Ev @1779
    _ZNSt3__110shared_ptrI9GroupNormED2B8ne200100Ev @1780
    _ZNSt3__110shared_ptrI9LayerNormED2B8ne200100Ev @1781
    _ZNSt3__110shared_ptrI9LoraModelED2B8ne200100Ev @1782
    _ZNSt3__110shared_ptrI9T5LayerFFED2B8ne200100Ev @1783
    _ZNSt3__110shared_ptrI9UNetModelED2B8ne200100Ev @1784
    _ZNSt3__110shared_ptrIN3LLM11PatchMergerEED2B8ne200100Ev @1785
    _ZNSt3__110shared_ptrIN3LLM11VisionBlockEED2B8ne200100Ev @1786
    _ZNSt3__110shared_ptrIN3LLM11VisionModelEED2B8ne200100Ev @1787
    _ZNSt3__110shared_ptrIN3LLM12BPETokenizerEED2B8ne200100Ev @1788
    _ZNSt3__110shared_ptrIN3LLM15VisionAttentionEED2B8ne200100Ev @1789
    _ZNSt3__110shared_ptrIN3LLM16TransformerBlockEED2B8ne200100Ev @1790
    _ZNSt3__110shared_ptrIN3LLM16VisionPatchEmbedEED2B8ne200100Ev @1791
    _ZNSt3__110shared_ptrIN3LLM3MLPEED2B8ne200100Ev @1792
    _ZNSt3__110shared_ptrIN3LLM9AttentionEED2B8ne200100Ev @1793
    _ZNSt3__110shared_ptrIN3LLM9LLMRunnerEED2B8ne200100Ev @1794
    _ZNSt3__110shared_ptrIN3LLM9TextModelEED2B8ne200100Ev @1795
    _ZNSt3__110shared_ptrIN3WAN12CausalConv3dEED2B8ne200100Ev @1796
    _ZNSt3__110shared_ptrIN3WAN13ResidualBlockEED2B8ne200100Ev @1797
    _ZNSt3__110shared_ptrIN3WAN14AttentionBlockEED2B8ne200100Ev @1798
    _ZNSt3__110shared_ptrIN3WAN16Up_ResidualBlockEED2B8ne200100Ev @1799
    _ZNSt3__110shared_ptrIN3WAN16WanSelfAttentionEED2B8ne200100Ev @1800
    _ZNSt3__110shared_ptrIN3WAN17WanAttentionBlockEED2B8ne200100Ev @1801
    _ZNSt3__110shared_ptrIN3WAN17WanCrossAttentionEED2B8ne200100Ev @1802
    _ZNSt3__110shared_ptrIN3WAN18Down_ResidualBlockEED2B8ne200100Ev @1803
    _ZNSt3__110shared_ptrIN3WAN21VaceWanAttentionBlockEED2B8ne200100Ev @1804
    _ZNSt3__110shared_ptrIN3WAN4HeadEED2B8ne200100Ev @1805
    _ZNSt3__110shared_ptrIN3WAN7DupUp3DEED2B8ne200100Ev @1806
    _ZNSt3__110shared_ptrIN3WAN7MLPProjEED2B8ne200100Ev @1807
    _ZNSt3__110shared_ptrIN3WAN8RMS_normEED2B8ne200100Ev @1808
    _ZNSt3__110shared_ptrIN3WAN8ResampleEED2B8ne200100Ev @1809
    _ZNSt3__110shared_ptrIN3WAN9AvgDown3DEED2B8ne200100Ev @1810
    _ZNSt3__110shared_ptrIN3WAN9Decoder3dEED2B8ne200100Ev @1811
    _ZNSt3__110shared_ptrIN3WAN9Encoder3dEED2B8ne200100Ev @1812
    _ZNSt3__110shared_ptrIN4Flux10ModulationEED2B8ne200100Ev @1813
    _ZNSt3__110shared_ptrIN4Flux11MLPEmbedderEED2B8ne200100Ev @1814
    _ZNSt3__110shared_ptrIN4Flux12NerfEmbedderEED2B8ne200100Ev @1815
    _ZNSt3__110shared_ptrIN4Flux12NerfGLUBlockEED2B8ne200100Ev @1816
    _ZNSt3__110shared_ptrIN4Flux13SelfAttentionEED2B8ne200100Ev @1817
    _ZNSt3__110shared_ptrIN4Flux17DoubleStreamBlockEED2B8ne200100Ev @1818
    _ZNSt3__110shared_ptrIN4Flux17SingleStreamBlockEED2B8ne200100Ev @1819
    _ZNSt3__110shared_ptrIN4Flux18ChromaApproximatorEED2B8ne200100Ev @1820
    _ZNSt3__110shared_ptrIN4Flux18NerfFinalLayerConvEED2B8ne200100Ev @1821
    _ZNSt3__110shared_ptrIN4Flux6QKNormEED2B8ne200100Ev @1822
    _ZNSt3__110shared_ptrIN4Flux7RMSNormEED2B8ne200100Ev @1823
    _ZNSt3__110shared_ptrIN4Flux9LastLayerEED2B8ne200100Ev @1824
    _ZNSt3__110shared_ptrIN4Qwen17TimestepEmbeddingEED2B8ne200100Ev @1825
    _ZNSt3__110shared_ptrIN4Qwen18QwenImageAttentionEED2B8ne200100Ev @1826
    _ZNSt3__110shared_ptrIN4Qwen22AdaLayerNormContinuousEED2B8ne200100Ev @1827
    _ZNSt3__110shared_ptrIN4Qwen25QwenImageTransformerBlockEED2B8ne200100Ev @1828
    _ZNSt3__110shared_ptrIN4Qwen26QwenTimestepProjEmbeddingsEED2B8ne200100Ev @1829
    _ZNSt3__110shared_ptrIN6ZImage10FinalLayerEED2B8ne200100Ev @1830
    _ZNSt3__110shared_ptrIN6ZImage11FeedForwardEED2B8ne200100Ev @1831
    _ZNSt3__110shared_ptrIN6ZImage14JointAttentionEED2B8ne200100Ev @1832
    _ZNSt3__110shared_ptrIN6ZImage21JointTransformerBlockEED2B8ne200100Ev @1833
    _ZNSt3__110shared_ptrINS_13__empty_stateIcEEED2B8ne200100Ev @1834
    _ZNSt3__110unique_ptrI10FinalLayerNS_14default_deleteIS1_EEE5resetB8ne200100EPS1_ @1835
    _ZNSt3__110unique_ptrI10FuseModuleNS_14default_deleteIS1_EEE5resetB8ne200100EPS1_ @1836
    _ZNSt3__110unique_ptrI10JointBlockNS_14default_deleteIS1_EEE5resetB8ne200100EPS1_ @1837
    _ZNSt3__110unique_ptrI10PatchEmbedNS_14default_deleteIS1_EEE5resetB8ne200100EPS1_ @1838
    _ZNSt3__110unique_ptrI11CLIPEncoderNS_14default_deleteIS1_EEE5resetB8ne200100EPS1_ @1839
    _ZNSt3__110unique_ptrI11FeedForwardNS_14default_deleteIS1_EEE5resetB8ne200100EPS1_ @1840
    _ZNSt3__110unique_ptrI11ResnetBlockNS_14default_deleteIS1_EEE5resetB8ne200100EPS1_ @1841
    _ZNSt3__110unique_ptrI11T5AttentionNS_14default_deleteIS1_EEE5resetB8ne200100EPS1_ @1842
    _ZNSt3__110unique_ptrI11T5LayerNormNS_14default_deleteIS1_EEE5resetB8ne200100EPS1_ @1843
    _ZNSt3__110unique_ptrI11TinyDecoderNS_14default_deleteIS1_EEE5resetB8ne200100EPS1_ @1844
    _ZNSt3__110unique_ptrI11TinyEncoderNS_14default_deleteIS1_EEE5resetB8ne200100EPS1_ @1845
    _ZNSt3__110unique_ptrI12AlphaBlenderNS_14default_deleteIS1_EEE5resetB8ne200100EPS1_ @1846
    _ZNSt3__110unique_ptrI13PMFeedForwardNS_14default_deleteIS1_EEE5resetB8ne200100EPS1_ @1847
    _ZNSt3__110unique_ptrI13UpSampleBlockNS_14default_deleteIS1_EEE5resetB8ne200100EPS1_ @1848
    _ZNSt3__110unique_ptrI14CLIPEmbeddingsNS_14default_deleteIS1_EEE5resetB8ne200100EPS1_ @1849
    _ZNSt3__110unique_ptrI14CLIPProjectionNS_14default_deleteIS1_EEE5resetB8ne200100EPS1_ @1850
    _ZNSt3__110unique_ptrI14CrossAttentionNS_14default_deleteIS1_EEE5resetB8ne200100EPS1_ @1851
    _ZNSt3__110unique_ptrI14VectorEmbedderNS_14default_deleteIS1_EEE5resetB8ne200100EPS1_ @1852
    _ZNSt3__110unique_ptrI15CLIPVisionModelNS_14default_deleteIS1_EEE5resetB8ne200100EPS1_ @1853
    _ZNSt3__110unique_ptrI15DismantledBlockNS_14default_deleteIS1_EEE5resetB8ne200100EPS1_ @1854
    _ZNSt3__110unique_ptrI15DownSampleBlockNS_14default_deleteIS1_EEE5resetB8ne200100EPS1_ @1855
    _ZNSt3__110unique_ptrI16QFormerPerceiverNS_14default_deleteIS1_EEE5resetB8ne200100EPS1_ @1856
    _ZNSt3__110unique_ptrI16TimestepEmbedderNS_14default_deleteIS1_EEE5resetB8ne200100EPS1_ @1857
    _ZNSt3__110unique_ptrI16TinyVideoDecoderNS_14default_deleteIS1_EEE5resetB8ne200100EPS1_ @1858
    _ZNSt3__110unique_ptrI16TinyVideoEncoderNS_14default_deleteIS1_EEE5resetB8ne200100EPS1_ @1859
    _ZNSt3__110unique_ptrI16VideoResnetBlockNS_14default_deleteIS1_EEE5resetB8ne200100EPS1_ @1860
    _ZNSt3__110unique_ptrI18MultiheadAttentionNS_14default_deleteIS1_EEED2B8ne200100Ev @1861
    _ZNSt3__110unique_ptrI18PerceiverAttentionNS_14default_deleteIS1_EEE5resetB8ne200100EPS1_ @1862
    _ZNSt3__110unique_ptrI18ResidualDenseBlockNS_14default_deleteIS1_EEE5resetB8ne200100EPS1_ @1863
    _ZNSt3__110unique_ptrI18SpatialTransformerNS_14default_deleteIS1_EEE5resetB8ne200100EPS1_ @1864
    _ZNSt3__110unique_ptrI20CLIPVisionEmbeddingsNS_14default_deleteIS1_EEE5resetB8ne200100EPS1_ @1865
    _ZNSt3__110unique_ptrI20T5DenseGatedActDenseNS_14default_deleteIS1_EEE5resetB8ne200100EPS1_ @1866
    _ZNSt3__110unique_ptrI20T5LayerSelfAttentionNS_14default_deleteIS1_EEE5resetB8ne200100EPS1_ @1867
    _ZNSt3__110unique_ptrI21BasicTransformerBlockNS_14default_deleteIS1_EEE5resetB8ne200100EPS1_ @1868
    _ZNSt3__110unique_ptrI22FacePerceiverResamplerNS_14default_deleteIS1_EEE5resetB8ne200100EPS1_ @1869
    _ZNSt3__110unique_ptrI3MlpNS_14default_deleteIS1_EEE5resetB8ne200100EPS1_ @1870
    _ZNSt3__110unique_ptrI4GELUNS_14default_deleteIS1_EEE5resetB8ne200100EPS1_ @1871
    _ZNSt3__110unique_ptrI4RRDBNS_14default_deleteIS1_EEE5resetB8ne200100EPS1_ @1872
    _ZNSt3__110unique_ptrI5GEGLUNS_14default_deleteIS1_EEE5resetB8ne200100EPS1_ @1873
    _ZNSt3__110unique_ptrI5TGrowNS_14default_deleteIS1_EEE5resetB8ne200100EPS1_ @1874
    _ZNSt3__110unique_ptrI5TPoolNS_14default_deleteIS1_EEE5resetB8ne200100EPS1_ @1875
    _ZNSt3__110unique_ptrI7CLIPMLPNS_14default_deleteIS1_EEE5resetB8ne200100EPS1_ @1876
    _ZNSt3__110unique_ptrI7RRDBNetNS_14default_deleteIS1_EEE5resetB8ne200100EPS1_ @1877
    _ZNSt3__110unique_ptrI7T5BlockNS_14default_deleteIS1_EEE5resetB8ne200100EPS1_ @1878
    _ZNSt3__110unique_ptrI7T5StackNS_14default_deleteIS1_EEE5resetB8ne200100EPS1_ @1879
    _ZNSt3__110unique_ptrI8IdentityNS_14default_deleteIS1_EEE5resetB8ne200100EPS1_ @1880
    _ZNSt3__110unique_ptrI8MemBlockNS_14default_deleteIS1_EEE5resetB8ne200100EPS1_ @1881
    _ZNSt3__110unique_ptrI8ResBlockNS_14default_deleteIS1_EEE5resetB8ne200100EPS1_ @1882
    _ZNSt3__110unique_ptrI8TAEBlockNS_14default_deleteIS1_EEE5resetB8ne200100EPS1_ @1883
    _ZNSt3__110unique_ptrI9AttnBlockNS_14default_deleteIS1_EEE5resetB8ne200100EPS1_ @1884
    _ZNSt3__110unique_ptrI9CLIPLayerNS_14default_deleteIS1_EEE5resetB8ne200100EPS1_ @1885
    _ZNSt3__110unique_ptrI9EmbeddingNS_14default_deleteIS1_EEE5resetB8ne200100EPS1_ @1886
    _ZNSt3__110unique_ptrI9FuseBlockNS_14default_deleteIS1_EEE5resetB8ne200100EPS1_ @1887
    _ZNSt3__110unique_ptrI9T5LayerFFNS_14default_deleteIS1_EEE5resetB8ne200100EPS1_ @1888
    _ZNSt3__110unique_ptrIN3LLM11PatchMergerENS_14default_deleteIS2_EEE5resetB8ne200100EPS2_ @1889
    _ZNSt3__110unique_ptrIN3LLM11VisionBlockENS_14default_deleteIS2_EEE5resetB8ne200100EPS2_ @1890
    _ZNSt3__110unique_ptrIN3LLM15VisionAttentionENS_14default_deleteIS2_EEE5resetB8ne200100EPS2_ @1891
    _ZNSt3__110unique_ptrIN3LLM16TransformerBlockENS_14default_deleteIS2_EEE5resetB8ne200100EPS2_ @1892
    _ZNSt3__110unique_ptrIN3LLM16VisionPatchEmbedENS_14default_deleteIS2_EEE5resetB8ne200100EPS2_ @1893
    _ZNSt3__110unique_ptrIN3LLM3MLPENS_14default_deleteIS2_EEE5resetB8ne200100EPS2_ @1894
    _ZNSt3__110unique_ptrIN3LLM9TextModelENS_14default_deleteIS2_EEE5resetB8ne200100EPS2_ @1895
    _ZNSt3__110unique_ptrIN3WAN12CausalConv3dENS_14default_deleteIS2_EEE5resetB8ne200100EPS2_ @1896
    _ZNSt3__110unique_ptrIN3WAN13ResidualBlockENS_14default_deleteIS2_EEE5resetB8ne200100EPS2_ @1897
    _ZNSt3__110unique_ptrIN3WAN14AttentionBlockENS_14default_deleteIS2_EEE5resetB8ne200100EPS2_ @1898
    _ZNSt3__110unique_ptrIN3WAN16Up_ResidualBlockENS_14default_deleteIS2_EEE5resetB8ne200100EPS2_ @1899
    _ZNSt3__110unique_ptrIN3WAN16WanSelfAttentionENS_14default_deleteIS2_EEE5resetB8ne200100EPS2_ @1900
    _ZNSt3__110unique_ptrIN3WAN17WanAttentionBlockENS_14default_deleteIS2_EEE5resetB8ne200100EPS2_ @1901
    _ZNSt3__110unique_ptrIN3WAN18Down_ResidualBlockENS_14default_deleteIS2_EEE5resetB8ne200100EPS2_ @1902
    _ZNSt3__110unique_ptrIN3WAN20WanI2VCrossAttentionENS_14default_deleteIS2_EEE5resetB8ne200100EPS2_ @1903
    _ZNSt3__110unique_ptrIN3WAN20WanT2VCrossAttentionENS_14default_deleteIS2_EEE5resetB8ne200100EPS2_ @1904
    _ZNSt3__110unique_ptrIN3WAN21VaceWanAttentionBlockENS_14default_deleteIS2_EEE5resetB8ne200100EPS2_ @1905
    _ZNSt3__110unique_ptrIN3WAN4HeadENS_14default_deleteIS2_EEE5resetB8ne200100EPS2_ @1906
    _ZNSt3__110unique_ptrIN3WAN7DupUp3DENS_14default_deleteIS2_EEE5resetB8ne200100EPS2_ @1907
    _ZNSt3__110unique_ptrIN3WAN7MLPProjENS_14default_deleteIS2_EEE5resetB8ne200100EPS2_ @1908
    _ZNSt3__110unique_ptrIN3WAN8RMS_normENS_14default_deleteIS2_EEE5resetB8ne200100EPS2_ @1909
    _ZNSt3__110unique_ptrIN3WAN9AvgDown3DENS_14default_deleteIS2_EEE5resetB8ne200100EPS2_ @1910
    _ZNSt3__110unique_ptrIN4Flux10ModulationENS_14default_deleteIS2_EEE5resetB8ne200100EPS2_ @1911
    _ZNSt3__110unique_ptrIN4Flux11MLPEmbedderENS_14default_deleteIS2_EEE5resetB8ne200100EPS2_ @1912
    _ZNSt3__110unique_ptrIN4Flux13SelfAttentionENS_14default_deleteIS2_EEE5resetB8ne200100EPS2_ @1913
    _ZNSt3__110unique_ptrIN4Flux3MLPENS_14default_deleteIS2_EEE5resetB8ne200100EPS2_ @1914
    _ZNSt3__110unique_ptrIN4Flux6QKNormENS_14default_deleteIS2_EEE5resetB8ne200100EPS2_ @1915
    _ZNSt3__110unique_ptrIN4Flux6YakMLPENS_14default_deleteIS2_EEE5resetB8ne200100EPS2_ @1916
    _ZNSt3__110unique_ptrIN4Flux7RMSNormENS_14default_deleteIS2_EEE5resetB8ne200100EPS2_ @1917
    _ZNSt3__110unique_ptrIN4Qwen17TimestepEmbeddingENS_14default_deleteIS2_EEE5resetB8ne200100EPS2_ @1918
    _ZNSt3__110unique_ptrIN4Qwen18QwenImageAttentionENS_14default_deleteIS2_EEE5resetB8ne200100EPS2_ @1919
    _ZNSt3__110unique_ptrIN4Qwen22AdaLayerNormContinuousENS_14default_deleteIS2_EEE5resetB8ne200100EPS2_ @1920
    _ZNSt3__110unique_ptrIN4Qwen25QwenImageTransformerBlockENS_14default_deleteIS2_EEE5resetB8ne200100EPS2_ @1921
    _ZNSt3__110unique_ptrIN4Qwen26QwenTimestepProjEmbeddingsENS_14default_deleteIS2_EEE5resetB8ne200100EPS2_ @1922
    _ZNSt3__110unique_ptrINS_11__hash_nodeINS_17__hash_value_typeINS_12basic_stringIcNS_11char_traitsIcEENS_9allocatorIcEEEE13TensorStorageEEPvEENS_22__hash_node_destructorINS6_ISC_EEEEED2B8ne200100Ev @1923
    _ZNSt3__110unique_ptrINS_11__hash_nodeINS_17__hash_value_typeINS_12basic_stringIcNS_11char_traitsIcEENS_9allocatorIcEEEENS_10shared_ptrI9GGMLBlockEEEEPvEENS_22__hash_node_destructorINS6_ISE_EEEEED2B8ne200100Ev @1924
    _ZNSt3__110unique_ptrINS_11__hash_nodeINS_17__hash_value_typeINS_12basic_stringIcNS_11char_traitsIcEENS_9allocatorIcEEEENS_15__list_iteratorINS_4pairIKS8_13TensorStorageEEPvEEEESE_EENS_22__hash_node_destructorINS6_ISH_EEEEED2B8ne200100E @1925
    _ZNSt3__110unique_ptrINS_11__hash_nodeINS_17__hash_value_typeINS_12basic_stringIcNS_11char_traitsIcEENS_9allocatorIcEEEEP11ggml_tensorEEPvEENS_22__hash_node_destructorINS6_ISD_EEEEED2B8ne200100Ev @1926
    _ZNSt3__110unique_ptrINS_11__hash_nodeINS_17__hash_value_typeINS_12basic_stringIcNS_11char_traitsIcEENS_9allocatorIcEEEES8_EEPvEENS_22__hash_node_destructorINS6_ISB_EEEEED2B8ne200100Ev @1927
    _ZNSt3__110unique_ptrINS_11__hash_nodeINS_17__hash_value_typeINS_12basic_stringIcNS_11char_traitsIcEENS_9allocatorIcEEEEfEEPvEENS_22__hash_node_destructorINS6_ISB_EEEEED2B8ne200100Ev @1928
    _ZNSt3__110unique_ptrINS_11__hash_nodeINS_17__hash_value_typeIPK11SDCondition16UCacheCacheEntryEEPvEENS_22__hash_node_destructorINS_9allocatorIS9_EEEEED2B8ne200100Ev @1929
    _ZNSt3__110unique_ptrINS_11__hash_nodeINS_17__hash_value_typeIPK11SDCondition19EasyCacheCacheEntryEEPvEENS_22__hash_node_destructorINS_9allocatorIS9_EEEEED2B8ne200100Ev @1930
    _ZNSt3__110unique_ptrINS_11__hash_nodeINS_17__hash_value_typeIPKvN22CacheDitConditionState10CacheEntryEEEPvEENS_22__hash_node_destructorINS_9allocatorIS9_EEEEED2B8ne200100Ev @1931
    _ZNSt3__110unique_ptrINS_11__tree_nodeINS_12__value_typeINS_12basic_stringIDiNS_11char_traitsIDiEENS_9allocatorIDiEEEEiEEPvEENS_22__tree_node_destructorINS6_ISB_EEEEED2B8ne200100Ev @1932
    _ZNSt3__110unique_ptrINS_11__tree_nodeINS_12__value_typeINS_12basic_stringIcNS_11char_traitsIcEENS_9allocatorIcEEEEN8nlohmann16json_abi_v3_11_210basic_jsonINS_3mapENS_6vectorES8_bxydS6_NSA_14adl_serializerENSD_IhNS6_IhEEEEEEEEPvEENS_22_ @1933
    _ZNSt3__110unique_ptrINS_11__tree_nodeINS_12__value_typeINS_12basic_stringIcNS_11char_traitsIcEENS_9allocatorIcEEEENS_4pairIiiEEEEPvEENS_22__tree_node_destructorINS6_ISD_EEEEED2B8ne200100Ev @1934
    _ZNSt3__110unique_ptrINS_11__tree_nodeINS_12__value_typeINS_12basic_stringIcNS_11char_traitsIcEENS_9allocatorIcEEEEP11ggml_tensorEEPvEENS_22__tree_node_destructorINS6_ISD_EEEEED2B8ne200100Ev @1935
    _ZNSt3__110unique_ptrINS_11__tree_nodeINS_12__value_typeINS_12basic_stringIcNS_11char_traitsIcEENS_9allocatorIcEEEES8_EEPvEENS_22__tree_node_destructorINS6_ISB_EEEEED2B8ne200100Ev @1936
    _ZNSt3__110unique_ptrINS_11__tree_nodeINS_12__value_typeINS_4pairINS_12basic_stringIDiNS_11char_traitsIDiEENS_9allocatorIDiEEEES9_EEiEEPvEENS_22__tree_node_destructorINS7_ISD_EEEEED2B8ne200100Ev @1937
    _ZNSt3__110unique_ptrINS_11__tree_nodeINS_12__value_typeIiNS_12basic_stringIDiNS_11char_traitsIDiEENS_9allocatorIDiEEEEEEPvEENS_22__tree_node_destructorINS6_ISB_EEEEED2B8ne200100Ev @1938
    _ZNSt3__110unique_ptrINS_11__tree_nodeINS_12basic_stringIcNS_11char_traitsIcEENS_9allocatorIcEEEEPvEENS_22__tree_node_destructorINS5_IS9_EEEEED2B8ne200100Ev @1939
    _ZNSt3__110unique_ptrINS_11__tree_nodeINS_4pairINS_12basic_stringIDiNS_11char_traitsIDiEENS_9allocatorIDiEEEES8_EEPvEENS_22__tree_node_destructorINS6_ISB_EEEEED2B8ne200100Ev @1940
    _ZNSt3__110unique_ptrINS_15__thread_structENS_14default_deleteIS1_EEED2B8ne200100Ev @1941
    _ZNSt3__111__alternateIcED0Ev @1942
    _ZNSt3__111__end_stateIcED0Ev @1943
    _ZNSt3__111__introsortINS_17_ClassicAlgPolicyERNS_6__lessIvvEEPNS_4pairINS_12basic_stringIcNS_11char_traitsIcEENS_9allocatorIcEEEEiEELb0EEEvT1_SE_T0_NS_15iterator_traitsISE_E15difference_typeEb @1944
    _ZNSt3__111__lookaheadIcNS_12regex_traitsIcEEED0Ev @1945
    _ZNSt3__111__lookaheadIcNS_12regex_traitsIcEEED2Ev @1946
    _ZNSt3__111__match_anyIcED0Ev @1947
    _ZNSt3__111__sift_downB8ne200100INS_17_ClassicAlgPolicyERNS_6__lessIvvEEPNS_4pairINS_12basic_stringIcNS_11char_traitsIcEENS_9allocatorIcEEEEiEEEEvT1_OT0_NS_15iterator_traitsISE_E15difference_typeESE_ @1948
    _ZNSt3__111basic_regexIcNS_12regex_traitsIcEEE11__push_charEc @1949
    _ZNSt3__111basic_regexIcNS_12regex_traitsIcEEE11__push_loopEyyPNS_16__owns_one_stateIcEEyyb @1950
    _ZNSt3__111basic_regexIcNS_12regex_traitsIcEEE12__parse_atomINS_11__wrap_iterIPKcEEEET_S9_S9_ @1951
    _ZNSt3__111basic_regexIcNS_12regex_traitsIcEEE12__parse_atomIPKcEET_S7_S7_ @1952
    _ZNSt3__111basic_regexIcNS_12regex_traitsIcEEE12__parse_grepINS_11__wrap_iterIPKcEEEET_S9_S9_ @1953
    _ZNSt3__111basic_regexIcNS_12regex_traitsIcEEE12__parse_grepIPKcEET_S7_S7_ @1954
    _ZNSt3__111basic_regexIcNS_12regex_traitsIcEEE12__parse_termIPKcEET_S7_S7_ @1955
    _ZNSt3__111basic_regexIcNS_12regex_traitsIcEEE13__parse_egrepINS_11__wrap_iterIPKcEEEET_S9_S9_ @1956
    _ZNSt3__111basic_regexIcNS_12regex_traitsIcEEE13__parse_egrepIPKcEET_S7_S7_ @1957
    _ZNSt3__111basic_regexIcNS_12regex_traitsIcEEE15__push_back_refEi @1958
    _ZNSt3__111basic_regexIcNS_12regex_traitsIcEEE15__test_back_refEc @1959
    _ZNSt3__111basic_regexIcNS_12regex_traitsIcEEE16__parse_ecma_expINS_11__wrap_iterIPKcEEEET_S9_S9_ @1960
    _ZNSt3__111basic_regexIcNS_12regex_traitsIcEEE16__parse_ecma_expIPKcEET_S7_S7_ @1961
    _ZNSt3__111basic_regexIcNS_12regex_traitsIcEEE16__push_lookaheadERKS3_bj @1962
    _ZNSt3__111basic_regexIcNS_12regex_traitsIcEEE17__parse_assertionINS_11__wrap_iterIPKcEEEET_S9_S9_ @1963
    _ZNSt3__111basic_regexIcNS_12regex_traitsIcEEE17__parse_assertionIPKcEET_S7_S7_ @1964
    _ZNSt3__111basic_regexIcNS_12regex_traitsIcEEE18__parse_awk_escapeINS_11__wrap_iterIPKcEEEET_S9_S9_PNS_12basic_stringIcNS_11char_traitsIcEENS_9allocatorIcEEEE @1965
    _ZNSt3__111basic_regexIcNS_12regex_traitsIcEEE18__parse_awk_escapeIPKcEET_S7_S7_PNS_12basic_stringIcNS_11char_traitsIcEENS_9allocatorIcEEEE @1966
    _ZNSt3__111basic_regexIcNS_12regex_traitsIcEEE18__parse_nondupl_REINS_11__wrap_iterIPKcEEEET_S9_S9_ @1967
    _ZNSt3__111basic_regexIcNS_12regex_traitsIcEEE18__parse_nondupl_REIPKcEET_S7_S7_ @1968
    _ZNSt3__111basic_regexIcNS_12regex_traitsIcEEE19__parse_alternativeIPKcEET_S7_S7_ @1969
    _ZNSt3__111basic_regexIcNS_12regex_traitsIcEEE20__parse_ORD_CHAR_EREINS_11__wrap_iterIPKcEEEET_S9_S9_ @1970
    _ZNSt3__111basic_regexIcNS_12regex_traitsIcEEE20__parse_ORD_CHAR_EREIPKcEET_S7_S7_ @1971
    _ZNSt3__111basic_regexIcNS_12regex_traitsIcEEE20__parse_class_escapeINS_11__wrap_iterIPKcEEEET_S9_S9_RNS_12basic_stringIcNS_11char_traitsIcEENS_9allocatorIcEEEEPNS_20__bracket_expressionIcS2_EE @1972
    _ZNSt3__111basic_regexIcNS_12regex_traitsIcEEE20__parse_class_escapeIPKcEET_S7_S7_RNS_12basic_stringIcNS_11char_traitsIcEENS_9allocatorIcEEEEPNS_20__bracket_expressionIcS2_EE @1973
    _ZNSt3__111basic_regexIcNS_12regex_traitsIcEEE20__push_word_boundaryEb @1974
    _ZNSt3__111basic_regexIcNS_12regex_traitsIcEEE21__parse_basic_reg_expINS_11__wrap_iterIPKcEEEET_S9_S9_ @1975
    _ZNSt3__111basic_regexIcNS_12regex_traitsIcEEE21__parse_basic_reg_expIPKcEET_S7_S7_ @1976
    _ZNSt3__111basic_regexIcNS_12regex_traitsIcEEE22__parse_ERE_expressionINS_11__wrap_iterIPKcEEEET_S9_S9_ @1977
    _ZNSt3__111basic_regexIcNS_12regex_traitsIcEEE22__parse_ERE_expressionIPKcEET_S7_S7_ @1978
    _ZNSt3__111basic_regexIcNS_12regex_traitsIcEEE22__parse_RE_dupl_symbolINS_11__wrap_iterIPKcEEEET_S9_S9_PNS_16__owns_one_stateIcEEjj @1979
    _ZNSt3__111basic_regexIcNS_12regex_traitsIcEEE22__parse_RE_dupl_symbolIPKcEET_S7_S7_PNS_16__owns_one_stateIcEEjj @1980
    _ZNSt3__111basic_regexIcNS_12regex_traitsIcEEE22__parse_decimal_escapeINS_11__wrap_iterIPKcEEEET_S9_S9_ @1981
    _ZNSt3__111basic_regexIcNS_12regex_traitsIcEEE22__parse_decimal_escapeIPKcEET_S7_S7_ @1982
    _ZNSt3__111basic_regexIcNS_12regex_traitsIcEEE23__parse_ERE_dupl_symbolINS_11__wrap_iterIPKcEEEET_S9_S9_PNS_16__owns_one_stateIcEEjj @1983
    _ZNSt3__111basic_regexIcNS_12regex_traitsIcEEE23__parse_ERE_dupl_symbolIPKcEET_S7_S7_PNS_16__owns_one_stateIcEEjj @1984
    _ZNSt3__111basic_regexIcNS_12regex_traitsIcEEE23__parse_QUOTED_CHAR_EREINS_11__wrap_iterIPKcEEEET_S9_S9_ @1985
    _ZNSt3__111basic_regexIcNS_12regex_traitsIcEEE23__parse_QUOTED_CHAR_EREIPKcEET_S7_S7_ @1986
    _ZNSt3__111basic_regexIcNS_12regex_traitsIcEEE23__parse_character_classINS_11__wrap_iterIPKcEEEET_S9_S9_PNS_20__bracket_expressionIcS2_EE @1987
    _ZNSt3__111basic_regexIcNS_12regex_traitsIcEEE23__parse_expression_termINS_11__wrap_iterIPKcEEEET_S9_S9_PNS_20__bracket_expressionIcS2_EE @1988
    _ZNSt3__111basic_regexIcNS_12regex_traitsIcEEE23__parse_expression_termIPKcEET_S7_S7_PNS_20__bracket_expressionIcS2_EE @1989
    _ZNSt3__111basic_regexIcNS_12regex_traitsIcEEE24__parse_character_escapeINS_11__wrap_iterIPKcEEEET_S9_S9_PNS_12basic_stringIcNS_11char_traitsIcEENS_9allocatorIcEEEE @1990
    _ZNSt3__111basic_regexIcNS_12regex_traitsIcEEE24__parse_character_escapeIPKcEET_S7_S7_PNS_12basic_stringIcNS_11char_traitsIcEENS_9allocatorIcEEEE @1991
    _ZNSt3__111basic_regexIcNS_12regex_traitsIcEEE24__parse_collating_symbolINS_11__wrap_iterIPKcEEEET_S9_S9_RNS_12basic_stringIcNS_11char_traitsIcEENS_9allocatorIcEEEE @1992
    _ZNSt3__111basic_regexIcNS_12regex_traitsIcEEE24__parse_collating_symbolIPKcEET_S7_S7_RNS_12basic_stringIcNS_11char_traitsIcEENS_9allocatorIcEEEE @1993
    _ZNSt3__111basic_regexIcNS_12regex_traitsIcEEE24__parse_extended_reg_expINS_11__wrap_iterIPKcEEEET_S9_S9_ @1994
    _ZNSt3__111basic_regexIcNS_12regex_traitsIcEEE24__parse_extended_reg_expIPKcEET_S7_S7_ @1995
    _ZNSt3__111basic_regexIcNS_12regex_traitsIcEEE25__parse_equivalence_classINS_11__wrap_iterIPKcEEEET_S9_S9_PNS_20__bracket_expressionIcS2_EE @1996
    _ZNSt3__111basic_regexIcNS_12regex_traitsIcEEE25__parse_equivalence_classIPKcEET_S7_S7_PNS_20__bracket_expressionIcS2_EE @1997
    _ZNSt3__111basic_regexIcNS_12regex_traitsIcEEE25__parse_pattern_characterINS_11__wrap_iterIPKcEEEET_S9_S9_ @1998
    _ZNSt3__111basic_regexIcNS_12regex_traitsIcEEE25__parse_pattern_characterIPKcEET_S7_S7_ @1999
    _ZNSt3__111basic_regexIcNS_12regex_traitsIcEEE26__parse_bracket_expressionINS_11__wrap_iterIPKcEEEET_S9_S9_ @2000
    _ZNSt3__111basic_regexIcNS_12regex_traitsIcEEE26__parse_bracket_expressionIPKcEET_S7_S7_ @2001
    _ZNSt3__111basic_regexIcNS_12regex_traitsIcEEE30__parse_character_class_escapeINS_11__wrap_iterIPKcEEEET_S9_S9_ @2002
    _ZNSt3__111basic_regexIcNS_12regex_traitsIcEEE30__parse_character_class_escapeIPKcEET_S7_S7_ @2003
    _ZNSt3__111basic_regexIcNS_12regex_traitsIcEEE32__parse_one_char_or_coll_elem_REINS_11__wrap_iterIPKcEEEET_S9_S9_ @2004
    _ZNSt3__111basic_regexIcNS_12regex_traitsIcEEE32__parse_one_char_or_coll_elem_REIPKcEET_S7_S7_ @2005
    _ZNSt3__111basic_regexIcNS_12regex_traitsIcEEE7__parseINS_11__wrap_iterIPKcEEEET_S9_S9_ @2006
    _ZNSt3__111basic_regexIcNS_12regex_traitsIcEEE7__parseIPKcEET_S7_S7_ @2007
    _ZNSt3__111basic_regexIcNS_12regex_traitsIcEEEC2B8ne200100EPKcNS_15regex_constants18syntax_option_typeE @2008
    _ZNSt3__111basic_regexIcNS_12regex_traitsIcEEEC2B8ne200100Ev @2009
    _ZNSt3__111basic_regexIcNS_12regex_traitsIcEEEC2B8ne200100INS_11char_traitsIcEENS_9allocatorIcEEEERKNS_12basic_stringIcT_T0_EENS_15regex_constants18syntax_option_typeE @2010
    _ZNSt3__111basic_regexIcNS_12regex_traitsIcEEED2Ev @2011
    _ZNSt3__111make_sharedB8ne200100I11LLMEmbedderJRP12ggml_backendRbR10OrderedMapINS_12basic_stringIcNS_11char_traitsIcEENS_9allocatorIcEEEE13TensorStorageER9SDVersionRA1_KcS5_ETnNS_9enable_ifIXntsr8is_arrayIT_EE5valueEiE4typeELi0EEENS_10s @2012
    _ZNSt3__111make_sharedB8ne200100I11ZImageModelJRP12ggml_backendRbR10OrderedMapINS_12basic_stringIcNS_11char_traitsIcEENS_9allocatorIcEEEE13TensorStorageERA22_KcR9SDVersionETnNS_9enable_ifIXntsr8is_arrayIT_EE5valueEiE4typeELi0EEENS_10sha @2013
    _ZNSt3__111make_sharedB8ne200100I14QwenImageModelJRP12ggml_backendRbR10OrderedMapINS_12basic_stringIcNS_11char_traitsIcEENS_9allocatorIcEEEE13TensorStorageERA22_KcR9SDVersionRKbETnNS_9enable_ifIXntsr8is_arrayIT_EE5valueEiE4typeELi0EEENS @2014
    _ZNSt3__111make_sharedB8ne200100I16FluxFlowDenoiserJRfETnNS_9enable_ifIXntsr8is_arrayIT_EE5valueEiE4typeELi0EEENS_10shared_ptrIS4_EEDpOT0_ @2015
    _ZNSt3__111make_sharedB8ne200100I17Flux2FlowDenoiserJETnNS_9enable_ifIXntsr8is_arrayIT_EE5valueEiE4typeELi0EEENS_10shared_ptrIS3_EEDpOT0_ @2016
    _ZNSt3__111make_sharedB8ne200100I20DiscreteFlowDenoiserJRfETnNS_9enable_ifIXntsr8is_arrayIT_EE5valueEiE4typeELi0EEENS_10shared_ptrIS4_EEDpOT0_ @2017
    _ZNSt3__111make_sharedB8ne200100I24FrozenCLIPVisionEmbedderJRP12ggml_backendRbR10OrderedMapINS_12basic_stringIcNS_11char_traitsIcEENS_9allocatorIcEEEE13TensorStorageEETnNS_9enable_ifIXntsr8is_arrayIT_EE5valueEiE4typeELi0EEENS_10shared_p @2018
    _ZNSt3__111make_sharedB8ne200100I33FrozenCLIPEmbedderWithCustomWordsJRP12ggml_backendRbR10OrderedMapINS_12basic_stringIcNS_11char_traitsIcEENS_9allocatorIcEEEE13TensorStorageERNS_3mapISC_SC_NS_4lessISC_EENSA_INS_4pairIKSC_SC_EEEEEER9SDV @2019
    _ZNSt3__111make_sharedB8ne200100I33FrozenCLIPEmbedderWithCustomWordsJRP12ggml_backendRbR10OrderedMapINS_12basic_stringIcNS_11char_traitsIcEENS_9allocatorIcEEEE13TensorStorageERNS_3mapISC_SC_NS_4lessISC_EENSA_INS_4pairIKSC_SC_EEEEEER9SDV @2020
    _ZNSt3__111make_sharedB8ne200100I8WanModelJRP12ggml_backendRbR10OrderedMapINS_12basic_stringIcNS_11char_traitsIcEENS_9allocatorIcEEEE13TensorStorageERA33_KcR9SDVersionETnNS_9enable_ifIXntsr8is_arrayIT_EE5valueEiE4typeELi0EEENS_10shared_ @2021
    _ZNSt3__112__destroy_atB8ne200100INS_4pairIKNS_12basic_stringIcNS_11char_traitsIcEENS_9allocatorIcEEEEN8nlohmann16json_abi_v3_11_210basic_jsonINS_3mapENS_6vectorES7_bxydS5_NSA_14adl_serializerENSD_IhNS5_IhEEEEEEEETnNS_9enable_ifIXntsr8i @2022
    _ZNSt3__112__hash_tableINS_17__hash_value_typeINS_12basic_stringIcNS_11char_traitsIcEENS_9allocatorIcEEEE13TensorStorageEENS_22__unordered_map_hasherIS7_S9_NS_4hashIS7_EENS_8equal_toIS7_EELb1EEENS_21__unordered_map_equalIS7_S9_SE_SC_Lb1 @2023
    _ZNSt3__112__hash_tableINS_17__hash_value_typeINS_12basic_stringIcNS_11char_traitsIcEENS_9allocatorIcEEEE13TensorStorageEENS_22__unordered_map_hasherIS7_S9_NS_4hashIS7_EENS_8equal_toIS7_EELb1EEENS_21__unordered_map_equalIS7_S9_SE_SC_Lb1 @2024
    _ZNSt3__112__hash_tableINS_17__hash_value_typeINS_12basic_stringIcNS_11char_traitsIcEENS_9allocatorIcEEEENS_10shared_ptrI9GGMLBlockEEEENS_22__unordered_map_hasherIS7_SB_NS_4hashIS7_EENS_8equal_toIS7_EELb1EEENS_21__unordered_map_equalIS7 @2025
    _ZNSt3__112__hash_tableINS_17__hash_value_typeINS_12basic_stringIcNS_11char_traitsIcEENS_9allocatorIcEEEENS_10shared_ptrI9GGMLBlockEEEENS_22__unordered_map_hasherIS7_SB_NS_4hashIS7_EENS_8equal_toIS7_EELb1EEENS_21__unordered_map_equalIS7 @2026
    _ZNSt3__112__hash_tableINS_17__hash_value_typeINS_12basic_stringIcNS_11char_traitsIcEENS_9allocatorIcEEEENS_10shared_ptrI9GGMLBlockEEEENS_22__unordered_map_hasherIS7_SB_NS_4hashIS7_EENS_8equal_toIS7_EELb1EEENS_21__unordered_map_equalIS7 @2027
    _ZNSt3__112__hash_tableINS_17__hash_value_typeINS_12basic_stringIcNS_11char_traitsIcEENS_9allocatorIcEEEENS_10shared_ptrI9GGMLBlockEEEENS_22__unordered_map_hasherIS7_SB_NS_4hashIS7_EENS_8equal_toIS7_EELb1EEENS_21__unordered_map_equalIS7 @2028
    _ZNSt3__112__hash_tableINS_17__hash_value_typeINS_12basic_stringIcNS_11char_traitsIcEENS_9allocatorIcEEEENS_10shared_ptrI9GGMLBlockEEEENS_22__unordered_map_hasherIS7_SB_NS_4hashIS7_EENS_8equal_toIS7_EELb1EEENS_21__unordered_map_equalIS7 @2029
    _ZNSt3__112__hash_tableINS_17__hash_value_typeINS_12basic_stringIcNS_11char_traitsIcEENS_9allocatorIcEEEENS_10shared_ptrI9GGMLBlockEEEENS_22__unordered_map_hasherIS7_SB_NS_4hashIS7_EENS_8equal_toIS7_EELb1EEENS_21__unordered_map_equalIS7 @2030
    _ZNSt3__112__hash_tableINS_17__hash_value_typeINS_12basic_stringIcNS_11char_traitsIcEENS_9allocatorIcEEEENS_15__list_iteratorINS_4pairIKS7_13TensorStorageEEPvEEEENS_22__unordered_map_hasherIS7_SF_NS_4hashIS7_EENS_8equal_toIS7_EELb1EEENS @2031
    _ZNSt3__112__hash_tableINS_17__hash_value_typeINS_12basic_stringIcNS_11char_traitsIcEENS_9allocatorIcEEEENS_15__list_iteratorINS_4pairIKS7_13TensorStorageEEPvEEEENS_22__unordered_map_hasherIS7_SF_NS_4hashIS7_EENS_8equal_toIS7_EELb1EEENS @2032
    _ZNSt3__112__hash_tableINS_17__hash_value_typeINS_12basic_stringIcNS_11char_traitsIcEENS_9allocatorIcEEEENS_15__list_iteratorINS_4pairIKS7_13TensorStorageEEPvEEEENS_22__unordered_map_hasherIS7_SF_NS_4hashIS7_EENS_8equal_toIS7_EELb1EEENS @2033
    _ZNSt3__112__hash_tableINS_17__hash_value_typeINS_12basic_stringIcNS_11char_traitsIcEENS_9allocatorIcEEEENS_15__list_iteratorINS_4pairIKS7_13TensorStorageEEPvEEEENS_22__unordered_map_hasherIS7_SF_NS_4hashIS7_EENS_8equal_toIS7_EELb1EEENS @2034
    _ZNSt3__112__hash_tableINS_17__hash_value_typeINS_12basic_stringIcNS_11char_traitsIcEENS_9allocatorIcEEEEP11ggml_tensorEENS_22__unordered_map_hasherIS7_SA_NS_4hashIS7_EENS_8equal_toIS7_EELb1EEENS_21__unordered_map_equalIS7_SA_SF_SD_Lb1E @2035
    _ZNSt3__112__hash_tableINS_17__hash_value_typeINS_12basic_stringIcNS_11char_traitsIcEENS_9allocatorIcEEEEP11ggml_tensorEENS_22__unordered_map_hasherIS7_SA_NS_4hashIS7_EENS_8equal_toIS7_EELb1EEENS_21__unordered_map_equalIS7_SA_SF_SD_Lb1E @2036
    _ZNSt3__112__hash_tableINS_17__hash_value_typeINS_12basic_stringIcNS_11char_traitsIcEENS_9allocatorIcEEEEP11ggml_tensorEENS_22__unordered_map_hasherIS7_SA_NS_4hashIS7_EENS_8equal_toIS7_EELb1EEENS_21__unordered_map_equalIS7_SA_SF_SD_Lb1E @2037
    _ZNSt3__112__hash_tableINS_17__hash_value_typeINS_12basic_stringIcNS_11char_traitsIcEENS_9allocatorIcEEEEP11ggml_tensorEENS_22__unordered_map_hasherIS7_SA_NS_4hashIS7_EENS_8equal_toIS7_EELb1EEENS_21__unordered_map_equalIS7_SA_SF_SD_Lb1E @2038
    _ZNSt3__112__hash_tableINS_17__hash_value_typeINS_12basic_stringIcNS_11char_traitsIcEENS_9allocatorIcEEEEP11ggml_tensorEENS_22__unordered_map_hasherIS7_SA_NS_4hashIS7_EENS_8equal_toIS7_EELb1EEENS_21__unordered_map_equalIS7_SA_SF_SD_Lb1E @2039
    _ZNSt3__112__hash_tableINS_17__hash_value_typeINS_12basic_stringIcNS_11char_traitsIcEENS_9allocatorIcEEEES7_EENS_22__unordered_map_hasherIS7_S8_NS_4hashIS7_EENS_8equal_toIS7_EELb1EEENS_21__unordered_map_equalIS7_S8_SD_SB_Lb1EEENS5_IS8_E @2040
    _ZNSt3__112__hash_tableINS_17__hash_value_typeINS_12basic_stringIcNS_11char_traitsIcEENS_9allocatorIcEEEES7_EENS_22__unordered_map_hasherIS7_S8_NS_4hashIS7_EENS_8equal_toIS7_EELb1EEENS_21__unordered_map_equalIS7_S8_SD_SB_Lb1EEENS5_IS8_E @2041
    _ZNSt3__112__hash_tableINS_17__hash_value_typeINS_12basic_stringIcNS_11char_traitsIcEENS_9allocatorIcEEEES7_EENS_22__unordered_map_hasherIS7_S8_NS_4hashIS7_EENS_8equal_toIS7_EELb1EEENS_21__unordered_map_equalIS7_S8_SD_SB_Lb1EEENS5_IS8_E @2042
    _ZNSt3__112__hash_tableINS_17__hash_value_typeINS_12basic_stringIcNS_11char_traitsIcEENS_9allocatorIcEEEES7_EENS_22__unordered_map_hasherIS7_S8_NS_4hashIS7_EENS_8equal_toIS7_EELb1EEENS_21__unordered_map_equalIS7_S8_SD_SB_Lb1EEENS5_IS8_E @2043
    _ZNSt3__112__hash_tableINS_17__hash_value_typeINS_12basic_stringIcNS_11char_traitsIcEENS_9allocatorIcEEEES7_EENS_22__unordered_map_hasherIS7_S8_NS_4hashIS7_EENS_8equal_toIS7_EELb1EEENS_21__unordered_map_equalIS7_S8_SD_SB_Lb1EEENS5_IS8_E @2044
    _ZNSt3__112__hash_tableINS_17__hash_value_typeINS_12basic_stringIcNS_11char_traitsIcEENS_9allocatorIcEEEES7_EENS_22__unordered_map_hasherIS7_S8_NS_4hashIS7_EENS_8equal_toIS7_EELb1EEENS_21__unordered_map_equalIS7_S8_SD_SB_Lb1EEENS5_IS8_E @2045
    _ZNSt3__112__hash_tableINS_17__hash_value_typeINS_12basic_stringIcNS_11char_traitsIcEENS_9allocatorIcEEEES7_EENS_22__unordered_map_hasherIS7_S8_NS_4hashIS7_EENS_8equal_toIS7_EELb1EEENS_21__unordered_map_equalIS7_S8_SD_SB_Lb1EEENS5_IS8_E @2046
    _ZNSt3__112__hash_tableINS_17__hash_value_typeINS_12basic_stringIcNS_11char_traitsIcEENS_9allocatorIcEEEEfEENS_22__unordered_map_hasherIS7_S8_NS_4hashIS7_EENS_8equal_toIS7_EELb1EEENS_21__unordered_map_equalIS7_S8_SD_SB_Lb1EEENS5_IS8_EEE @2047
    _ZNSt3__112__hash_tableINS_17__hash_value_typeINS_12basic_stringIcNS_11char_traitsIcEENS_9allocatorIcEEEEfEENS_22__unordered_map_hasherIS7_S8_NS_4hashIS7_EENS_8equal_toIS7_EELb1EEENS_21__unordered_map_equalIS7_S8_SD_SB_Lb1EEENS5_IS8_EEE @2048
    _ZNSt3__112__hash_tableINS_17__hash_value_typeINS_12basic_stringIcNS_11char_traitsIcEENS_9allocatorIcEEEEfEENS_22__unordered_map_hasherIS7_S8_NS_4hashIS7_EENS_8equal_toIS7_EELb1EEENS_21__unordered_map_equalIS7_S8_SD_SB_Lb1EEENS5_IS8_EEE @2049
    _ZNSt3__112__hash_tableINS_17__hash_value_typeINS_12basic_stringIcNS_11char_traitsIcEENS_9allocatorIcEEEEfEENS_22__unordered_map_hasherIS7_S8_NS_4hashIS7_EENS_8equal_toIS7_EELb1EEENS_21__unordered_map_equalIS7_S8_SD_SB_Lb1EEENS5_IS8_EEE @2050
    _ZNSt3__112__hash_tableINS_17__hash_value_typeINS_12basic_stringIcNS_11char_traitsIcEENS_9allocatorIcEEEEfEENS_22__unordered_map_hasherIS7_S8_NS_4hashIS7_EENS_8equal_toIS7_EELb1EEENS_21__unordered_map_equalIS7_S8_SD_SB_Lb1EEENS5_IS8_EEE @2051
    _ZNSt3__112__hash_tableINS_17__hash_value_typeINS_12basic_stringIcNS_11char_traitsIcEENS_9allocatorIcEEEEfEENS_22__unordered_map_hasherIS7_S8_NS_4hashIS7_EENS_8equal_toIS7_EELb1EEENS_21__unordered_map_equalIS7_S8_SD_SB_Lb1EEENS5_IS8_EEE @2052
    _ZNSt3__112__hash_tableINS_17__hash_value_typeINS_12basic_stringIcNS_11char_traitsIcEENS_9allocatorIcEEEEfEENS_22__unordered_map_hasherIS7_S8_NS_4hashIS7_EENS_8equal_toIS7_EELb1EEENS_21__unordered_map_equalIS7_S8_SD_SB_Lb1EEENS5_IS8_EEE @2053
    _ZNSt3__112__hash_tableINS_17__hash_value_typeINS_12basic_stringIcNS_11char_traitsIcEENS_9allocatorIcEEEEfEENS_22__unordered_map_hasherIS7_S8_NS_4hashIS7_EENS_8equal_toIS7_EELb1EEENS_21__unordered_map_equalIS7_S8_SD_SB_Lb1EEENS5_IS8_EEE @2054
    _ZNSt3__112__hash_tableINS_17__hash_value_typeINS_12basic_stringIcNS_11char_traitsIcEENS_9allocatorIcEEEEfEENS_22__unordered_map_hasherIS7_S8_NS_4hashIS7_EENS_8equal_toIS7_EELb1EEENS_21__unordered_map_equalIS7_S8_SD_SB_Lb1EEENS5_IS8_EEE @2055
    _ZNSt3__112__hash_tableINS_17__hash_value_typeINS_12basic_stringIcNS_11char_traitsIcEENS_9allocatorIcEEEEfEENS_22__unordered_map_hasherIS7_S8_NS_4hashIS7_EENS_8equal_toIS7_EELb1EEENS_21__unordered_map_equalIS7_S8_SD_SB_Lb1EEENS5_IS8_EEE @2056
    indIS7_EENS_15__hash_iteratorIPNS_11__hash_nodeIS8_PvEEEERKT_ @4
    _ZNSt3__112__hash_tableINS_17__hash_value_typeINS_12basic_stringIcNS_11char_traitsIcEENS_9allocatorIcEEEEfEENS_22__unordered_map_hasherIS7_S8_NS_4hashIS7_EENS_8equal_toIS7_EELb1EEENS_21__unordered_map_equalIS7_S8_SD_SB_Lb1EEENS5_IS8_EEE @2057
    _ZNSt3__112__hash_tableINS_17__hash_value_typeINS_12basic_stringIcNS_11char_traitsIcEENS_9allocatorIcEEEEfEENS_22__unordered_map_hasherIS7_S8_NS_4hashIS7_EENS_8equal_toIS7_EELb1EEENS_21__unordered_map_equalIS7_S8_SD_SB_Lb1EEENS5_IS8_EEE @2058
    _ZNSt3__112__hash_tableINS_17__hash_value_typeIPK11SDCondition16UCacheCacheEntryEENS_22__unordered_map_hasherIS4_S6_NS_4hashIS4_EENS_8equal_toIS4_EELb1EEENS_21__unordered_map_equalIS4_S6_SB_S9_Lb1EEENS_9allocatorIS6_EEE11__do_rehashILb1 @2059
    _ZNSt3__112__hash_tableINS_17__hash_value_typeIPK11SDCondition16UCacheCacheEntryEENS_22__unordered_map_hasherIS4_S6_NS_4hashIS4_EENS_8equal_toIS4_EELb1EEENS_21__unordered_map_equalIS4_S6_SB_S9_Lb1EEENS_9allocatorIS6_EEE25__emplace_uniqu @2060
    _ZNSt3__112__hash_tableINS_17__hash_value_typeIPK11SDCondition19EasyCacheCacheEntryEENS_22__unordered_map_hasherIS4_S6_NS_4hashIS4_EENS_8equal_toIS4_EELb1EEENS_21__unordered_map_equalIS4_S6_SB_S9_Lb1EEENS_9allocatorIS6_EEE11__do_rehashI @2061
    _ZNSt3__112__hash_tableINS_17__hash_value_typeIPK11SDCondition19EasyCacheCacheEntryEENS_22__unordered_map_hasherIS4_S6_NS_4hashIS4_EENS_8equal_toIS4_EELb1EEENS_21__unordered_map_equalIS4_S6_SB_S9_Lb1EEENS_9allocatorIS6_EEE25__emplace_un @2062
    _ZNSt3__112__hash_tableINS_17__hash_value_typeIPKvN22CacheDitConditionState10CacheEntryEEENS_22__unordered_map_hasherIS3_S6_NS_4hashIS3_EENS_8equal_toIS3_EELb1EEENS_21__unordered_map_equalIS3_S6_SB_S9_Lb1EEENS_9allocatorIS6_EEE11__do_re @2063
    _ZNSt3__112__hash_tableINS_17__hash_value_typeIPKvN22CacheDitConditionState10CacheEntryEEENS_22__unordered_map_hasherIS3_S6_NS_4hashIS3_EENS_8equal_toIS3_EELb1EEENS_21__unordered_map_equalIS3_S6_SB_S9_Lb1EEENS_9allocatorIS6_EEE25__empla @2064
    _ZNSt3__112__hash_tableINS_17__hash_value_typeIPKvN22CacheDitConditionState10CacheEntryEEENS_22__unordered_map_hasherIS3_S6_NS_4hashIS3_EENS_8equal_toIS3_EELb1EEENS_21__unordered_map_equalIS3_S6_SB_S9_Lb1EEENS_9allocatorIS6_EEE5clearEv @2065
    _ZNSt3__112__hash_tableINS_17__hash_value_typeIPKvN22CacheDitConditionState10CacheEntryEEENS_22__unordered_map_hasherIS3_S6_NS_4hashIS3_EENS_8equal_toIS3_EELb1EEENS_21__unordered_map_equalIS3_S6_SB_S9_Lb1EEENS_9allocatorIS6_EEED2Ev @2066
    _ZNSt3__112__hash_tableIyNS_4hashIyEENS_8equal_toIyEENS_9allocatorIyEEE11__do_rehashILb1EEEvy @2067
    _ZNSt3__112__hash_tableIyNS_4hashIyEENS_8equal_toIyEENS_9allocatorIyEEE25__emplace_unique_key_argsIyJyEEENS_4pairINS_15__hash_iteratorIPNS_11__hash_nodeIyPvEEEEbEERKT_DpOT0_ @2068
    _ZNSt3__112__match_charIcED0Ev @2069
    _ZNSt3__112__tuple_implINS_15__tuple_indicesIJLy0ELy1EEEEJNS_6vectorIiNS_9allocatorIiEEEENS3_IfNS4_IfEEEEEEC2B8ne200100IJLy0ELy1EEJS6_S8_ETpTnyJEJEJRS6_RS8_EEENS1_IJXspT_EEEENS_13__tuple_typesIJDpT0_EEENS1_IJXspT1_EEEENSE_IJDpT2_EEEDpOT @2070
    _ZNSt3__112__tuple_implINS_15__tuple_indicesIJLy0ELy1ELy2EEEEJNS_6vectorIP11ggml_tensorNS_9allocatorIS5_EEEES8_S8_EEC2B8ne200100IJLy0ELy1ELy2EEJS8_S8_S8_ETpTnyJEJEJRKS8_SC_SC_EEENS1_IJXspT_EEEENS_13__tuple_typesIJDpT0_EEENS1_IJXspT1_EEE @2071
    _ZNSt3__112__tuple_implINS_15__tuple_indicesIJLy0ELy1ELy2EEEEJNS_6vectorIiNS_9allocatorIiEEEENS3_IfNS4_IfEEEENS3_IbNS4_IbEEEEEEC2B8ne200100IJLy0ELy1ELy2EEJS6_S8_SA_ETpTnyJEJEJRS6_RS8_RSA_EEENS1_IJXspT_EEEENS_13__tuple_typesIJDpT0_EEENS1 @2072
    _ZNSt3__112__tuple_implINS_15__tuple_indicesIJLy0ELy1ELy2EEEEJNS_6vectorIiNS_9allocatorIiEEEENS3_IfNS4_IfEEEES8_EEC2B8ne200100IJLy0ELy1ELy2EEJS6_S8_S8_ETpTnyJEJEJRS6_RS8_SC_EEENS1_IJXspT_EEEENS_13__tuple_typesIJDpT0_EEENS1_IJXspT1_EEEEN @2073
    _ZNSt3__112__tuple_implINS_15__tuple_indicesIJLy0ELy1ELy2EEEEJNS_6vectorIiNS_9allocatorIiEEEENS3_IfNS4_IfEEEES8_EEC2ERKS9_ @2074
    _ZNSt3__112basic_stringIDiNS_11char_traitsIDiEENS_9allocatorIDiEEE17__assign_no_aliasILb0EEERS5_PKDiy @2075
    _ZNSt3__112basic_stringIDiNS_11char_traitsIDiEENS_9allocatorIDiEEE17__assign_no_aliasILb1EEERS5_PKDiy @2076
    _ZNSt3__112basic_stringIDiNS_11char_traitsIDiEENS_9allocatorIDiEEE20__throw_length_errorB8ne200100Ev @2077
    _ZNSt3__112basic_stringIDiNS_11char_traitsIDiEENS_9allocatorIDiEEE20__throw_out_of_rangeB8ne200100Ev @2078
    _ZNSt3__112basic_stringIDiNS_11char_traitsIDiEENS_9allocatorIDiEEE21__grow_by_and_replaceEyyyyyyPKDi @2079
    _ZNSt3__112basic_stringIDiNS_11char_traitsIDiEENS_9allocatorIDiEEE25__init_copy_ctor_externalEPKDiy @2080
    _ZNSt3__112basic_stringIDiNS_11char_traitsIDiEENS_9allocatorIDiEEE6appendB8ne200100ERKS5_ @2081
    _ZNSt3__112basic_stringIDiNS_11char_traitsIDiEENS_9allocatorIDiEEE6appendIPKDiTnNS_9enable_ifIXsr31__has_forward_iterator_categoryIT_EE5valueEiE4typeELi0EEERS5_SA_SA_ @2082
    _ZNSt3__112basic_stringIDiNS_11char_traitsIDiEENS_9allocatorIDiEEE6insertEyPKDiy @2083
    _ZNSt3__112basic_stringIDiNS_11char_traitsIDiEENS_9allocatorIDiEEE6resizeEyDi @2084
    _ZNSt3__112basic_stringIDiNS_11char_traitsIDiEENS_9allocatorIDiEEE9__grow_byEyyyyyy @2085
    _ZNSt3__112basic_stringIcNS_11char_traitsIcEENS_9allocatorIcEEE20__throw_length_errorB8ne200100Ev @2086
    _ZNSt3__112basic_stringIcNS_11char_traitsIcEENS_9allocatorIcEEE20__throw_out_of_rangeB8ne200100Ev @2087
    _ZNSt3__112basic_stringIcNS_11char_traitsIcEENS_9allocatorIcEEE25__init_copy_ctor_externalEPKcy @2088
    _ZNSt3__112basic_stringIcNS_11char_traitsIcEENS_9allocatorIcEEE6appendB8ne200100IPKcTnNS_9enable_ifIXsr31__has_forward_iterator_categoryIT_EE5valueEiE4typeELi0EEERS5_SA_SA_ @2089
    _ZNSt3__112basic_stringIcNS_11char_traitsIcEENS_9allocatorIcEEEC2B8ne200100ILi0EEEPKc @2090
    _ZNSt3__112codecvt_utf8IDiLm1114111ELNS_12codecvt_modeE0EED0B8ne200100Ev @2091
    _ZNSt3__113__empty_stateIcED0Ev @2092
    _ZNSt3__113__tree_removeB8ne200100IPNS_16__tree_node_baseIPvEEEEvT_S5_ @2093
    _ZNSt3__113basic_filebufIcNS_11char_traitsIcEEE4openEPKcj @2094
    _ZNSt3__113basic_filebufIcNS_11char_traitsIcEEE4syncEv @2095
    _ZNSt3__113basic_filebufIcNS_11char_traitsIcEEE5imbueERKNS_6localeE @2096
    _ZNSt3__113basic_filebufIcNS_11char_traitsIcEEE6setbufEPcx @2097
    _ZNSt3__113basic_filebufIcNS_11char_traitsIcEEE7seekoffExNS_8ios_base7seekdirEj @2098
    _ZNSt3__113basic_filebufIcNS_11char_traitsIcEEE7seekposENS_4fposIiEEj @2099
    _ZNSt3__113basic_filebufIcNS_11char_traitsIcEEE8overflowEi @2100
    _ZNSt3__113basic_filebufIcNS_11char_traitsIcEEE9pbackfailEi @2101
    _ZNSt3__113basic_filebufIcNS_11char_traitsIcEEE9underflowEv @2102
    _ZNSt3__113basic_filebufIcNS_11char_traitsIcEEEC2Ev @2103
    _ZNSt3__113basic_filebufIcNS_11char_traitsIcEEED0Ev @2104
    _ZNSt3__113basic_filebufIcNS_11char_traitsIcEEED2Ev @2105
    _ZNSt3__113basic_ostreamIcNS_11char_traitsIcEEE6sentryD2Ev @2106
    _ZNSt3__113match_resultsINS_11__wrap_iterIPKcEENS_9allocatorINS_9sub_matchIS4_EEEEE8__assignB8ne200100IS3_NS5_INS6_IS3_EEEEEEvS4_S4_RKNS0_IT_T0_EEb @2107
    _ZNSt3__113regex_replaceB8ne200100INS_20back_insert_iteratorINS_12basic_stringIcNS_11char_traitsIcEENS_9allocatorIcEEEEEENS_11__wrap_iterIPKcEENS_12regex_traitsIcEEcEET_SF_T0_SG_RKNS_11basic_regexIT2_T1_EEPKSI_NS_15regex_constants15matc @2108
    _ZNSt3__113unordered_mapINS_12basic_stringIcNS_11char_traitsIcEENS_9allocatorIcEEEE13TensorStorageNS_4hashIS6_EENS_8equal_toIS6_EENS4_INS_4pairIKS6_S7_EEEEED2B8ne200100Ev @2109
    _ZNSt3__113unordered_mapINS_12basic_stringIcNS_11char_traitsIcEENS_9allocatorIcEEEEP11ggml_tensorNS_4hashIS6_EENS_8equal_toIS6_EENS4_INS_4pairIKS6_S8_EEEEED2B8ne200100Ev @2110
    _ZNSt3__113unordered_mapINS_12basic_stringIcNS_11char_traitsIcEENS_9allocatorIcEEEES6_NS_4hashIS6_EENS_8equal_toIS6_EENS4_INS_4pairIKS6_S6_EEEEEC2ESt16initializer_listISD_E @2111
    _ZNSt3__113unordered_mapINS_12basic_stringIcNS_11char_traitsIcEENS_9allocatorIcEEEES6_NS_4hashIS6_EENS_8equal_toIS6_EENS4_INS_4pairIKS6_S6_EEEEED2B8ne200100Ev @2112
    _ZNSt3__113unordered_mapINS_12basic_stringIcNS_11char_traitsIcEENS_9allocatorIcEEEEfNS_4hashIS6_EENS_8equal_toIS6_EENS4_INS_4pairIKS6_fEEEEEC2ERKSF_ @2113
    _ZNSt3__113unordered_mapINS_12basic_stringIcNS_11char_traitsIcEENS_9allocatorIcEEEEfNS_4hashIS6_EENS_8equal_toIS6_EENS4_INS_4pairIKS6_fEEEEED2B8ne200100Ev @2114
    _ZNSt3__114__split_bufferI13TensorStorageRNS_9allocatorIS1_EEED2Ev @2115
    _ZNSt3__114__split_bufferI14GGUFTensorInfoRNS_9allocatorIS1_EEED2Ev @2116
    _ZNSt3__114__split_bufferIN8nlohmann16json_abi_v3_11_210basic_jsonINS_3mapENS_6vectorENS_12basic_stringIcNS_11char_traitsIcEENS_9allocatorIcEEEEbxydS9_NS2_14adl_serializerENS5_IhNS9_IhEEEEEERNS9_ISF_EEED2Ev @2117
    _ZNSt3__114__split_bufferINS_12basic_stringIDiNS_11char_traitsIDiEENS_9allocatorIDiEEEERNS4_IS6_EEED2Ev @2118
    _ZNSt3__114__split_bufferINS_12basic_stringIcNS_11char_traitsIcEENS_9allocatorIcEEEERNS4_IS6_EEED2Ev @2119
    _ZNSt3__114__split_bufferINS_4pairINS_12basic_stringIcNS_11char_traitsIcEENS_9allocatorIcEEEE9ggml_typeEERNS5_IS9_EEED2Ev @2120
    _ZNSt3__114__split_bufferINS_4pairINS_12basic_stringIcNS_11char_traitsIcEENS_9allocatorIcEEEES7_EERNS5_IS8_EEED2Ev @2121
    _ZNSt3__114__split_bufferINS_4pairINS_12basic_stringIcNS_11char_traitsIcEENS_9allocatorIcEEEEfEERNS5_IS8_EEED2Ev @2122
    _ZNSt3__114__split_bufferINS_4pairINS_12basic_stringIcNS_11char_traitsIcEENS_9allocatorIcEEEEiEERNS5_IS8_EEED2Ev @2123
    _ZNSt3__114__split_bufferINS_6threadERNS_9allocatorIS1_EEED2Ev @2124
    _ZNSt3__114__split_bufferINS_7__stateIcEERNS_9allocatorIS2_EEED2Ev @2125
    _ZNSt3__114__split_bufferIPNS_7__stateIcEENS_9allocatorIS3_EEE12emplace_backIJRS3_EEEvDpOT_ @2126
    _ZNSt3__114__split_bufferIPNS_7__stateIcEENS_9allocatorIS3_EEE12emplace_backIJS3_EEEvDpOT_ @2127
    _ZNSt3__114__split_bufferIPNS_7__stateIcEENS_9allocatorIS3_EEE13emplace_frontIJRS3_EEEvDpOT_ @2128
    _ZNSt3__114__split_bufferIPNS_7__stateIcEENS_9allocatorIS3_EEE13emplace_frontIJS3_EEEvDpOT_ @2129
    _ZNSt3__114__split_bufferIPNS_7__stateIcEERNS_9allocatorIS3_EEE13emplace_frontIJRS3_EEEvDpOT_ @2130
    _ZNSt3__114basic_ifstreamIcNS_11char_traitsIcEEE5closeEv @2131
    _ZNSt3__114basic_ifstreamIcNS_11char_traitsIcEEEC1ERKNS_12basic_stringIcS2_NS_9allocatorIcEEEEj @2132
    _ZNSt3__114basic_ifstreamIcNS_11char_traitsIcEEED0Ev @2133
    _ZNSt3__114basic_ifstreamIcNS_11char_traitsIcEEED1Ev @2134
    _ZNSt3__114regex_iteratorINS_11__wrap_iterIPKcEEcNS_12regex_traitsIcEEEC2ES4_S4_RKNS_11basic_regexIcS6_EENS_15regex_constants15match_flag_typeE @2135
    _ZNSt3__114regex_iteratorINS_11__wrap_iterIPKcEEcNS_12regex_traitsIcEEEppEv @2136
    _ZNSt3__115__word_boundaryIcNS_12regex_traitsIcEEED0Ev @2137
    _ZNSt3__115__word_boundaryIcNS_12regex_traitsIcEEED2Ev @2138
    _ZNSt3__115allocate_sharedB8ne200100I10MMDiTModelNS_9allocatorIS1_EEJRP12ggml_backendRbR10OrderedMapINS_12basic_stringIcNS_11char_traitsIcEENS2_IcEEEE13TensorStorageEETnNS_9enable_ifIXntsr8is_arrayIT_EE5valueEiE4typeELi0EEENS_10shared_p @2139
    _ZNSt3__115allocate_sharedB8ne200100I11LLMEmbedderNS_9allocatorIS1_EEJRP12ggml_backendRbR10OrderedMapINS_12basic_stringIcNS_11char_traitsIcEENS2_IcEEEE13TensorStorageER9SDVersionETnNS_9enable_ifIXntsr8is_arrayIT_EE5valueEiE4typeELi0EEEN @2140
    _ZNSt3__115allocate_sharedB8ne200100I9UNetModelNS_9allocatorIS1_EEJRP12ggml_backendRbR10OrderedMapINS_12basic_stringIcNS_11char_traitsIcEENS2_IcEEEE13TensorStorageER9SDVersionETnNS_9enable_ifIXntsr8is_arrayIT_EE5valueEiE4typeELi0EEENS_1 @2141
    _ZNSt3__115allocate_sharedB8ne200100IN3LLM14Qwen2TokenizerENS_9allocatorIS2_EEJETnNS_9enable_ifIXntsr8is_arrayIT_EE5valueEiE4typeELi0EEENS_10shared_ptrIS6_EERKT0_DpOT1_ @2142
    _ZNSt3__115basic_stringbufIcNS_11char_traitsIcEENS_9allocatorIcEEE15__init_buf_ptrsB8ne200100Ev @2143
    _ZNSt3__115basic_stringbufIcNS_11char_traitsIcEENS_9allocatorIcEEE7seekoffExNS_8ios_base7seekdirEj @2144
    _ZNSt3__115basic_stringbufIcNS_11char_traitsIcEENS_9allocatorIcEEE7seekposENS_4fposIiEEj @2145
    _ZNSt3__115basic_stringbufIcNS_11char_traitsIcEENS_9allocatorIcEEE8overflowEi @2146
    _ZNSt3__115basic_stringbufIcNS_11char_traitsIcEENS_9allocatorIcEEE9pbackfailEi @2147
    _ZNSt3__115basic_stringbufIcNS_11char_traitsIcEENS_9allocatorIcEEE9underflowEv @2148
    _ZNSt3__115basic_stringbufIcNS_11char_traitsIcEENS_9allocatorIcEEED0Ev @2149
    _ZNSt3__115basic_stringbufIcNS_11char_traitsIcEENS_9allocatorIcEEED2Ev @2150
    _ZNSt3__115wstring_convertINS_12codecvt_utf8IDiLm1114111ELNS_12codecvt_modeE0EEEDiNS_9allocatorIDiEENS4_IcEEE10from_bytesEPKcS9_ @2151
    _ZNSt3__115wstring_convertINS_12codecvt_utf8IDiLm1114111ELNS_12codecvt_modeE0EEEDiNS_9allocatorIDiEENS4_IcEEE8to_bytesEPKDiS9_ @2152
    _ZNSt3__115wstring_convertINS_12codecvt_utf8IDiLm1114111ELNS_12codecvt_modeE0EEEDiNS_9allocatorIDiEENS4_IcEEED2Ev @2153
    _ZNSt3__116__back_ref_icaseIcNS_12regex_traitsIcEEED0Ev @2154
    _ZNSt3__116__back_ref_icaseIcNS_12regex_traitsIcEEED2Ev @2155
    _ZNSt3__116__insertion_sortB8ne200100INS_17_ClassicAlgPolicyERNS_6__lessIvvEEPNS_4pairINS_12basic_stringIcNS_11char_traitsIcEENS_9allocatorIcEEEEiEEEEvT1_SE_T0_ @2156
    _ZNSt3__116__owns_one_stateIcED0Ev @2157
    _ZNSt3__116__owns_one_stateIcED2Ev @2158
    _ZNSt3__116__pad_and_outputB8ne200100IcNS_11char_traitsIcEEEENS_19ostreambuf_iteratorIT_T0_EES6_PKS4_S8_S8_RNS_8ios_baseES4_ @2159
    _ZNSt3__116__throw_bad_castB8ne200100Ev @2160
    _ZNSt3__117__floyd_sift_downB8ne200100INS_17_ClassicAlgPolicyERNS_6__lessIvvEEPNS_4pairINS_12basic_stringIcNS_11char_traitsIcEENS_9allocatorIcEEEEiEEEET1_SE_OT0_NS_15iterator_traitsISE_E15difference_typeE @2161
    _ZNSt3__117__owns_two_statesIcED0Ev @2162
    _ZNSt3__117__owns_two_statesIcED2Ev @2163
    _ZNSt3__117__repeat_one_loopIcED0Ev @2164
    _ZNSt3__118__back_ref_collateIcNS_12regex_traitsIcEEED0Ev @2165
    _ZNSt3__118__back_ref_collateIcNS_12regex_traitsIcEEED2Ev @2166
    _ZNSt3__118__match_char_icaseIcNS_12regex_traitsIcEEED0Ev @2167
    _ZNSt3__118__match_char_icaseIcNS_12regex_traitsIcEEED2Ev @2168
    _ZNSt3__118basic_stringstreamIcNS_11char_traitsIcEENS_9allocatorIcEEEC1B8ne200100ERKNS_12basic_stringIcS2_S4_EEj @2169
    _ZNSt3__118basic_stringstreamIcNS_11char_traitsIcEENS_9allocatorIcEEEC1B8ne200100Ev @2170
    _ZNSt3__118basic_stringstreamIcNS_11char_traitsIcEENS_9allocatorIcEEED0Ev @2171
    _ZNSt3__118basic_stringstreamIcNS_11char_traitsIcEENS_9allocatorIcEEED1Ev @2172
    _ZNSt3__119__throw_range_errorB8ne200100EPKc @2173
    _ZNSt3__119__throw_regex_errorB8ne200100ILNS_15regex_constants10error_typeE11EEEvv @2174
    _ZNSt3__119__throw_regex_errorB8ne200100ILNS_15regex_constants10error_typeE12EEEvv @2175
    _ZNSt3__119__throw_regex_errorB8ne200100ILNS_15regex_constants10error_typeE14EEEvv @2176
    _ZNSt3__119__throw_regex_errorB8ne200100ILNS_15regex_constants10error_typeE15EEEvv @2177
    _ZNSt3__119__throw_regex_errorB8ne200100ILNS_15regex_constants10error_typeE16EEEvv @2178
    _ZNSt3__119__throw_regex_errorB8ne200100ILNS_15regex_constants10error_typeE17EEEvv @2179
    _ZNSt3__119__throw_regex_errorB8ne200100ILNS_15regex_constants10error_typeE1EEEvv @2180
    _ZNSt3__119__throw_regex_errorB8ne200100ILNS_15regex_constants10error_typeE2EEEvv @2181
    _ZNSt3__119__throw_regex_errorB8ne200100ILNS_15regex_constants10error_typeE3EEEvv @2182
    _ZNSt3__119__throw_regex_errorB8ne200100ILNS_15regex_constants10error_typeE4EEEvv @2183
    _ZNSt3__119__throw_regex_errorB8ne200100ILNS_15regex_constants10error_typeE5EEEvv @2184
    _ZNSt3__119__throw_regex_errorB8ne200100ILNS_15regex_constants10error_typeE6EEEvv @2185
    _ZNSt3__119__throw_regex_errorB8ne200100ILNS_15regex_constants10error_typeE7EEEvv @2186
    _ZNSt3__119__throw_regex_errorB8ne200100ILNS_15regex_constants10error_typeE8EEEvv @2187
    _ZNSt3__119__throw_regex_errorB8ne200100ILNS_15regex_constants10error_typeE9EEEvv @2188
    _ZNSt3__119basic_ostringstreamIcNS_11char_traitsIcEENS_9allocatorIcEEEC1B8ne200100Ev @2189
    _ZNSt3__119basic_ostringstreamIcNS_11char_traitsIcEENS_9allocatorIcEEED0Ev @2190
    _ZNSt3__119basic_ostringstreamIcNS_11char_traitsIcEENS_9allocatorIcEEED1Ev @2191
    _ZNSt3__119piecewise_constructE @2192
    _ZNSt3__120__bracket_expressionIcNS_12regex_traitsIcEEE10__add_charB8ne200100Ec @2193
    _ZNSt3__120__bracket_expressionIcNS_12regex_traitsIcEEE11__add_rangeB8ne200100ENS_12basic_stringIcNS_11char_traitsIcEENS_9allocatorIcEEEES9_ @2194
    _ZNSt3__120__bracket_expressionIcNS_12regex_traitsIcEEE13__add_digraphB8ne200100Ecc @2195
    _ZNSt3__120__bracket_expressionIcNS_12regex_traitsIcEEE14__add_neg_charB8ne200100Ec @2196
    _ZNSt3__120__bracket_expressionIcNS_12regex_traitsIcEEEC2B8ne200100ERKS2_PNS_6__nodeIcEEbbb @2197
    _ZNSt3__120__bracket_expressionIcNS_12regex_traitsIcEEED0Ev @2198
    _ZNSt3__120__bracket_expressionIcNS_12regex_traitsIcEEED2Ev @2199
    _ZNSt3__120__l_anchor_multilineIcED0Ev @2200
    _ZNSt3__120__match_char_collateIcNS_12regex_traitsIcEEED0Ev @2201
    _ZNSt3__120__match_char_collateIcNS_12regex_traitsIcEEED2Ev @2202
    _ZNSt3__120__r_anchor_multilineIcED0Ev @2203
    _ZNSt3__120__shared_ptr_emplaceI10ControlNetNS_9allocatorIS1_EEE16__on_zero_sharedEv @2204
    _ZNSt3__120__shared_ptr_emplaceI10ControlNetNS_9allocatorIS1_EEE21__on_zero_shared_weakEv @2205
    _ZNSt3__120__shared_ptr_emplaceI10ControlNetNS_9allocatorIS1_EEED0Ev @2206
    _ZNSt3__120__shared_ptr_emplaceI10ControlNetNS_9allocatorIS1_EEED2Ev @2207
    _ZNSt3__120__shared_ptr_emplaceI10MMDiTModelNS_9allocatorIS1_EEE16__on_zero_sharedEv @2208
    _ZNSt3__120__shared_ptr_emplaceI10MMDiTModelNS_9allocatorIS1_EEE21__on_zero_shared_weakEv @2209
    _ZNSt3__120__shared_ptr_emplaceI10MMDiTModelNS_9allocatorIS1_EEED0Ev @2210
    _ZNSt3__120__shared_ptr_emplaceI10MMDiTModelNS_9allocatorIS1_EEED2Ev @2211
    _ZNSt3__120__shared_ptr_emplaceI10MT19937RNGNS_9allocatorIS1_EEE16__on_zero_sharedEv @2212
    _ZNSt3__120__shared_ptr_emplaceI10MT19937RNGNS_9allocatorIS1_EEE21__on_zero_shared_weakEv @2213
    _ZNSt3__120__shared_ptr_emplaceI10MT19937RNGNS_9allocatorIS1_EEED0Ev @2214
    _ZNSt3__120__shared_ptr_emplaceI10MT19937RNGNS_9allocatorIS1_EEED2Ev @2215
    _ZNSt3__120__shared_ptr_emplaceI11LLMEmbedderNS_9allocatorIS1_EEE16__on_zero_sharedEv @2216
    _ZNSt3__120__shared_ptr_emplaceI11LLMEmbedderNS_9allocatorIS1_EEE21__on_zero_shared_weakEv @2217
    _ZNSt3__120__shared_ptr_emplaceI11LLMEmbedderNS_9allocatorIS1_EEED0Ev @2218
    _ZNSt3__120__shared_ptr_emplaceI11LLMEmbedderNS_9allocatorIS1_EEED2Ev @2219
    _ZNSt3__120__shared_ptr_emplaceI11ZImageModelNS_9allocatorIS1_EEE16__on_zero_sharedEv @2220
    _ZNSt3__120__shared_ptr_emplaceI11ZImageModelNS_9allocatorIS1_EEE21__on_zero_shared_weakEv @2221
    _ZNSt3__120__shared_ptr_emplaceI11ZImageModelNS_9allocatorIS1_EEED0Ev @2222
    _ZNSt3__120__shared_ptr_emplaceI11ZImageModelNS_9allocatorIS1_EEED2Ev @2223
    _ZNSt3__120__shared_ptr_emplaceI12AYSSchedulerNS_9allocatorIS1_EEE16__on_zero_sharedEv @2224
    _ZNSt3__120__shared_ptr_emplaceI12AYSSchedulerNS_9allocatorIS1_EEE21__on_zero_shared_weakEv @2225
    _ZNSt3__120__shared_ptr_emplaceI12AYSSchedulerNS_9allocatorIS1_EEED0Ev @2226
    _ZNSt3__120__shared_ptr_emplaceI12AYSSchedulerNS_9allocatorIS1_EEED2Ev @2227
    _ZNSt3__120__shared_ptr_emplaceI12EDMVDenoiserNS_9allocatorIS1_EEE16__on_zero_sharedEv @2228
    _ZNSt3__120__shared_ptr_emplaceI12EDMVDenoiserNS_9allocatorIS1_EEE21__on_zero_shared_weakEv @2229
    _ZNSt3__120__shared_ptr_emplaceI12EDMVDenoiserNS_9allocatorIS1_EEED0Ev @2230
    _ZNSt3__120__shared_ptr_emplaceI12EDMVDenoiserNS_9allocatorIS1_EEED2Ev @2231
    _ZNSt3__120__shared_ptr_emplaceI12LCMSchedulerNS_9allocatorIS1_EEE16__on_zero_sharedEv @2232
    _ZNSt3__120__shared_ptr_emplaceI12LCMSchedulerNS_9allocatorIS1_EEE21__on_zero_shared_weakEv @2233
    _ZNSt3__120__shared_ptr_emplaceI12LCMSchedulerNS_9allocatorIS1_EEED0Ev @2234
    _ZNSt3__120__shared_ptr_emplaceI12LCMSchedulerNS_9allocatorIS1_EEED2Ev @2235
    _ZNSt3__120__shared_ptr_emplaceI13AutoEncoderKLNS_9allocatorIS1_EEE16__on_zero_sharedEv @2236
    _ZNSt3__120__shared_ptr_emplaceI13AutoEncoderKLNS_9allocatorIS1_EEE21__on_zero_shared_weakEv @2237
    _ZNSt3__120__shared_ptr_emplaceI13AutoEncoderKLNS_9allocatorIS1_EEED0Ev @2238
    _ZNSt3__120__shared_ptr_emplaceI13AutoEncoderKLNS_9allocatorIS1_EEED2Ev @2239
    _ZNSt3__120__shared_ptr_emplaceI13GITSSchedulerNS_9allocatorIS1_EEE16__on_zero_sharedEv @2240
    _ZNSt3__120__shared_ptr_emplaceI13GITSSchedulerNS_9allocatorIS1_EEE21__on_zero_shared_weakEv @2241
    _ZNSt3__120__shared_ptr_emplaceI13GITSSchedulerNS_9allocatorIS1_EEED0Ev @2242
    _ZNSt3__120__shared_ptr_emplaceI13GITSSchedulerNS_9allocatorIS1_EEED2Ev @2243
    _ZNSt3__120__shared_ptr_emplaceI13STDDefaultRNGNS_9allocatorIS1_EEE16__on_zero_sharedEv @2244
    _ZNSt3__120__shared_ptr_emplaceI13STDDefaultRNGNS_9allocatorIS1_EEE21__on_zero_shared_weakEv @2245
    _ZNSt3__120__shared_ptr_emplaceI13STDDefaultRNGNS_9allocatorIS1_EEED0Ev @2246
    _ZNSt3__120__shared_ptr_emplaceI13STDDefaultRNGNS_9allocatorIS1_EEED2Ev @2247
    _ZNSt3__120__shared_ptr_emplaceI14QwenImageModelNS_9allocatorIS1_EEE16__on_zero_sharedEv @2248
    _ZNSt3__120__shared_ptr_emplaceI14QwenImageModelNS_9allocatorIS1_EEE21__on_zero_shared_weakEv @2249
    _ZNSt3__120__shared_ptr_emplaceI14QwenImageModelNS_9allocatorIS1_EEED0Ev @2250
    _ZNSt3__120__shared_ptr_emplaceI14QwenImageModelNS_9allocatorIS1_EEED2Ev @2251
    _ZNSt3__120__shared_ptr_emplaceI14T5CLIPEmbedderNS_9allocatorIS1_EEE16__on_zero_sharedEv @2252
    _ZNSt3__120__shared_ptr_emplaceI14T5CLIPEmbedderNS_9allocatorIS1_EEE21__on_zero_shared_weakEv @2253
    _ZNSt3__120__shared_ptr_emplaceI14T5CLIPEmbedderNS_9allocatorIS1_EEED0Ev @2254
    _ZNSt3__120__shared_ptr_emplaceI14T5CLIPEmbedderNS_9allocatorIS1_EEED2Ev @2255
    _ZNSt3__120__shared_ptr_emplaceI15CompVisDenoiserNS_9allocatorIS1_EEE16__on_zero_sharedEv @2256
    _ZNSt3__120__shared_ptr_emplaceI15CompVisDenoiserNS_9allocatorIS1_EEE21__on_zero_shared_weakEv @2257
    _ZNSt3__120__shared_ptr_emplaceI15CompVisDenoiserNS_9allocatorIS1_EEED0Ev @2258
    _ZNSt3__120__shared_ptr_emplaceI15CompVisDenoiserNS_9allocatorIS1_EEED2Ev @2259
    _ZNSt3__120__shared_ptr_emplaceI15KarrasSchedulerNS_9allocatorIS1_EEE16__on_zero_sharedEv @2260
    _ZNSt3__120__shared_ptr_emplaceI15KarrasSchedulerNS_9allocatorIS1_EEE21__on_zero_shared_weakEv @2261
    _ZNSt3__120__shared_ptr_emplaceI15KarrasSchedulerNS_9allocatorIS1_EEED0Ev @2262
    _ZNSt3__120__shared_ptr_emplaceI15KarrasSchedulerNS_9allocatorIS1_EEED2Ev @2263
    _ZNSt3__120__shared_ptr_emplaceI15SD3CLIPEmbedderNS_9allocatorIS1_EEE16__on_zero_sharedEv @2264
    _ZNSt3__120__shared_ptr_emplaceI15SD3CLIPEmbedderNS_9allocatorIS1_EEE21__on_zero_shared_weakEv @2265
    _ZNSt3__120__shared_ptr_emplaceI15SD3CLIPEmbedderNS_9allocatorIS1_EEED0Ev @2266
    _ZNSt3__120__shared_ptr_emplaceI15SD3CLIPEmbedderNS_9allocatorIS1_EEED2Ev @2267
    _ZNSt3__120__shared_ptr_emplaceI15SimpleSchedulerNS_9allocatorIS1_EEE16__on_zero_sharedEv @2268
    _ZNSt3__120__shared_ptr_emplaceI15SimpleSchedulerNS_9allocatorIS1_EEE21__on_zero_shared_weakEv @2269
    _ZNSt3__120__shared_ptr_emplaceI15SimpleSchedulerNS_9allocatorIS1_EEED0Ev @2270
    _ZNSt3__120__shared_ptr_emplaceI15SimpleSchedulerNS_9allocatorIS1_EEED2Ev @2271
    _ZNSt3__120__shared_ptr_emplaceI16CompVisVDenoiserNS_9allocatorIS1_EEE16__on_zero_sharedEv @2272
    _ZNSt3__120__shared_ptr_emplaceI16CompVisVDenoiserNS_9allocatorIS1_EEE21__on_zero_shared_weakEv @2273
    _ZNSt3__120__shared_ptr_emplaceI16CompVisVDenoiserNS_9allocatorIS1_EEED0Ev @2274
    _ZNSt3__120__shared_ptr_emplaceI16CompVisVDenoiserNS_9allocatorIS1_EEED2Ev @2275
    _ZNSt3__120__shared_ptr_emplaceI16FluxCLIPEmbedderNS_9allocatorIS1_EEE16__on_zero_sharedEv @2276
    _ZNSt3__120__shared_ptr_emplaceI16FluxCLIPEmbedderNS_9allocatorIS1_EEE21__on_zero_shared_weakEv @2277
    _ZNSt3__120__shared_ptr_emplaceI16FluxCLIPEmbedderNS_9allocatorIS1_EEED0Ev @2278
    _ZNSt3__120__shared_ptr_emplaceI16FluxCLIPEmbedderNS_9allocatorIS1_EEED2Ev @2279
    _ZNSt3__120__shared_ptr_emplaceI16FluxFlowDenoiserNS_9allocatorIS1_EEE16__on_zero_sharedEv @2280
    _ZNSt3__120__shared_ptr_emplaceI16FluxFlowDenoiserNS_9allocatorIS1_EEE21__on_zero_shared_weakEv @2281
    _ZNSt3__120__shared_ptr_emplaceI16FluxFlowDenoiserNS_9allocatorIS1_EEED0Ev @2282
    _ZNSt3__120__shared_ptr_emplaceI16FluxFlowDenoiserNS_9allocatorIS1_EEED2Ev @2283
    _ZNSt3__120__shared_ptr_emplaceI16MultiLoraAdapterNS_9allocatorIS1_EEE16__on_zero_sharedEv @2284
    _ZNSt3__120__shared_ptr_emplaceI16MultiLoraAdapterNS_9allocatorIS1_EEE21__on_zero_shared_weakEv @2285
    _ZNSt3__120__shared_ptr_emplaceI16MultiLoraAdapterNS_9allocatorIS1_EEEC2B8ne200100IJRNS_6vectorINS_10shared_ptrI9LoraModelEENS2_IS9_EEEEES3_TnNS_9enable_ifIXntsr7is_sameINT0_10value_typeENS_19__for_overwrite_tagEEE5valueEiE4typeELi0EEES @2286
    _ZNSt3__120__shared_ptr_emplaceI16MultiLoraAdapterNS_9allocatorIS1_EEED0Ev @2287
    _ZNSt3__120__shared_ptr_emplaceI16MultiLoraAdapterNS_9allocatorIS1_EEED2Ev @2288
    _ZNSt3__120__shared_ptr_emplaceI16TimestepEmbedderNS_9allocatorIS1_EEE16__on_zero_sharedEv @2289
    _ZNSt3__120__shared_ptr_emplaceI16TimestepEmbedderNS_9allocatorIS1_EEE21__on_zero_shared_weakEv @2290
    _ZNSt3__120__shared_ptr_emplaceI16TimestepEmbedderNS_9allocatorIS1_EEED0Ev @2291
    _ZNSt3__120__shared_ptr_emplaceI16TimestepEmbedderNS_9allocatorIS1_EEED2Ev @2292
    _ZNSt3__120__shared_ptr_emplaceI17DiscreteSchedulerNS_9allocatorIS1_EEE16__on_zero_sharedEv @2293
    _ZNSt3__120__shared_ptr_emplaceI17DiscreteSchedulerNS_9allocatorIS1_EEE21__on_zero_shared_weakEv @2294
    _ZNSt3__120__shared_ptr_emplaceI17DiscreteSchedulerNS_9allocatorIS1_EEED0Ev @2295
    _ZNSt3__120__shared_ptr_emplaceI17DiscreteSchedulerNS_9allocatorIS1_EEED2Ev @2296
    _ZNSt3__120__shared_ptr_emplaceI17Flux2FlowDenoiserNS_9allocatorIS1_EEE16__on_zero_sharedEv @2297
    _ZNSt3__120__shared_ptr_emplaceI17Flux2FlowDenoiserNS_9allocatorIS1_EEE21__on_zero_shared_weakEv @2298
    _ZNSt3__120__shared_ptr_emplaceI17Flux2FlowDenoiserNS_9allocatorIS1_EEED0Ev @2299
    _ZNSt3__120__shared_ptr_emplaceI17Flux2FlowDenoiserNS_9allocatorIS1_EEED2Ev @2300
    _ZNSt3__120__shared_ptr_emplaceI18KLOptimalSchedulerNS_9allocatorIS1_EEE16__on_zero_sharedEv @2301
    _ZNSt3__120__shared_ptr_emplaceI18KLOptimalSchedulerNS_9allocatorIS1_EEE21__on_zero_shared_weakEv @2302
    _ZNSt3__120__shared_ptr_emplaceI18KLOptimalSchedulerNS_9allocatorIS1_EEED0Ev @2303
    _ZNSt3__120__shared_ptr_emplaceI18KLOptimalSchedulerNS_9allocatorIS1_EEED2Ev @2304
    _ZNSt3__120__shared_ptr_emplaceI19CLIPTextModelRunnerNS_9allocatorIS1_EEE16__on_zero_sharedEv @2305
    _ZNSt3__120__shared_ptr_emplaceI19CLIPTextModelRunnerNS_9allocatorIS1_EEE21__on_zero_shared_weakEv @2306
    _ZNSt3__120__shared_ptr_emplaceI19CLIPTextModelRunnerNS_9allocatorIS1_EEED0Ev @2307
    _ZNSt3__120__shared_ptr_emplaceI19CLIPTextModelRunnerNS_9allocatorIS1_EEED2Ev @2308
    _ZNSt3__120__shared_ptr_emplaceI19PhotoMakerIDEncoderNS_9allocatorIS1_EEE16__on_zero_sharedEv @2309
    _ZNSt3__120__shared_ptr_emplaceI19PhotoMakerIDEncoderNS_9allocatorIS1_EEE21__on_zero_shared_weakEv @2310
    _ZNSt3__120__shared_ptr_emplaceI19PhotoMakerIDEncoderNS_9allocatorIS1_EEED0Ev @2311
    _ZNSt3__120__shared_ptr_emplaceI19PhotoMakerIDEncoderNS_9allocatorIS1_EEED2Ev @2312
    _ZNSt3__120__shared_ptr_emplaceI19SGMUniformSchedulerNS_9allocatorIS1_EEE16__on_zero_sharedEv @2313
    _ZNSt3__120__shared_ptr_emplaceI19SGMUniformSchedulerNS_9allocatorIS1_EEE21__on_zero_shared_weakEv @2314
    _ZNSt3__120__shared_ptr_emplaceI19SGMUniformSchedulerNS_9allocatorIS1_EEED0Ev @2315
    _ZNSt3__120__shared_ptr_emplaceI19SGMUniformSchedulerNS_9allocatorIS1_EEED2Ev @2316
    _ZNSt3__120__shared_ptr_emplaceI19SmoothStepSchedulerNS_9allocatorIS1_EEE16__on_zero_sharedEv @2317
    _ZNSt3__120__shared_ptr_emplaceI19SmoothStepSchedulerNS_9allocatorIS1_EEE21__on_zero_shared_weakEv @2318
    _ZNSt3__120__shared_ptr_emplaceI19SmoothStepSchedulerNS_9allocatorIS1_EEED0Ev @2319
    _ZNSt3__120__shared_ptr_emplaceI19SmoothStepSchedulerNS_9allocatorIS1_EEED2Ev @2320
    _ZNSt3__120__shared_ptr_emplaceI20BongTangentSchedulerNS_9allocatorIS1_EEE16__on_zero_sharedEv @2321
    _ZNSt3__120__shared_ptr_emplaceI20BongTangentSchedulerNS_9allocatorIS1_EEE21__on_zero_shared_weakEv @2322
    _ZNSt3__120__shared_ptr_emplaceI20BongTangentSchedulerNS_9allocatorIS1_EEED0Ev @2323
    _ZNSt3__120__shared_ptr_emplaceI20BongTangentSchedulerNS_9allocatorIS1_EEED2Ev @2324
    _ZNSt3__120__shared_ptr_emplaceI20DiscreteFlowDenoiserNS_9allocatorIS1_EEE16__on_zero_sharedEv @2325
    _ZNSt3__120__shared_ptr_emplaceI20DiscreteFlowDenoiserNS_9allocatorIS1_EEE21__on_zero_shared_weakEv @2326
    _ZNSt3__120__shared_ptr_emplaceI20DiscreteFlowDenoiserNS_9allocatorIS1_EEED0Ev @2327
    _ZNSt3__120__shared_ptr_emplaceI20DiscreteFlowDenoiserNS_9allocatorIS1_EEED2Ev @2328
    _ZNSt3__120__shared_ptr_emplaceI20ExponentialSchedulerNS_9allocatorIS1_EEE16__on_zero_sharedEv @2329
    _ZNSt3__120__shared_ptr_emplaceI20ExponentialSchedulerNS_9allocatorIS1_EEE21__on_zero_shared_weakEv @2330
    _ZNSt3__120__shared_ptr_emplaceI20ExponentialSchedulerNS_9allocatorIS1_EEED0Ev @2331
    _ZNSt3__120__shared_ptr_emplaceI20ExponentialSchedulerNS_9allocatorIS1_EEED2Ev @2332
    _ZNSt3__120__shared_ptr_emplaceI20TinyImageAutoEncoderNS_9allocatorIS1_EEE16__on_zero_sharedEv @2333
    _ZNSt3__120__shared_ptr_emplaceI20TinyImageAutoEncoderNS_9allocatorIS1_EEE21__on_zero_shared_weakEv @2334
    _ZNSt3__120__shared_ptr_emplaceI20TinyImageAutoEncoderNS_9allocatorIS1_EEED0Ev @2335
    _ZNSt3__120__shared_ptr_emplaceI20TinyImageAutoEncoderNS_9allocatorIS1_EEED2Ev @2336
    _ZNSt3__120__shared_ptr_emplaceI20TinyVideoAutoEncoderNS_9allocatorIS1_EEE16__on_zero_sharedEv @2337
    _ZNSt3__120__shared_ptr_emplaceI20TinyVideoAutoEncoderNS_9allocatorIS1_EEE21__on_zero_shared_weakEv @2338
    _ZNSt3__120__shared_ptr_emplaceI20TinyVideoAutoEncoderNS_9allocatorIS1_EEED0Ev @2339
    _ZNSt3__120__shared_ptr_emplaceI20TinyVideoAutoEncoderNS_9allocatorIS1_EEED2Ev @2340
    _ZNSt3__120__shared_ptr_emplaceI24FrozenCLIPVisionEmbedderNS_9allocatorIS1_EEE16__on_zero_sharedEv @2341
    _ZNSt3__120__shared_ptr_emplaceI24FrozenCLIPVisionEmbedderNS_9allocatorIS1_EEE21__on_zero_shared_weakEv @2342
    _ZNSt3__120__shared_ptr_emplaceI24FrozenCLIPVisionEmbedderNS_9allocatorIS1_EEED0Ev @2343
    _ZNSt3__120__shared_ptr_emplaceI24FrozenCLIPVisionEmbedderNS_9allocatorIS1_EEED2Ev @2344
    _ZNSt3__120__shared_ptr_emplaceI33FrozenCLIPEmbedderWithCustomWordsNS_9allocatorIS1_EEE16__on_zero_sharedEv @2345
    _ZNSt3__120__shared_ptr_emplaceI33FrozenCLIPEmbedderWithCustomWordsNS_9allocatorIS1_EEE21__on_zero_shared_weakEv @2346
    _ZNSt3__120__shared_ptr_emplaceI33FrozenCLIPEmbedderWithCustomWordsNS_9allocatorIS1_EEED0Ev @2347
    _ZNSt3__120__shared_ptr_emplaceI33FrozenCLIPEmbedderWithCustomWordsNS_9allocatorIS1_EEED2Ev @2348
    _ZNSt3__120__shared_ptr_emplaceI6Conv2dNS_9allocatorIS1_EEE16__on_zero_sharedEv @2349
    _ZNSt3__120__shared_ptr_emplaceI6Conv2dNS_9allocatorIS1_EEE21__on_zero_shared_weakEv @2350
    _ZNSt3__120__shared_ptr_emplaceI6Conv2dNS_9allocatorIS1_EEED0Ev @2351
    _ZNSt3__120__shared_ptr_emplaceI6Conv2dNS_9allocatorIS1_EEED2Ev @2352
    _ZNSt3__120__shared_ptr_emplaceI6ESRGANNS_9allocatorIS1_EEE16__on_zero_sharedEv @2353
    _ZNSt3__120__shared_ptr_emplaceI6ESRGANNS_9allocatorIS1_EEE21__on_zero_shared_weakEv @2354
    _ZNSt3__120__shared_ptr_emplaceI6ESRGANNS_9allocatorIS1_EEED0Ev @2355
    _ZNSt3__120__shared_ptr_emplaceI6ESRGANNS_9allocatorIS1_EEED2Ev @2356
    _ZNSt3__120__shared_ptr_emplaceI6LinearNS_9allocatorIS1_EEE16__on_zero_sharedEv @2357
    _ZNSt3__120__shared_ptr_emplaceI6LinearNS_9allocatorIS1_EEE21__on_zero_shared_weakEv @2358
    _ZNSt3__120__shared_ptr_emplaceI6LinearNS_9allocatorIS1_EEED0Ev @2359
    _ZNSt3__120__shared_ptr_emplaceI6LinearNS_9allocatorIS1_EEED2Ev @2360
    _ZNSt3__120__shared_ptr_emplaceI7FakeVAENS_9allocatorIS1_EEE16__on_zero_sharedEv @2361
    _ZNSt3__120__shared_ptr_emplaceI7FakeVAENS_9allocatorIS1_EEE21__on_zero_shared_weakEv @2362
    _ZNSt3__120__shared_ptr_emplaceI7FakeVAENS_9allocatorIS1_EEED0Ev @2363
    _ZNSt3__120__shared_ptr_emplaceI7FakeVAENS_9allocatorIS1_EEED2Ev @2364
    _ZNSt3__120__shared_ptr_emplaceI7RMSNormNS_9allocatorIS1_EEE16__on_zero_sharedEv @2365
    _ZNSt3__120__shared_ptr_emplaceI7RMSNormNS_9allocatorIS1_EEE21__on_zero_shared_weakEv @2366
    _ZNSt3__120__shared_ptr_emplaceI7RMSNormNS_9allocatorIS1_EEED0Ev @2367
    _ZNSt3__120__shared_ptr_emplaceI7RMSNormNS_9allocatorIS1_EEED2Ev @2368
    _ZNSt3__120__shared_ptr_emplaceI8T5RunnerNS_9allocatorIS1_EEE16__on_zero_sharedEv @2369
    _ZNSt3__120__shared_ptr_emplaceI8T5RunnerNS_9allocatorIS1_EEE21__on_zero_shared_weakEv @2370
    _ZNSt3__120__shared_ptr_emplaceI8T5RunnerNS_9allocatorIS1_EEED0Ev @2371
    _ZNSt3__120__shared_ptr_emplaceI8T5RunnerNS_9allocatorIS1_EEED2Ev @2372
    _ZNSt3__120__shared_ptr_emplaceI8WanModelNS_9allocatorIS1_EEE16__on_zero_sharedEv @2373
    _ZNSt3__120__shared_ptr_emplaceI8WanModelNS_9allocatorIS1_EEE21__on_zero_shared_weakEv @2374
    _ZNSt3__120__shared_ptr_emplaceI8WanModelNS_9allocatorIS1_EEED0Ev @2375
    _ZNSt3__120__shared_ptr_emplaceI8WanModelNS_9allocatorIS1_EEED2Ev @2376
    _ZNSt3__120__shared_ptr_emplaceI9FluxModelNS_9allocatorIS1_EEE16__on_zero_sharedEv @2377
    _ZNSt3__120__shared_ptr_emplaceI9FluxModelNS_9allocatorIS1_EEE21__on_zero_shared_weakEv @2378
    _ZNSt3__120__shared_ptr_emplaceI9FluxModelNS_9allocatorIS1_EEEC2B8ne200100IJRP12ggml_backendRbR10OrderedMapINS_12basic_stringIcNS_11char_traitsIcEENS2_IcEEEE13TensorStorageER9SDVersionRKbES3_TnNS_9enable_ifIXntsr7is_sameINT0_10value_typ @2379
    _ZNSt3__120__shared_ptr_emplaceI9FluxModelNS_9allocatorIS1_EEED0Ev @2380
    _ZNSt3__120__shared_ptr_emplaceI9FluxModelNS_9allocatorIS1_EEED2Ev @2381
    _ZNSt3__120__shared_ptr_emplaceI9LayerNormNS_9allocatorIS1_EEE16__on_zero_sharedEv @2382
    _ZNSt3__120__shared_ptr_emplaceI9LayerNormNS_9allocatorIS1_EEE21__on_zero_shared_weakEv @2383
    _ZNSt3__120__shared_ptr_emplaceI9LayerNormNS_9allocatorIS1_EEED0Ev @2384
    _ZNSt3__120__shared_ptr_emplaceI9LayerNormNS_9allocatorIS1_EEED2Ev @2385
    _ZNSt3__120__shared_ptr_emplaceI9LoraModelNS_9allocatorIS1_EEE16__on_zero_sharedEv @2386
    _ZNSt3__120__shared_ptr_emplaceI9LoraModelNS_9allocatorIS1_EEE21__on_zero_shared_weakEv @2387
    _ZNSt3__120__shared_ptr_emplaceI9LoraModelNS_9allocatorIS1_EEED0Ev @2388
    _ZNSt3__120__shared_ptr_emplaceI9LoraModelNS_9allocatorIS1_EEED2Ev @2389
    _ZNSt3__120__shared_ptr_emplaceI9PhiloxRNGNS_9allocatorIS1_EEE16__on_zero_sharedEv @2390
    _ZNSt3__120__shared_ptr_emplaceI9PhiloxRNGNS_9allocatorIS1_EEE21__on_zero_shared_weakEv @2391
    _ZNSt3__120__shared_ptr_emplaceI9PhiloxRNGNS_9allocatorIS1_EEED0Ev @2392
    _ZNSt3__120__shared_ptr_emplaceI9PhiloxRNGNS_9allocatorIS1_EEED2Ev @2393
    _ZNSt3__120__shared_ptr_emplaceI9UNetModelNS_9allocatorIS1_EEE16__on_zero_sharedEv @2394
    _ZNSt3__120__shared_ptr_emplaceI9UNetModelNS_9allocatorIS1_EEE21__on_zero_shared_weakEv @2395
    _ZNSt3__120__shared_ptr_emplaceI9UNetModelNS_9allocatorIS1_EEED0Ev @2396
    _ZNSt3__120__shared_ptr_emplaceI9UNetModelNS_9allocatorIS1_EEED2Ev @2397
    _ZNSt3__120__shared_ptr_emplaceIN3LLM14Qwen2TokenizerENS_9allocatorIS2_EEE16__on_zero_sharedEv @2398
    _ZNSt3__120__shared_ptr_emplaceIN3LLM14Qwen2TokenizerENS_9allocatorIS2_EEE21__on_zero_shared_weakEv @2399
    _ZNSt3__120__shared_ptr_emplaceIN3LLM14Qwen2TokenizerENS_9allocatorIS2_EEED0Ev @2400
    _ZNSt3__120__shared_ptr_emplaceIN3LLM14Qwen2TokenizerENS_9allocatorIS2_EEED2Ev @2401
    _ZNSt3__120__shared_ptr_emplaceIN3LLM16MistralTokenizerENS_9allocatorIS2_EEE16__on_zero_sharedEv @2402
    _ZNSt3__120__shared_ptr_emplaceIN3LLM16MistralTokenizerENS_9allocatorIS2_EEE21__on_zero_shared_weakEv @2403
    _ZNSt3__120__shared_ptr_emplaceIN3LLM16MistralTokenizerENS_9allocatorIS2_EEED0Ev @2404
    _ZNSt3__120__shared_ptr_emplaceIN3LLM16MistralTokenizerENS_9allocatorIS2_EEED2Ev @2405
    _ZNSt3__120__shared_ptr_emplaceIN3LLM3MLPENS_9allocatorIS2_EEE16__on_zero_sharedEv @2406
    _ZNSt3__120__shared_ptr_emplaceIN3LLM3MLPENS_9allocatorIS2_EEE21__on_zero_shared_weakEv @2407
    _ZNSt3__120__shared_ptr_emplaceIN3LLM3MLPENS_9allocatorIS2_EEED0Ev @2408
    _ZNSt3__120__shared_ptr_emplaceIN3LLM3MLPENS_9allocatorIS2_EEED2Ev @2409
    _ZNSt3__120__shared_ptr_emplaceIN3LLM9AttentionENS_9allocatorIS2_EEE16__on_zero_sharedEv @2410
    _ZNSt3__120__shared_ptr_emplaceIN3LLM9AttentionENS_9allocatorIS2_EEE21__on_zero_shared_weakEv @2411
    _ZNSt3__120__shared_ptr_emplaceIN3LLM9AttentionENS_9allocatorIS2_EEED0Ev @2412
    _ZNSt3__120__shared_ptr_emplaceIN3LLM9AttentionENS_9allocatorIS2_EEED2Ev @2413
    _ZNSt3__120__shared_ptr_emplaceIN3LLM9LLMRunnerENS_9allocatorIS2_EEE16__on_zero_sharedEv @2414
    _ZNSt3__120__shared_ptr_emplaceIN3LLM9LLMRunnerENS_9allocatorIS2_EEE21__on_zero_shared_weakEv @2415
    _ZNSt3__120__shared_ptr_emplaceIN3LLM9LLMRunnerENS_9allocatorIS2_EEED0Ev @2416
    _ZNSt3__120__shared_ptr_emplaceIN3LLM9LLMRunnerENS_9allocatorIS2_EEED2Ev @2417
    _ZNSt3__120__shared_ptr_emplaceIN3WAN12WanVAERunnerENS_9allocatorIS2_EEE16__on_zero_sharedEv @2418
    _ZNSt3__120__shared_ptr_emplaceIN3WAN12WanVAERunnerENS_9allocatorIS2_EEE21__on_zero_shared_weakEv @2419
    _ZNSt3__120__shared_ptr_emplaceIN3WAN12WanVAERunnerENS_9allocatorIS2_EEED0Ev @2420
    _ZNSt3__120__shared_ptr_emplaceIN3WAN12WanVAERunnerENS_9allocatorIS2_EEED2Ev @2421
    _ZNSt3__120__shared_ptr_emplaceIN4Flux10ModulationENS_9allocatorIS2_EEE16__on_zero_sharedEv @2422
    _ZNSt3__120__shared_ptr_emplaceIN4Flux10ModulationENS_9allocatorIS2_EEE21__on_zero_shared_weakEv @2423
    _ZNSt3__120__shared_ptr_emplaceIN4Flux10ModulationENS_9allocatorIS2_EEED0Ev @2424
    _ZNSt3__120__shared_ptr_emplaceIN4Flux10ModulationENS_9allocatorIS2_EEED2Ev @2425
    _ZNSt3__120__shared_ptr_emplaceIN4Flux11MLPEmbedderENS_9allocatorIS2_EEE16__on_zero_sharedEv @2426
    _ZNSt3__120__shared_ptr_emplaceIN4Flux11MLPEmbedderENS_9allocatorIS2_EEE21__on_zero_shared_weakEv @2427
    _ZNSt3__120__shared_ptr_emplaceIN4Flux11MLPEmbedderENS_9allocatorIS2_EEED0Ev @2428
    _ZNSt3__120__shared_ptr_emplaceIN4Flux11MLPEmbedderENS_9allocatorIS2_EEED2Ev @2429
    _ZNSt3__120__shared_ptr_emplaceIN4Flux12NerfEmbedderENS_9allocatorIS2_EEE16__on_zero_sharedEv @2430
    _ZNSt3__120__shared_ptr_emplaceIN4Flux12NerfEmbedderENS_9allocatorIS2_EEE21__on_zero_shared_weakEv @2431
    _ZNSt3__120__shared_ptr_emplaceIN4Flux12NerfEmbedderENS_9allocatorIS2_EEED0Ev @2432
    _ZNSt3__120__shared_ptr_emplaceIN4Flux12NerfEmbedderENS_9allocatorIS2_EEED2Ev @2433
    _ZNSt3__120__shared_ptr_emplaceIN4Flux12NerfGLUBlockENS_9allocatorIS2_EEE16__on_zero_sharedEv @2434
    _ZNSt3__120__shared_ptr_emplaceIN4Flux12NerfGLUBlockENS_9allocatorIS2_EEE21__on_zero_shared_weakEv @2435
    _ZNSt3__120__shared_ptr_emplaceIN4Flux12NerfGLUBlockENS_9allocatorIS2_EEED0Ev @2436
    _ZNSt3__120__shared_ptr_emplaceIN4Flux12NerfGLUBlockENS_9allocatorIS2_EEED2Ev @2437
    _ZNSt3__120__shared_ptr_emplaceIN4Flux17DoubleStreamBlockENS_9allocatorIS2_EEE16__on_zero_sharedEv @2438
    _ZNSt3__120__shared_ptr_emplaceIN4Flux17DoubleStreamBlockENS_9allocatorIS2_EEE21__on_zero_shared_weakEv @2439
    _ZNSt3__120__shared_ptr_emplaceIN4Flux17DoubleStreamBlockENS_9allocatorIS2_EEED0Ev @2440
    _ZNSt3__120__shared_ptr_emplaceIN4Flux17DoubleStreamBlockENS_9allocatorIS2_EEED2Ev @2441
    _ZNSt3__120__shared_ptr_emplaceIN4Flux17SingleStreamBlockENS_9allocatorIS2_EEE16__on_zero_sharedEv @2442
    _ZNSt3__120__shared_ptr_emplaceIN4Flux17SingleStreamBlockENS_9allocatorIS2_EEE21__on_zero_shared_weakEv @2443
    _ZNSt3__120__shared_ptr_emplaceIN4Flux17SingleStreamBlockENS_9allocatorIS2_EEED0Ev @2444
    _ZNSt3__120__shared_ptr_emplaceIN4Flux17SingleStreamBlockENS_9allocatorIS2_EEED2Ev @2445
    _ZNSt3__120__shared_ptr_emplaceIN4Flux18ChromaApproximatorENS_9allocatorIS2_EEE16__on_zero_sharedEv @2446
    _ZNSt3__120__shared_ptr_emplaceIN4Flux18ChromaApproximatorENS_9allocatorIS2_EEE21__on_zero_shared_weakEv @2447
    _ZNSt3__120__shared_ptr_emplaceIN4Flux18ChromaApproximatorENS_9allocatorIS2_EEED0Ev @2448
    _ZNSt3__120__shared_ptr_emplaceIN4Flux18ChromaApproximatorENS_9allocatorIS2_EEED2Ev @2449
    _ZNSt3__120__shared_ptr_emplaceIN4Flux18NerfFinalLayerConvENS_9allocatorIS2_EEE16__on_zero_sharedEv @2450
    _ZNSt3__120__shared_ptr_emplaceIN4Flux18NerfFinalLayerConvENS_9allocatorIS2_EEE21__on_zero_shared_weakEv @2451
    _ZNSt3__120__shared_ptr_emplaceIN4Flux18NerfFinalLayerConvENS_9allocatorIS2_EEED0Ev @2452
    _ZNSt3__120__shared_ptr_emplaceIN4Flux18NerfFinalLayerConvENS_9allocatorIS2_EEED2Ev @2453
    _ZNSt3__120__shared_ptr_emplaceIN4Flux7RMSNormENS_9allocatorIS2_EEE16__on_zero_sharedEv @2454
    _ZNSt3__120__shared_ptr_emplaceIN4Flux7RMSNormENS_9allocatorIS2_EEE21__on_zero_shared_weakEv @2455
    _ZNSt3__120__shared_ptr_emplaceIN4Flux7RMSNormENS_9allocatorIS2_EEED0Ev @2456
    _ZNSt3__120__shared_ptr_emplaceIN4Flux7RMSNormENS_9allocatorIS2_EEED2Ev @2457
    _ZNSt3__120__shared_ptr_emplaceIN4Flux9LastLayerENS_9allocatorIS2_EEE16__on_zero_sharedEv @2458
    _ZNSt3__120__shared_ptr_emplaceIN4Flux9LastLayerENS_9allocatorIS2_EEE21__on_zero_shared_weakEv @2459
    _ZNSt3__120__shared_ptr_emplaceIN4Flux9LastLayerENS_9allocatorIS2_EEED0Ev @2460
    _ZNSt3__120__shared_ptr_emplaceIN4Flux9LastLayerENS_9allocatorIS2_EEED2Ev @2461
    _ZNSt3__120__shared_ptr_emplaceIN6ZImage10FinalLayerENS_9allocatorIS2_EEE16__on_zero_sharedEv @2462
    _ZNSt3__120__shared_ptr_emplaceIN6ZImage10FinalLayerENS_9allocatorIS2_EEE21__on_zero_shared_weakEv @2463
    _ZNSt3__120__shared_ptr_emplaceIN6ZImage10FinalLayerENS_9allocatorIS2_EEED0Ev @2464
    _ZNSt3__120__shared_ptr_emplaceIN6ZImage10FinalLayerENS_9allocatorIS2_EEED2Ev @2465
    _ZNSt3__120__shared_ptr_emplaceIN6ZImage11FeedForwardENS_9allocatorIS2_EEE16__on_zero_sharedEv @2466
    _ZNSt3__120__shared_ptr_emplaceIN6ZImage11FeedForwardENS_9allocatorIS2_EEE21__on_zero_shared_weakEv @2467
    _ZNSt3__120__shared_ptr_emplaceIN6ZImage11FeedForwardENS_9allocatorIS2_EEED0Ev @2468
    _ZNSt3__120__shared_ptr_emplaceIN6ZImage11FeedForwardENS_9allocatorIS2_EEED2Ev @2469
    _ZNSt3__120__shared_ptr_emplaceIN6ZImage14JointAttentionENS_9allocatorIS2_EEE16__on_zero_sharedEv @2470
    _ZNSt3__120__shared_ptr_emplaceIN6ZImage14JointAttentionENS_9allocatorIS2_EEE21__on_zero_shared_weakEv @2471
    _ZNSt3__120__shared_ptr_emplaceIN6ZImage14JointAttentionENS_9allocatorIS2_EEED0Ev @2472
    _ZNSt3__120__shared_ptr_emplaceIN6ZImage14JointAttentionENS_9allocatorIS2_EEED2Ev @2473
    _ZNSt3__120__shared_ptr_emplaceIN6ZImage21JointTransformerBlockENS_9allocatorIS2_EEE16__on_zero_sharedEv @2474
    _ZNSt3__120__shared_ptr_emplaceIN6ZImage21JointTransformerBlockENS_9allocatorIS2_EEE21__on_zero_shared_weakEv @2475
    _ZNSt3__120__shared_ptr_emplaceIN6ZImage21JointTransformerBlockENS_9allocatorIS2_EEED0Ev @2476
    _ZNSt3__120__shared_ptr_emplaceIN6ZImage21JointTransformerBlockENS_9allocatorIS2_EEED2Ev @2477
    _ZNSt3__120__shared_ptr_pointerIP10FinalLayerNS_10shared_ptrI9GGMLBlockE27__shared_ptr_default_deleteIS4_S1_EENS_9allocatorIS1_EEE16__on_zero_sharedEv @2478
    _ZNSt3__120__shared_ptr_pointerIP10FinalLayerNS_10shared_ptrI9GGMLBlockE27__shared_ptr_default_deleteIS4_S1_EENS_9allocatorIS1_EEE21__on_zero_shared_weakEv @2479
    _ZNSt3__120__shared_ptr_pointerIP10FinalLayerNS_10shared_ptrI9GGMLBlockE27__shared_ptr_default_deleteIS4_S1_EENS_9allocatorIS1_EEED0Ev @2480
    _ZNSt3__120__shared_ptr_pointerIP10FuseModuleNS_10shared_ptrI9GGMLBlockE27__shared_ptr_default_deleteIS4_S1_EENS_9allocatorIS1_EEE16__on_zero_sharedEv @2481
    _ZNSt3__120__shared_ptr_pointerIP10FuseModuleNS_10shared_ptrI9GGMLBlockE27__shared_ptr_default_deleteIS4_S1_EENS_9allocatorIS1_EEE21__on_zero_shared_weakEv @2482
    _ZNSt3__120__shared_ptr_pointerIP10FuseModuleNS_10shared_ptrI9GGMLBlockE27__shared_ptr_default_deleteIS4_S1_EENS_9allocatorIS1_EEED0Ev @2483
    _ZNSt3__120__shared_ptr_pointerIP10JointBlockNS_10shared_ptrI9GGMLBlockE27__shared_ptr_default_deleteIS4_S1_EENS_9allocatorIS1_EEE16__on_zero_sharedEv @2484
    _ZNSt3__120__shared_ptr_pointerIP10JointBlockNS_10shared_ptrI9GGMLBlockE27__shared_ptr_default_deleteIS4_S1_EENS_9allocatorIS1_EEE21__on_zero_shared_weakEv @2485
    _ZNSt3__120__shared_ptr_pointerIP10JointBlockNS_10shared_ptrI9GGMLBlockE27__shared_ptr_default_deleteIS4_S1_EENS_9allocatorIS1_EEED0Ev @2486
    _ZNSt3__120__shared_ptr_pointerIP10PatchEmbedNS_10shared_ptrI9GGMLBlockE27__shared_ptr_default_deleteIS4_S1_EENS_9allocatorIS1_EEE16__on_zero_sharedEv @2487
    _ZNSt3__120__shared_ptr_pointerIP10PatchEmbedNS_10shared_ptrI9GGMLBlockE27__shared_ptr_default_deleteIS4_S1_EENS_9allocatorIS1_EEE21__on_zero_shared_weakEv @2488
    _ZNSt3__120__shared_ptr_pointerIP10PatchEmbedNS_10shared_ptrI9GGMLBlockE27__shared_ptr_default_deleteIS4_S1_EENS_9allocatorIS1_EEED0Ev @2489
    _ZNSt3__120__shared_ptr_pointerIP11CLIPEncoderNS_10shared_ptrI9GGMLBlockE27__shared_ptr_default_deleteIS4_S1_EENS_9allocatorIS1_EEE16__on_zero_sharedEv @2490
    _ZNSt3__120__shared_ptr_pointerIP11CLIPEncoderNS_10shared_ptrI9GGMLBlockE27__shared_ptr_default_deleteIS4_S1_EENS_9allocatorIS1_EEE21__on_zero_shared_weakEv @2491
    _ZNSt3__120__shared_ptr_pointerIP11CLIPEncoderNS_10shared_ptrI9GGMLBlockE27__shared_ptr_default_deleteIS4_S1_EENS_9allocatorIS1_EEED0Ev @2492
    _ZNSt3__120__shared_ptr_pointerIP11FeedForwardNS_10shared_ptrI9GGMLBlockE27__shared_ptr_default_deleteIS4_S1_EENS_9allocatorIS1_EEE16__on_zero_sharedEv @2493
    _ZNSt3__120__shared_ptr_pointerIP11FeedForwardNS_10shared_ptrI9GGMLBlockE27__shared_ptr_default_deleteIS4_S1_EENS_9allocatorIS1_EEE21__on_zero_shared_weakEv @2494
    _ZNSt3__120__shared_ptr_pointerIP11FeedForwardNS_10shared_ptrI9GGMLBlockE27__shared_ptr_default_deleteIS4_S1_EENS_9allocatorIS1_EEED0Ev @2495
    _ZNSt3__120__shared_ptr_pointerIP11GroupNorm32NS_10shared_ptrI9GGMLBlockE27__shared_ptr_default_deleteIS4_S1_EENS_9allocatorIS1_EEE16__on_zero_sharedEv @2496
    _ZNSt3__120__shared_ptr_pointerIP11GroupNorm32NS_10shared_ptrI9GGMLBlockE27__shared_ptr_default_deleteIS4_S1_EENS_9allocatorIS1_EEE21__on_zero_shared_weakEv @2497
    _ZNSt3__120__shared_ptr_pointerIP11GroupNorm32NS_10shared_ptrI9GGMLBlockE27__shared_ptr_default_deleteIS4_S1_EENS_9allocatorIS1_EEED0Ev @2498
    _ZNSt3__120__shared_ptr_pointerIP11ResnetBlockNS_10shared_ptrI9GGMLBlockE27__shared_ptr_default_deleteIS4_S1_EENS_9allocatorIS1_EEE16__on_zero_sharedEv @2499
    _ZNSt3__120__shared_ptr_pointerIP11ResnetBlockNS_10shared_ptrI9GGMLBlockE27__shared_ptr_default_deleteIS4_S1_EENS_9allocatorIS1_EEE21__on_zero_shared_weakEv @2500
    _ZNSt3__120__shared_ptr_pointerIP11ResnetBlockNS_10shared_ptrI9GGMLBlockE27__shared_ptr_default_deleteIS4_S1_EENS_9allocatorIS1_EEED0Ev @2501
    _ZNSt3__120__shared_ptr_pointerIP11T5AttentionNS_10shared_ptrI9GGMLBlockE27__shared_ptr_default_deleteIS4_S1_EENS_9allocatorIS1_EEE16__on_zero_sharedEv @2502
    _ZNSt3__120__shared_ptr_pointerIP11T5AttentionNS_10shared_ptrI9GGMLBlockE27__shared_ptr_default_deleteIS4_S1_EENS_9allocatorIS1_EEE21__on_zero_shared_weakEv @2503
    _ZNSt3__120__shared_ptr_pointerIP11T5AttentionNS_10shared_ptrI9GGMLBlockE27__shared_ptr_default_deleteIS4_S1_EENS_9allocatorIS1_EEED0Ev @2504
    _ZNSt3__120__shared_ptr_pointerIP11T5LayerNormNS_10shared_ptrI9GGMLBlockE27__shared_ptr_default_deleteIS4_S1_EENS_9allocatorIS1_EEE16__on_zero_sharedEv @2505
    _ZNSt3__120__shared_ptr_pointerIP11T5LayerNormNS_10shared_ptrI9GGMLBlockE27__shared_ptr_default_deleteIS4_S1_EENS_9allocatorIS1_EEE21__on_zero_shared_weakEv @2506
    _ZNSt3__120__shared_ptr_pointerIP11T5LayerNormNS_10shared_ptrI9GGMLBlockE27__shared_ptr_default_deleteIS4_S1_EENS_9allocatorIS1_EEED0Ev @2507
    _ZNSt3__120__shared_ptr_pointerIP11TinyDecoderNS_10shared_ptrI9GGMLBlockE27__shared_ptr_default_deleteIS4_S1_EENS_9allocatorIS1_EEE16__on_zero_sharedEv @2508
    _ZNSt3__120__shared_ptr_pointerIP11TinyDecoderNS_10shared_ptrI9GGMLBlockE27__shared_ptr_default_deleteIS4_S1_EENS_9allocatorIS1_EEE21__on_zero_shared_weakEv @2509
    _ZNSt3__120__shared_ptr_pointerIP11TinyDecoderNS_10shared_ptrI9GGMLBlockE27__shared_ptr_default_deleteIS4_S1_EENS_9allocatorIS1_EEED0Ev @2510
    _ZNSt3__120__shared_ptr_pointerIP11TinyEncoderNS_10shared_ptrI9GGMLBlockE27__shared_ptr_default_deleteIS4_S1_EENS_9allocatorIS1_EEE16__on_zero_sharedEv @2511
    _ZNSt3__120__shared_ptr_pointerIP11TinyEncoderNS_10shared_ptrI9GGMLBlockE27__shared_ptr_default_deleteIS4_S1_EENS_9allocatorIS1_EEE21__on_zero_shared_weakEv @2512
    _ZNSt3__120__shared_ptr_pointerIP11TinyEncoderNS_10shared_ptrI9GGMLBlockE27__shared_ptr_default_deleteIS4_S1_EENS_9allocatorIS1_EEED0Ev @2513
    _ZNSt3__120__shared_ptr_pointerIP12AlphaBlenderNS_10shared_ptrI9GGMLBlockE27__shared_ptr_default_deleteIS4_S1_EENS_9allocatorIS1_EEE16__on_zero_sharedEv @2514
    _ZNSt3__120__shared_ptr_pointerIP12AlphaBlenderNS_10shared_ptrI9GGMLBlockE27__shared_ptr_default_deleteIS4_S1_EENS_9allocatorIS1_EEE21__on_zero_shared_weakEv @2515
    _ZNSt3__120__shared_ptr_pointerIP12AlphaBlenderNS_10shared_ptrI9GGMLBlockE27__shared_ptr_default_deleteIS4_S1_EENS_9allocatorIS1_EEED0Ev @2516
    _ZNSt3__120__shared_ptr_pointerIP13PMFeedForwardNS_10shared_ptrI9GGMLBlockE27__shared_ptr_default_deleteIS4_S1_EENS_9allocatorIS1_EEE16__on_zero_sharedEv @2517
    _ZNSt3__120__shared_ptr_pointerIP13PMFeedForwardNS_10shared_ptrI9GGMLBlockE27__shared_ptr_default_deleteIS4_S1_EENS_9allocatorIS1_EEE21__on_zero_shared_weakEv @2518
    _ZNSt3__120__shared_ptr_pointerIP13PMFeedForwardNS_10shared_ptrI9GGMLBlockE27__shared_ptr_default_deleteIS4_S1_EENS_9allocatorIS1_EEED0Ev @2519
    _ZNSt3__120__shared_ptr_pointerIP13SelfAttentionNS_10shared_ptrI9GGMLBlockE27__shared_ptr_default_deleteIS4_S1_EENS_9allocatorIS1_EEE16__on_zero_sharedEv @2520
    _ZNSt3__120__shared_ptr_pointerIP13SelfAttentionNS_10shared_ptrI9GGMLBlockE27__shared_ptr_default_deleteIS4_S1_EENS_9allocatorIS1_EEE21__on_zero_shared_weakEv @2521
    _ZNSt3__120__shared_ptr_pointerIP13SelfAttentionNS_10shared_ptrI9GGMLBlockE27__shared_ptr_default_deleteIS4_S1_EENS_9allocatorIS1_EEED0Ev @2522
    _ZNSt3__120__shared_ptr_pointerIP13UpSampleBlockNS_10shared_ptrI9GGMLBlockE27__shared_ptr_default_deleteIS4_S1_EENS_9allocatorIS1_EEE16__on_zero_sharedEv @2523
    _ZNSt3__120__shared_ptr_pointerIP13UpSampleBlockNS_10shared_ptrI9GGMLBlockE27__shared_ptr_default_deleteIS4_S1_EENS_9allocatorIS1_EEE21__on_zero_shared_weakEv @2524
    _ZNSt3__120__shared_ptr_pointerIP13UpSampleBlockNS_10shared_ptrI9GGMLBlockE27__shared_ptr_default_deleteIS4_S1_EENS_9allocatorIS1_EEED0Ev @2525
    _ZNSt3__120__shared_ptr_pointerIP14CLIPEmbeddingsNS_10shared_ptrI9GGMLBlockE27__shared_ptr_default_deleteIS4_S1_EENS_9allocatorIS1_EEE16__on_zero_sharedEv @2526
    _ZNSt3__120__shared_ptr_pointerIP14CLIPEmbeddingsNS_10shared_ptrI9GGMLBlockE27__shared_ptr_default_deleteIS4_S1_EENS_9allocatorIS1_EEE21__on_zero_shared_weakEv @2527
    _ZNSt3__120__shared_ptr_pointerIP14CLIPEmbeddingsNS_10shared_ptrI9GGMLBlockE27__shared_ptr_default_deleteIS4_S1_EENS_9allocatorIS1_EEED0Ev @2528
    _ZNSt3__120__shared_ptr_pointerIP14CLIPProjectionNS_10shared_ptrI9GGMLBlockE27__shared_ptr_default_deleteIS4_S1_EENS_9allocatorIS1_EEE16__on_zero_sharedEv @2529
    _ZNSt3__120__shared_ptr_pointerIP14CLIPProjectionNS_10shared_ptrI9GGMLBlockE27__shared_ptr_default_deleteIS4_S1_EENS_9allocatorIS1_EEE21__on_zero_shared_weakEv @2530
    _ZNSt3__120__shared_ptr_pointerIP14CLIPProjectionNS_10shared_ptrI9GGMLBlockE27__shared_ptr_default_deleteIS4_S1_EENS_9allocatorIS1_EEED0Ev @2531
    _ZNSt3__120__shared_ptr_pointerIP14CrossAttentionNS_10shared_ptrI9GGMLBlockE27__shared_ptr_default_deleteIS4_S1_EENS_9allocatorIS1_EEE16__on_zero_sharedEv @2532
    _ZNSt3__120__shared_ptr_pointerIP14CrossAttentionNS_10shared_ptrI9GGMLBlockE27__shared_ptr_default_deleteIS4_S1_EENS_9allocatorIS1_EEE21__on_zero_shared_weakEv @2533
    _ZNSt3__120__shared_ptr_pointerIP14CrossAttentionNS_10shared_ptrI9GGMLBlockE27__shared_ptr_default_deleteIS4_S1_EENS_9allocatorIS1_EEED0Ev @2534
    _ZNSt3__120__shared_ptr_pointerIP14VectorEmbedderNS_10shared_ptrI9GGMLBlockE27__shared_ptr_default_deleteIS4_S1_EENS_9allocatorIS1_EEE16__on_zero_sharedEv @2535
    _ZNSt3__120__shared_ptr_pointerIP14VectorEmbedderNS_10shared_ptrI9GGMLBlockE27__shared_ptr_default_deleteIS4_S1_EENS_9allocatorIS1_EEE21__on_zero_shared_weakEv @2536
    _ZNSt3__120__shared_ptr_pointerIP14VectorEmbedderNS_10shared_ptrI9GGMLBlockE27__shared_ptr_default_deleteIS4_S1_EENS_9allocatorIS1_EEED0Ev @2537
    _ZNSt3__120__shared_ptr_pointerIP15CLIPVisionModelNS_10shared_ptrI9GGMLBlockE27__shared_ptr_default_deleteIS4_S1_EENS_9allocatorIS1_EEE16__on_zero_sharedEv @2538
    _ZNSt3__120__shared_ptr_pointerIP15CLIPVisionModelNS_10shared_ptrI9GGMLBlockE27__shared_ptr_default_deleteIS4_S1_EENS_9allocatorIS1_EEE21__on_zero_shared_weakEv @2539
    _ZNSt3__120__shared_ptr_pointerIP15CLIPVisionModelNS_10shared_ptrI9GGMLBlockE27__shared_ptr_default_deleteIS4_S1_EENS_9allocatorIS1_EEED0Ev @2540
    _ZNSt3__120__shared_ptr_pointerIP15DismantledBlockNS_10shared_ptrI9GGMLBlockE27__shared_ptr_default_deleteIS4_S1_EENS_9allocatorIS1_EEE16__on_zero_sharedEv @2541
    _ZNSt3__120__shared_ptr_pointerIP15DismantledBlockNS_10shared_ptrI9GGMLBlockE27__shared_ptr_default_deleteIS4_S1_EENS_9allocatorIS1_EEE21__on_zero_shared_weakEv @2542
    _ZNSt3__120__shared_ptr_pointerIP15DismantledBlockNS_10shared_ptrI9GGMLBlockE27__shared_ptr_default_deleteIS4_S1_EENS_9allocatorIS1_EEED0Ev @2543
    _ZNSt3__120__shared_ptr_pointerIP15DownSampleBlockNS_10shared_ptrI9GGMLBlockE27__shared_ptr_default_deleteIS4_S1_EENS_9allocatorIS1_EEE16__on_zero_sharedEv @2544
    _ZNSt3__120__shared_ptr_pointerIP15DownSampleBlockNS_10shared_ptrI9GGMLBlockE27__shared_ptr_default_deleteIS4_S1_EENS_9allocatorIS1_EEE21__on_zero_shared_weakEv @2545
    _ZNSt3__120__shared_ptr_pointerIP15DownSampleBlockNS_10shared_ptrI9GGMLBlockE27__shared_ptr_default_deleteIS4_S1_EENS_9allocatorIS1_EEED0Ev @2546
    _ZNSt3__120__shared_ptr_pointerIP16QFormerPerceiverNS_10shared_ptrI9GGMLBlockE27__shared_ptr_default_deleteIS4_S1_EENS_9allocatorIS1_EEE16__on_zero_sharedEv @2547
    _ZNSt3__120__shared_ptr_pointerIP16QFormerPerceiverNS_10shared_ptrI9GGMLBlockE27__shared_ptr_default_deleteIS4_S1_EENS_9allocatorIS1_EEE21__on_zero_shared_weakEv @2548
    _ZNSt3__120__shared_ptr_pointerIP16QFormerPerceiverNS_10shared_ptrI9GGMLBlockE27__shared_ptr_default_deleteIS4_S1_EENS_9allocatorIS1_EEED0Ev @2549
    _ZNSt3__120__shared_ptr_pointerIP16TimestepEmbedderNS_10shared_ptrI9GGMLBlockE27__shared_ptr_default_deleteIS4_S1_EENS_9allocatorIS1_EEE16__on_zero_sharedEv @2550
    _ZNSt3__120__shared_ptr_pointerIP16TimestepEmbedderNS_10shared_ptrI9GGMLBlockE27__shared_ptr_default_deleteIS4_S1_EENS_9allocatorIS1_EEE21__on_zero_shared_weakEv @2551
    _ZNSt3__120__shared_ptr_pointerIP16TimestepEmbedderNS_10shared_ptrI9GGMLBlockE27__shared_ptr_default_deleteIS4_S1_EENS_9allocatorIS1_EEED0Ev @2552
    _ZNSt3__120__shared_ptr_pointerIP16TinyVideoDecoderNS_10shared_ptrI9GGMLBlockE27__shared_ptr_default_deleteIS4_S1_EENS_9allocatorIS1_EEE16__on_zero_sharedEv @2553
    _ZNSt3__120__shared_ptr_pointerIP16TinyVideoDecoderNS_10shared_ptrI9GGMLBlockE27__shared_ptr_default_deleteIS4_S1_EENS_9allocatorIS1_EEE21__on_zero_shared_weakEv @2554
    _ZNSt3__120__shared_ptr_pointerIP16TinyVideoDecoderNS_10shared_ptrI9GGMLBlockE27__shared_ptr_default_deleteIS4_S1_EENS_9allocatorIS1_EEED0Ev @2555
    _ZNSt3__120__shared_ptr_pointerIP16TinyVideoEncoderNS_10shared_ptrI9GGMLBlockE27__shared_ptr_default_deleteIS4_S1_EENS_9allocatorIS1_EEE16__on_zero_sharedEv @2556
    _ZNSt3__120__shared_ptr_pointerIP16TinyVideoEncoderNS_10shared_ptrI9GGMLBlockE27__shared_ptr_default_deleteIS4_S1_EENS_9allocatorIS1_EEE21__on_zero_shared_weakEv @2557
    _ZNSt3__120__shared_ptr_pointerIP16TinyVideoEncoderNS_10shared_ptrI9GGMLBlockE27__shared_ptr_default_deleteIS4_S1_EENS_9allocatorIS1_EEED0Ev @2558
    _ZNSt3__120__shared_ptr_pointerIP16VideoResnetBlockNS_10shared_ptrI9GGMLBlockE27__shared_ptr_default_deleteIS4_S1_EENS_9allocatorIS1_EEE16__on_zero_sharedEv @2559
    _ZNSt3__120__shared_ptr_pointerIP16VideoResnetBlockNS_10shared_ptrI9GGMLBlockE27__shared_ptr_default_deleteIS4_S1_EENS_9allocatorIS1_EEE21__on_zero_shared_weakEv @2560
    _ZNSt3__120__shared_ptr_pointerIP16VideoResnetBlockNS_10shared_ptrI9GGMLBlockE27__shared_ptr_default_deleteIS4_S1_EENS_9allocatorIS1_EEED0Ev @2561
    _ZNSt3__120__shared_ptr_pointerIP18MultiheadAttentionNS_10shared_ptrI9GGMLBlockE27__shared_ptr_default_deleteIS4_S1_EENS_9allocatorIS1_EEE16__on_zero_sharedEv @2562
    _ZNSt3__120__shared_ptr_pointerIP18MultiheadAttentionNS_10shared_ptrI9GGMLBlockE27__shared_ptr_default_deleteIS4_S1_EENS_9allocatorIS1_EEE21__on_zero_shared_weakEv @2563
    _ZNSt3__120__shared_ptr_pointerIP18MultiheadAttentionNS_10shared_ptrI9GGMLBlockE27__shared_ptr_default_deleteIS4_S1_EENS_9allocatorIS1_EEED0Ev @2564
    _ZNSt3__120__shared_ptr_pointerIP18PerceiverAttentionNS_10shared_ptrI9GGMLBlockE27__shared_ptr_default_deleteIS4_S1_EENS_9allocatorIS1_EEE16__on_zero_sharedEv @2565
    _ZNSt3__120__shared_ptr_pointerIP18PerceiverAttentionNS_10shared_ptrI9GGMLBlockE27__shared_ptr_default_deleteIS4_S1_EENS_9allocatorIS1_EEE21__on_zero_shared_weakEv @2566
    _ZNSt3__120__shared_ptr_pointerIP18PerceiverAttentionNS_10shared_ptrI9GGMLBlockE27__shared_ptr_default_deleteIS4_S1_EENS_9allocatorIS1_EEED0Ev @2567
    _ZNSt3__120__shared_ptr_pointerIP18ResidualDenseBlockNS_10shared_ptrI9GGMLBlockE27__shared_ptr_default_deleteIS4_S1_EENS_9allocatorIS1_EEE16__on_zero_sharedEv @2568
    _ZNSt3__120__shared_ptr_pointerIP18ResidualDenseBlockNS_10shared_ptrI9GGMLBlockE27__shared_ptr_default_deleteIS4_S1_EENS_9allocatorIS1_EEE21__on_zero_shared_weakEv @2569
    _ZNSt3__120__shared_ptr_pointerIP18ResidualDenseBlockNS_10shared_ptrI9GGMLBlockE27__shared_ptr_default_deleteIS4_S1_EENS_9allocatorIS1_EEED0Ev @2570
    _ZNSt3__120__shared_ptr_pointerIP18SpatialTransformerNS_10shared_ptrI9GGMLBlockE27__shared_ptr_default_deleteIS4_S1_EENS_9allocatorIS1_EEE16__on_zero_sharedEv @2571
    _ZNSt3__120__shared_ptr_pointerIP18SpatialTransformerNS_10shared_ptrI9GGMLBlockE27__shared_ptr_default_deleteIS4_S1_EENS_9allocatorIS1_EEE21__on_zero_shared_weakEv @2572
    _ZNSt3__120__shared_ptr_pointerIP18SpatialTransformerNS_10shared_ptrI9GGMLBlockE27__shared_ptr_default_deleteIS4_S1_EENS_9allocatorIS1_EEED0Ev @2573
    _ZNSt3__120__shared_ptr_pointerIP20CLIPVisionEmbeddingsNS_10shared_ptrI9GGMLBlockE27__shared_ptr_default_deleteIS4_S1_EENS_9allocatorIS1_EEE16__on_zero_sharedEv @2574
    _ZNSt3__120__shared_ptr_pointerIP20CLIPVisionEmbeddingsNS_10shared_ptrI9GGMLBlockE27__shared_ptr_default_deleteIS4_S1_EENS_9allocatorIS1_EEE21__on_zero_shared_weakEv @2575
    _ZNSt3__120__shared_ptr_pointerIP20CLIPVisionEmbeddingsNS_10shared_ptrI9GGMLBlockE27__shared_ptr_default_deleteIS4_S1_EENS_9allocatorIS1_EEED0Ev @2576
    _ZNSt3__120__shared_ptr_pointerIP20T5DenseGatedActDenseNS_10shared_ptrI9GGMLBlockE27__shared_ptr_default_deleteIS4_S1_EENS_9allocatorIS1_EEE16__on_zero_sharedEv @2577
    _ZNSt3__120__shared_ptr_pointerIP20T5DenseGatedActDenseNS_10shared_ptrI9GGMLBlockE27__shared_ptr_default_deleteIS4_S1_EENS_9allocatorIS1_EEE21__on_zero_shared_weakEv @2578
    _ZNSt3__120__shared_ptr_pointerIP20T5DenseGatedActDenseNS_10shared_ptrI9GGMLBlockE27__shared_ptr_default_deleteIS4_S1_EENS_9allocatorIS1_EEED0Ev @2579
    _ZNSt3__120__shared_ptr_pointerIP20T5LayerSelfAttentionNS_10shared_ptrI9GGMLBlockE27__shared_ptr_default_deleteIS4_S1_EENS_9allocatorIS1_EEE16__on_zero_sharedEv @2580
    _ZNSt3__120__shared_ptr_pointerIP20T5LayerSelfAttentionNS_10shared_ptrI9GGMLBlockE27__shared_ptr_default_deleteIS4_S1_EENS_9allocatorIS1_EEE21__on_zero_shared_weakEv @2581
    _ZNSt3__120__shared_ptr_pointerIP20T5LayerSelfAttentionNS_10shared_ptrI9GGMLBlockE27__shared_ptr_default_deleteIS4_S1_EENS_9allocatorIS1_EEED0Ev @2582
    _ZNSt3__120__shared_ptr_pointerIP21BasicTransformerBlockNS_10shared_ptrI9GGMLBlockE27__shared_ptr_default_deleteIS4_S1_EENS_9allocatorIS1_EEE16__on_zero_sharedEv @2583
    _ZNSt3__120__shared_ptr_pointerIP21BasicTransformerBlockNS_10shared_ptrI9GGMLBlockE27__shared_ptr_default_deleteIS4_S1_EENS_9allocatorIS1_EEE21__on_zero_shared_weakEv @2584
    _ZNSt3__120__shared_ptr_pointerIP21BasicTransformerBlockNS_10shared_ptrI9GGMLBlockE27__shared_ptr_default_deleteIS4_S1_EENS_9allocatorIS1_EEED0Ev @2585
    _ZNSt3__120__shared_ptr_pointerIP22FacePerceiverResamplerNS_10shared_ptrI9GGMLBlockE27__shared_ptr_default_deleteIS4_S1_EENS_9allocatorIS1_EEE16__on_zero_sharedEv @2586
    _ZNSt3__120__shared_ptr_pointerIP22FacePerceiverResamplerNS_10shared_ptrI9GGMLBlockE27__shared_ptr_default_deleteIS4_S1_EENS_9allocatorIS1_EEE21__on_zero_shared_weakEv @2587
    _ZNSt3__120__shared_ptr_pointerIP22FacePerceiverResamplerNS_10shared_ptrI9GGMLBlockE27__shared_ptr_default_deleteIS4_S1_EENS_9allocatorIS1_EEED0Ev @2588
    _ZNSt3__120__shared_ptr_pointerIP3MlpNS_10shared_ptrI9GGMLBlockE27__shared_ptr_default_deleteIS4_S1_EENS_9allocatorIS1_EEE16__on_zero_sharedEv @2589
    _ZNSt3__120__shared_ptr_pointerIP3MlpNS_10shared_ptrI9GGMLBlockE27__shared_ptr_default_deleteIS4_S1_EENS_9allocatorIS1_EEE21__on_zero_shared_weakEv @2590
    _ZNSt3__120__shared_ptr_pointerIP3MlpNS_10shared_ptrI9GGMLBlockE27__shared_ptr_default_deleteIS4_S1_EENS_9allocatorIS1_EEED0Ev @2591
    _ZNSt3__120__shared_ptr_pointerIP4GELUNS_10shared_ptrI9GGMLBlockE27__shared_ptr_default_deleteIS4_S1_EENS_9allocatorIS1_EEE16__on_zero_sharedEv @2592
    _ZNSt3__120__shared_ptr_pointerIP4GELUNS_10shared_ptrI9GGMLBlockE27__shared_ptr_default_deleteIS4_S1_EENS_9allocatorIS1_EEE21__on_zero_shared_weakEv @2593
    _ZNSt3__120__shared_ptr_pointerIP4GELUNS_10shared_ptrI9GGMLBlockE27__shared_ptr_default_deleteIS4_S1_EENS_9allocatorIS1_EEED0Ev @2594
    _ZNSt3__120__shared_ptr_pointerIP4RRDBNS_10shared_ptrI9GGMLBlockE27__shared_ptr_default_deleteIS4_S1_EENS_9allocatorIS1_EEE16__on_zero_sharedEv @2595
    _ZNSt3__120__shared_ptr_pointerIP4RRDBNS_10shared_ptrI9GGMLBlockE27__shared_ptr_default_deleteIS4_S1_EENS_9allocatorIS1_EEE21__on_zero_shared_weakEv @2596
    _ZNSt3__120__shared_ptr_pointerIP4RRDBNS_10shared_ptrI9GGMLBlockE27__shared_ptr_default_deleteIS4_S1_EENS_9allocatorIS1_EEED0Ev @2597
    _ZNSt3__120__shared_ptr_pointerIP5GEGLUNS_10shared_ptrI9GGMLBlockE27__shared_ptr_default_deleteIS4_S1_EENS_9allocatorIS1_EEE16__on_zero_sharedEv @2598
    _ZNSt3__120__shared_ptr_pointerIP5GEGLUNS_10shared_ptrI9GGMLBlockE27__shared_ptr_default_deleteIS4_S1_EENS_9allocatorIS1_EEE21__on_zero_shared_weakEv @2599
    _ZNSt3__120__shared_ptr_pointerIP5GEGLUNS_10shared_ptrI9GGMLBlockE27__shared_ptr_default_deleteIS4_S1_EENS_9allocatorIS1_EEED0Ev @2600
    _ZNSt3__120__shared_ptr_pointerIP5TGrowNS_10shared_ptrI9GGMLBlockE27__shared_ptr_default_deleteIS4_S1_EENS_9allocatorIS1_EEE16__on_zero_sharedEv @2601
    _ZNSt3__120__shared_ptr_pointerIP5TGrowNS_10shared_ptrI9GGMLBlockE27__shared_ptr_default_deleteIS4_S1_EENS_9allocatorIS1_EEE21__on_zero_shared_weakEv @2602
    _ZNSt3__120__shared_ptr_pointerIP5TGrowNS_10shared_ptrI9GGMLBlockE27__shared_ptr_default_deleteIS4_S1_EENS_9allocatorIS1_EEED0Ev @2603
    _ZNSt3__120__shared_ptr_pointerIP5TPoolNS_10shared_ptrI9GGMLBlockE27__shared_ptr_default_deleteIS4_S1_EENS_9allocatorIS1_EEE16__on_zero_sharedEv @2604
    _ZNSt3__120__shared_ptr_pointerIP5TPoolNS_10shared_ptrI9GGMLBlockE27__shared_ptr_default_deleteIS4_S1_EENS_9allocatorIS1_EEE21__on_zero_shared_weakEv @2605
    _ZNSt3__120__shared_ptr_pointerIP5TPoolNS_10shared_ptrI9GGMLBlockE27__shared_ptr_default_deleteIS4_S1_EENS_9allocatorIS1_EEED0Ev @2606
    _ZNSt3__120__shared_ptr_pointerIP6Conv2dNS_10shared_ptrI9GGMLBlockE27__shared_ptr_default_deleteIS4_S1_EENS_9allocatorIS1_EEE16__on_zero_sharedEv @2607
    _ZNSt3__120__shared_ptr_pointerIP6Conv2dNS_10shared_ptrI9GGMLBlockE27__shared_ptr_default_deleteIS4_S1_EENS_9allocatorIS1_EEE21__on_zero_shared_weakEv @2608
    _ZNSt3__120__shared_ptr_pointerIP6Conv2dNS_10shared_ptrI9GGMLBlockE27__shared_ptr_default_deleteIS4_S1_EENS_9allocatorIS1_EEED0Ev @2609
    _ZNSt3__120__shared_ptr_pointerIP6Conv3dNS_10shared_ptrI9GGMLBlockE27__shared_ptr_default_deleteIS4_S1_EENS_9allocatorIS1_EEE16__on_zero_sharedEv @2610
    _ZNSt3__120__shared_ptr_pointerIP6Conv3dNS_10shared_ptrI9GGMLBlockE27__shared_ptr_default_deleteIS4_S1_EENS_9allocatorIS1_EEE21__on_zero_shared_weakEv @2611
    _ZNSt3__120__shared_ptr_pointerIP6Conv3dNS_10shared_ptrI9GGMLBlockE27__shared_ptr_default_deleteIS4_S1_EENS_9allocatorIS1_EEED0Ev @2612
    _ZNSt3__120__shared_ptr_pointerIP6LinearNS_10shared_ptrI9GGMLBlockE27__shared_ptr_default_deleteIS4_S1_EENS_9allocatorIS1_EEE16__on_zero_sharedEv @2613
    _ZNSt3__120__shared_ptr_pointerIP6LinearNS_10shared_ptrI9GGMLBlockE27__shared_ptr_default_deleteIS4_S1_EENS_9allocatorIS1_EEE21__on_zero_shared_weakEv @2614
    _ZNSt3__120__shared_ptr_pointerIP6LinearNS_10shared_ptrI9GGMLBlockE27__shared_ptr_default_deleteIS4_S1_EENS_9allocatorIS1_EEED0Ev @2615
    _ZNSt3__120__shared_ptr_pointerIP7CLIPMLPNS_10shared_ptrI9GGMLBlockE27__shared_ptr_default_deleteIS4_S1_EENS_9allocatorIS1_EEE16__on_zero_sharedEv @2616
    _ZNSt3__120__shared_ptr_pointerIP7CLIPMLPNS_10shared_ptrI9GGMLBlockE27__shared_ptr_default_deleteIS4_S1_EENS_9allocatorIS1_EEE21__on_zero_shared_weakEv @2617
    _ZNSt3__120__shared_ptr_pointerIP7CLIPMLPNS_10shared_ptrI9GGMLBlockE27__shared_ptr_default_deleteIS4_S1_EENS_9allocatorIS1_EEED0Ev @2618
    _ZNSt3__120__shared_ptr_pointerIP7DecoderNS_10shared_ptrI9GGMLBlockE27__shared_ptr_default_deleteIS4_S1_EENS_9allocatorIS1_EEE16__on_zero_sharedEv @2619
    _ZNSt3__120__shared_ptr_pointerIP7DecoderNS_10shared_ptrI9GGMLBlockE27__shared_ptr_default_deleteIS4_S1_EENS_9allocatorIS1_EEE21__on_zero_shared_weakEv @2620
    _ZNSt3__120__shared_ptr_pointerIP7DecoderNS_10shared_ptrI9GGMLBlockE27__shared_ptr_default_deleteIS4_S1_EENS_9allocatorIS1_EEED0Ev @2621
    _ZNSt3__120__shared_ptr_pointerIP7EncoderNS_10shared_ptrI9GGMLBlockE27__shared_ptr_default_deleteIS4_S1_EENS_9allocatorIS1_EEE16__on_zero_sharedEv @2622
    _ZNSt3__120__shared_ptr_pointerIP7EncoderNS_10shared_ptrI9GGMLBlockE27__shared_ptr_default_deleteIS4_S1_EENS_9allocatorIS1_EEE21__on_zero_shared_weakEv @2623
    _ZNSt3__120__shared_ptr_pointerIP7EncoderNS_10shared_ptrI9GGMLBlockE27__shared_ptr_default_deleteIS4_S1_EENS_9allocatorIS1_EEED0Ev @2624
    _ZNSt3__120__shared_ptr_pointerIP7RMSNormNS_10shared_ptrI9GGMLBlockE27__shared_ptr_default_deleteIS4_S1_EENS_9allocatorIS1_EEE16__on_zero_sharedEv @2625
    _ZNSt3__120__shared_ptr_pointerIP7RMSNormNS_10shared_ptrI9GGMLBlockE27__shared_ptr_default_deleteIS4_S1_EENS_9allocatorIS1_EEE21__on_zero_shared_weakEv @2626
    _ZNSt3__120__shared_ptr_pointerIP7RMSNormNS_10shared_ptrI9GGMLBlockE27__shared_ptr_default_deleteIS4_S1_EENS_9allocatorIS1_EEED0Ev @2627
    _ZNSt3__120__shared_ptr_pointerIP7T5BlockNS_10shared_ptrI9GGMLBlockE27__shared_ptr_default_deleteIS4_S1_EENS_9allocatorIS1_EEE16__on_zero_sharedEv @2628
    _ZNSt3__120__shared_ptr_pointerIP7T5BlockNS_10shared_ptrI9GGMLBlockE27__shared_ptr_default_deleteIS4_S1_EENS_9allocatorIS1_EEE21__on_zero_shared_weakEv @2629
    _ZNSt3__120__shared_ptr_pointerIP7T5BlockNS_10shared_ptrI9GGMLBlockE27__shared_ptr_default_deleteIS4_S1_EENS_9allocatorIS1_EEED0Ev @2630
    _ZNSt3__120__shared_ptr_pointerIP7T5StackNS_10shared_ptrI9GGMLBlockE27__shared_ptr_default_deleteIS4_S1_EENS_9allocatorIS1_EEE16__on_zero_sharedEv @2631
    _ZNSt3__120__shared_ptr_pointerIP7T5StackNS_10shared_ptrI9GGMLBlockE27__shared_ptr_default_deleteIS4_S1_EENS_9allocatorIS1_EEE21__on_zero_shared_weakEv @2632
    _ZNSt3__120__shared_ptr_pointerIP7T5StackNS_10shared_ptrI9GGMLBlockE27__shared_ptr_default_deleteIS4_S1_EENS_9allocatorIS1_EEED0Ev @2633
    _ZNSt3__120__shared_ptr_pointerIP8AE3DConvNS_10shared_ptrI9GGMLBlockE27__shared_ptr_default_deleteIS4_S1_EENS_9allocatorIS1_EEE16__on_zero_sharedEv @2634
    _ZNSt3__120__shared_ptr_pointerIP8AE3DConvNS_10shared_ptrI9GGMLBlockE27__shared_ptr_default_deleteIS4_S1_EENS_9allocatorIS1_EEE21__on_zero_shared_weakEv @2635
    _ZNSt3__120__shared_ptr_pointerIP8AE3DConvNS_10shared_ptrI9GGMLBlockE27__shared_ptr_default_deleteIS4_S1_EENS_9allocatorIS1_EEED0Ev @2636
    _ZNSt3__120__shared_ptr_pointerIP8IdentityNS_10shared_ptrI9GGMLBlockE27__shared_ptr_default_deleteIS4_S1_EENS_9allocatorIS1_EEE16__on_zero_sharedEv @2637
    _ZNSt3__120__shared_ptr_pointerIP8IdentityNS_10shared_ptrI9GGMLBlockE27__shared_ptr_default_deleteIS4_S1_EENS_9allocatorIS1_EEE21__on_zero_shared_weakEv @2638
    _ZNSt3__120__shared_ptr_pointerIP8IdentityNS_10shared_ptrI9GGMLBlockE27__shared_ptr_default_deleteIS4_S1_EENS_9allocatorIS1_EEED0Ev @2639
    _ZNSt3__120__shared_ptr_pointerIP8MemBlockNS_10shared_ptrI9GGMLBlockE27__shared_ptr_default_deleteIS4_S1_EENS_9allocatorIS1_EEE16__on_zero_sharedEv @2640
    _ZNSt3__120__shared_ptr_pointerIP8MemBlockNS_10shared_ptrI9GGMLBlockE27__shared_ptr_default_deleteIS4_S1_EENS_9allocatorIS1_EEE21__on_zero_shared_weakEv @2641
    _ZNSt3__120__shared_ptr_pointerIP8MemBlockNS_10shared_ptrI9GGMLBlockE27__shared_ptr_default_deleteIS4_S1_EENS_9allocatorIS1_EEED0Ev @2642
    _ZNSt3__120__shared_ptr_pointerIP8ResBlockNS_10shared_ptrI9GGMLBlockE27__shared_ptr_default_deleteIS4_S1_EENS_9allocatorIS1_EEE16__on_zero_sharedEv @2643
    _ZNSt3__120__shared_ptr_pointerIP8ResBlockNS_10shared_ptrI9GGMLBlockE27__shared_ptr_default_deleteIS4_S1_EENS_9allocatorIS1_EEE21__on_zero_shared_weakEv @2644
    _ZNSt3__120__shared_ptr_pointerIP8ResBlockNS_10shared_ptrI9GGMLBlockE27__shared_ptr_default_deleteIS4_S1_EENS_9allocatorIS1_EEED0Ev @2645
    _ZNSt3__120__shared_ptr_pointerIP8TAEBlockNS_10shared_ptrI9GGMLBlockE27__shared_ptr_default_deleteIS4_S1_EENS_9allocatorIS1_EEE16__on_zero_sharedEv @2646
    _ZNSt3__120__shared_ptr_pointerIP8TAEBlockNS_10shared_ptrI9GGMLBlockE27__shared_ptr_default_deleteIS4_S1_EENS_9allocatorIS1_EEE21__on_zero_shared_weakEv @2647
    _ZNSt3__120__shared_ptr_pointerIP8TAEBlockNS_10shared_ptrI9GGMLBlockE27__shared_ptr_default_deleteIS4_S1_EENS_9allocatorIS1_EEED0Ev @2648
    _ZNSt3__120__shared_ptr_pointerIP9AttnBlockNS_10shared_ptrI9GGMLBlockE27__shared_ptr_default_deleteIS4_S1_EENS_9allocatorIS1_EEE16__on_zero_sharedEv @2649
    _ZNSt3__120__shared_ptr_pointerIP9AttnBlockNS_10shared_ptrI9GGMLBlockE27__shared_ptr_default_deleteIS4_S1_EENS_9allocatorIS1_EEE21__on_zero_shared_weakEv @2650
    _ZNSt3__120__shared_ptr_pointerIP9AttnBlockNS_10shared_ptrI9GGMLBlockE27__shared_ptr_default_deleteIS4_S1_EENS_9allocatorIS1_EEED0Ev @2651
    _ZNSt3__120__shared_ptr_pointerIP9CLIPLayerNS_10shared_ptrI9GGMLBlockE27__shared_ptr_default_deleteIS4_S1_EENS_9allocatorIS1_EEE16__on_zero_sharedEv @2652
    _ZNSt3__120__shared_ptr_pointerIP9CLIPLayerNS_10shared_ptrI9GGMLBlockE27__shared_ptr_default_deleteIS4_S1_EENS_9allocatorIS1_EEE21__on_zero_shared_weakEv @2653
    _ZNSt3__120__shared_ptr_pointerIP9CLIPLayerNS_10shared_ptrI9GGMLBlockE27__shared_ptr_default_deleteIS4_S1_EENS_9allocatorIS1_EEED0Ev @2654
    _ZNSt3__120__shared_ptr_pointerIP9EmbeddingNS_10shared_ptrI9GGMLBlockE27__shared_ptr_default_deleteIS4_S1_EENS_9allocatorIS1_EEE16__on_zero_sharedEv @2655
    _ZNSt3__120__shared_ptr_pointerIP9EmbeddingNS_10shared_ptrI9GGMLBlockE27__shared_ptr_default_deleteIS4_S1_EENS_9allocatorIS1_EEE21__on_zero_shared_weakEv @2656
    _ZNSt3__120__shared_ptr_pointerIP9EmbeddingNS_10shared_ptrI9GGMLBlockE27__shared_ptr_default_deleteIS4_S1_EENS_9allocatorIS1_EEED0Ev @2657
    _ZNSt3__120__shared_ptr_pointerIP9FuseBlockNS_10shared_ptrI9GGMLBlockE27__shared_ptr_default_deleteIS4_S1_EENS_9allocatorIS1_EEE16__on_zero_sharedEv @2658
    _ZNSt3__120__shared_ptr_pointerIP9FuseBlockNS_10shared_ptrI9GGMLBlockE27__shared_ptr_default_deleteIS4_S1_EENS_9allocatorIS1_EEE21__on_zero_shared_weakEv @2659
    _ZNSt3__120__shared_ptr_pointerIP9FuseBlockNS_10shared_ptrI9GGMLBlockE27__shared_ptr_default_deleteIS4_S1_EENS_9allocatorIS1_EEED0Ev @2660
    _ZNSt3__120__shared_ptr_pointerIP9GroupNormNS_10shared_ptrI9GGMLBlockE27__shared_ptr_default_deleteIS4_S1_EENS_9allocatorIS1_EEE16__on_zero_sharedEv @2661
    _ZNSt3__120__shared_ptr_pointerIP9GroupNormNS_10shared_ptrI9GGMLBlockE27__shared_ptr_default_deleteIS4_S1_EENS_9allocatorIS1_EEE21__on_zero_shared_weakEv @2662
    _ZNSt3__120__shared_ptr_pointerIP9GroupNormNS_10shared_ptrI9GGMLBlockE27__shared_ptr_default_deleteIS4_S1_EENS_9allocatorIS1_EEED0Ev @2663
    _ZNSt3__120__shared_ptr_pointerIP9LayerNormNS_10shared_ptrI9GGMLBlockE27__shared_ptr_default_deleteIS4_S1_EENS_9allocatorIS1_EEE16__on_zero_sharedEv @2664
    _ZNSt3__120__shared_ptr_pointerIP9LayerNormNS_10shared_ptrI9GGMLBlockE27__shared_ptr_default_deleteIS4_S1_EENS_9allocatorIS1_EEE21__on_zero_shared_weakEv @2665
    _ZNSt3__120__shared_ptr_pointerIP9LayerNormNS_10shared_ptrI9GGMLBlockE27__shared_ptr_default_deleteIS4_S1_EENS_9allocatorIS1_EEED0Ev @2666
    _ZNSt3__120__shared_ptr_pointerIP9T5LayerFFNS_10shared_ptrI9GGMLBlockE27__shared_ptr_default_deleteIS4_S1_EENS_9allocatorIS1_EEE16__on_zero_sharedEv @2667
    _ZNSt3__120__shared_ptr_pointerIP9T5LayerFFNS_10shared_ptrI9GGMLBlockE27__shared_ptr_default_deleteIS4_S1_EENS_9allocatorIS1_EEE21__on_zero_shared_weakEv @2668
    _ZNSt3__120__shared_ptr_pointerIP9T5LayerFFNS_10shared_ptrI9GGMLBlockE27__shared_ptr_default_deleteIS4_S1_EENS_9allocatorIS1_EEED0Ev @2669
    _ZNSt3__120__shared_ptr_pointerIPN3LLM11PatchMergerENS_10shared_ptrI9GGMLBlockE27__shared_ptr_default_deleteIS5_S2_EENS_9allocatorIS2_EEE16__on_zero_sharedEv @2670
    _ZNSt3__120__shared_ptr_pointerIPN3LLM11PatchMergerENS_10shared_ptrI9GGMLBlockE27__shared_ptr_default_deleteIS5_S2_EENS_9allocatorIS2_EEE21__on_zero_shared_weakEv @2671
    _ZNSt3__120__shared_ptr_pointerIPN3LLM11PatchMergerENS_10shared_ptrI9GGMLBlockE27__shared_ptr_default_deleteIS5_S2_EENS_9allocatorIS2_EEED0Ev @2672
    _ZNSt3__120__shared_ptr_pointerIPN3LLM11VisionBlockENS_10shared_ptrI9GGMLBlockE27__shared_ptr_default_deleteIS5_S2_EENS_9allocatorIS2_EEE16__on_zero_sharedEv @2673
    _ZNSt3__120__shared_ptr_pointerIPN3LLM11VisionBlockENS_10shared_ptrI9GGMLBlockE27__shared_ptr_default_deleteIS5_S2_EENS_9allocatorIS2_EEE21__on_zero_shared_weakEv @2674
    _ZNSt3__120__shared_ptr_pointerIPN3LLM11VisionBlockENS_10shared_ptrI9GGMLBlockE27__shared_ptr_default_deleteIS5_S2_EENS_9allocatorIS2_EEED0Ev @2675
    _ZNSt3__120__shared_ptr_pointerIPN3LLM11VisionModelENS_10shared_ptrI9GGMLBlockE27__shared_ptr_default_deleteIS5_S2_EENS_9allocatorIS2_EEE16__on_zero_sharedEv @2676
    _ZNSt3__120__shared_ptr_pointerIPN3LLM11VisionModelENS_10shared_ptrI9GGMLBlockE27__shared_ptr_default_deleteIS5_S2_EENS_9allocatorIS2_EEE21__on_zero_shared_weakEv @2677
    _ZNSt3__120__shared_ptr_pointerIPN3LLM11VisionModelENS_10shared_ptrI9GGMLBlockE27__shared_ptr_default_deleteIS5_S2_EENS_9allocatorIS2_EEED0Ev @2678
    _ZNSt3__120__shared_ptr_pointerIPN3LLM15VisionAttentionENS_10shared_ptrI9GGMLBlockE27__shared_ptr_default_deleteIS5_S2_EENS_9allocatorIS2_EEE16__on_zero_sharedEv @2679
    _ZNSt3__120__shared_ptr_pointerIPN3LLM15VisionAttentionENS_10shared_ptrI9GGMLBlockE27__shared_ptr_default_deleteIS5_S2_EENS_9allocatorIS2_EEE21__on_zero_shared_weakEv @2680
    _ZNSt3__120__shared_ptr_pointerIPN3LLM15VisionAttentionENS_10shared_ptrI9GGMLBlockE27__shared_ptr_default_deleteIS5_S2_EENS_9allocatorIS2_EEED0Ev @2681
    _ZNSt3__120__shared_ptr_pointerIPN3LLM16TransformerBlockENS_10shared_ptrI9GGMLBlockE27__shared_ptr_default_deleteIS5_S2_EENS_9allocatorIS2_EEE16__on_zero_sharedEv @2682
    _ZNSt3__120__shared_ptr_pointerIPN3LLM16TransformerBlockENS_10shared_ptrI9GGMLBlockE27__shared_ptr_default_deleteIS5_S2_EENS_9allocatorIS2_EEE21__on_zero_shared_weakEv @2683
    _ZNSt3__120__shared_ptr_pointerIPN3LLM16TransformerBlockENS_10shared_ptrI9GGMLBlockE27__shared_ptr_default_deleteIS5_S2_EENS_9allocatorIS2_EEED0Ev @2684
    _ZNSt3__120__shared_ptr_pointerIPN3LLM16VisionPatchEmbedENS_10shared_ptrI9GGMLBlockE27__shared_ptr_default_deleteIS5_S2_EENS_9allocatorIS2_EEE16__on_zero_sharedEv @2685
    _ZNSt3__120__shared_ptr_pointerIPN3LLM16VisionPatchEmbedENS_10shared_ptrI9GGMLBlockE27__shared_ptr_default_deleteIS5_S2_EENS_9allocatorIS2_EEE21__on_zero_shared_weakEv @2686
    _ZNSt3__120__shared_ptr_pointerIPN3LLM16VisionPatchEmbedENS_10shared_ptrI9GGMLBlockE27__shared_ptr_default_deleteIS5_S2_EENS_9allocatorIS2_EEED0Ev @2687
    _ZNSt3__120__shared_ptr_pointerIPN3LLM3MLPENS_10shared_ptrI9GGMLBlockE27__shared_ptr_default_deleteIS5_S2_EENS_9allocatorIS2_EEE16__on_zero_sharedEv @2688
    _ZNSt3__120__shared_ptr_pointerIPN3LLM3MLPENS_10shared_ptrI9GGMLBlockE27__shared_ptr_default_deleteIS5_S2_EENS_9allocatorIS2_EEE21__on_zero_shared_weakEv @2689
    _ZNSt3__120__shared_ptr_pointerIPN3LLM3MLPENS_10shared_ptrI9GGMLBlockE27__shared_ptr_default_deleteIS5_S2_EENS_9allocatorIS2_EEED0Ev @2690
    _ZNSt3__120__shared_ptr_pointerIPN3LLM9TextModelENS_10shared_ptrI9GGMLBlockE27__shared_ptr_default_deleteIS5_S2_EENS_9allocatorIS2_EEE16__on_zero_sharedEv @2691
    _ZNSt3__120__shared_ptr_pointerIPN3LLM9TextModelENS_10shared_ptrI9GGMLBlockE27__shared_ptr_default_deleteIS5_S2_EENS_9allocatorIS2_EEE21__on_zero_shared_weakEv @2692
    _ZNSt3__120__shared_ptr_pointerIPN3LLM9TextModelENS_10shared_ptrI9GGMLBlockE27__shared_ptr_default_deleteIS5_S2_EENS_9allocatorIS2_EEED0Ev @2693
    _ZNSt3__120__shared_ptr_pointerIPN3WAN12CausalConv3dENS_10shared_ptrI9GGMLBlockE27__shared_ptr_default_deleteIS5_S2_EENS_9allocatorIS2_EEE16__on_zero_sharedEv @2694
    _ZNSt3__120__shared_ptr_pointerIPN3WAN12CausalConv3dENS_10shared_ptrI9GGMLBlockE27__shared_ptr_default_deleteIS5_S2_EENS_9allocatorIS2_EEE21__on_zero_shared_weakEv @2695
    _ZNSt3__120__shared_ptr_pointerIPN3WAN12CausalConv3dENS_10shared_ptrI9GGMLBlockE27__shared_ptr_default_deleteIS5_S2_EENS_9allocatorIS2_EEED0Ev @2696
    _ZNSt3__120__shared_ptr_pointerIPN3WAN13ResidualBlockENS_10shared_ptrI9GGMLBlockE27__shared_ptr_default_deleteIS5_S2_EENS_9allocatorIS2_EEE16__on_zero_sharedEv @2697
    _ZNSt3__120__shared_ptr_pointerIPN3WAN13ResidualBlockENS_10shared_ptrI9GGMLBlockE27__shared_ptr_default_deleteIS5_S2_EENS_9allocatorIS2_EEE21__on_zero_shared_weakEv @2698
    _ZNSt3__120__shared_ptr_pointerIPN3WAN13ResidualBlockENS_10shared_ptrI9GGMLBlockE27__shared_ptr_default_deleteIS5_S2_EENS_9allocatorIS2_EEED0Ev @2699
    _ZNSt3__120__shared_ptr_pointerIPN3WAN14AttentionBlockENS_10shared_ptrI9GGMLBlockE27__shared_ptr_default_deleteIS5_S2_EENS_9allocatorIS2_EEE16__on_zero_sharedEv @2700
    _ZNSt3__120__shared_ptr_pointerIPN3WAN14AttentionBlockENS_10shared_ptrI9GGMLBlockE27__shared_ptr_default_deleteIS5_S2_EENS_9allocatorIS2_EEE21__on_zero_shared_weakEv @2701
    _ZNSt3__120__shared_ptr_pointerIPN3WAN14AttentionBlockENS_10shared_ptrI9GGMLBlockE27__shared_ptr_default_deleteIS5_S2_EENS_9allocatorIS2_EEED0Ev @2702
    _ZNSt3__120__shared_ptr_pointerIPN3WAN16Up_ResidualBlockENS_10shared_ptrI9GGMLBlockE27__shared_ptr_default_deleteIS5_S2_EENS_9allocatorIS2_EEE16__on_zero_sharedEv @2703
    _ZNSt3__120__shared_ptr_pointerIPN3WAN16Up_ResidualBlockENS_10shared_ptrI9GGMLBlockE27__shared_ptr_default_deleteIS5_S2_EENS_9allocatorIS2_EEE21__on_zero_shared_weakEv @2704
    _ZNSt3__120__shared_ptr_pointerIPN3WAN16Up_ResidualBlockENS_10shared_ptrI9GGMLBlockE27__shared_ptr_default_deleteIS5_S2_EENS_9allocatorIS2_EEED0Ev @2705
    _ZNSt3__120__shared_ptr_pointerIPN3WAN16WanSelfAttentionENS_10shared_ptrI9GGMLBlockE27__shared_ptr_default_deleteIS5_S2_EENS_9allocatorIS2_EEE16__on_zero_sharedEv @2706
    _ZNSt3__120__shared_ptr_pointerIPN3WAN16WanSelfAttentionENS_10shared_ptrI9GGMLBlockE27__shared_ptr_default_deleteIS5_S2_EENS_9allocatorIS2_EEE21__on_zero_shared_weakEv @2707
    _ZNSt3__120__shared_ptr_pointerIPN3WAN16WanSelfAttentionENS_10shared_ptrI9GGMLBlockE27__shared_ptr_default_deleteIS5_S2_EENS_9allocatorIS2_EEED0Ev @2708
    _ZNSt3__120__shared_ptr_pointerIPN3WAN17WanAttentionBlockENS_10shared_ptrI9GGMLBlockE27__shared_ptr_default_deleteIS5_S2_EENS_9allocatorIS2_EEE16__on_zero_sharedEv @2709
    _ZNSt3__120__shared_ptr_pointerIPN3WAN17WanAttentionBlockENS_10shared_ptrI9GGMLBlockE27__shared_ptr_default_deleteIS5_S2_EENS_9allocatorIS2_EEE21__on_zero_shared_weakEv @2710
    _ZNSt3__120__shared_ptr_pointerIPN3WAN17WanAttentionBlockENS_10shared_ptrI9GGMLBlockE27__shared_ptr_default_deleteIS5_S2_EENS_9allocatorIS2_EEED0Ev @2711
    _ZNSt3__120__shared_ptr_pointerIPN3WAN18Down_ResidualBlockENS_10shared_ptrI9GGMLBlockE27__shared_ptr_default_deleteIS5_S2_EENS_9allocatorIS2_EEE16__on_zero_sharedEv @2712
    _ZNSt3__120__shared_ptr_pointerIPN3WAN18Down_ResidualBlockENS_10shared_ptrI9GGMLBlockE27__shared_ptr_default_deleteIS5_S2_EENS_9allocatorIS2_EEE21__on_zero_shared_weakEv @2713
    _ZNSt3__120__shared_ptr_pointerIPN3WAN18Down_ResidualBlockENS_10shared_ptrI9GGMLBlockE27__shared_ptr_default_deleteIS5_S2_EENS_9allocatorIS2_EEED0Ev @2714
    _ZNSt3__120__shared_ptr_pointerIPN3WAN20WanI2VCrossAttentionENS_10shared_ptrI9GGMLBlockE27__shared_ptr_default_deleteIS5_S2_EENS_9allocatorIS2_EEE16__on_zero_sharedEv @2715
    _ZNSt3__120__shared_ptr_pointerIPN3WAN20WanI2VCrossAttentionENS_10shared_ptrI9GGMLBlockE27__shared_ptr_default_deleteIS5_S2_EENS_9allocatorIS2_EEE21__on_zero_shared_weakEv @2716
    _ZNSt3__120__shared_ptr_pointerIPN3WAN20WanI2VCrossAttentionENS_10shared_ptrI9GGMLBlockE27__shared_ptr_default_deleteIS5_S2_EENS_9allocatorIS2_EEED0Ev @2717
    _ZNSt3__120__shared_ptr_pointerIPN3WAN20WanT2VCrossAttentionENS_10shared_ptrI9GGMLBlockE27__shared_ptr_default_deleteIS5_S2_EENS_9allocatorIS2_EEE16__on_zero_sharedEv @2718
    _ZNSt3__120__shared_ptr_pointerIPN3WAN20WanT2VCrossAttentionENS_10shared_ptrI9GGMLBlockE27__shared_ptr_default_deleteIS5_S2_EENS_9allocatorIS2_EEE21__on_zero_shared_weakEv @2719
    _ZNSt3__120__shared_ptr_pointerIPN3WAN20WanT2VCrossAttentionENS_10shared_ptrI9GGMLBlockE27__shared_ptr_default_deleteIS5_S2_EENS_9allocatorIS2_EEED0Ev @2720
    _ZNSt3__120__shared_ptr_pointerIPN3WAN21VaceWanAttentionBlockENS_10shared_ptrI9GGMLBlockE27__shared_ptr_default_deleteIS5_S2_EENS_9allocatorIS2_EEE16__on_zero_sharedEv @2721
    _ZNSt3__120__shared_ptr_pointerIPN3WAN21VaceWanAttentionBlockENS_10shared_ptrI9GGMLBlockE27__shared_ptr_default_deleteIS5_S2_EENS_9allocatorIS2_EEE21__on_zero_shared_weakEv @2722
    _ZNSt3__120__shared_ptr_pointerIPN3WAN21VaceWanAttentionBlockENS_10shared_ptrI9GGMLBlockE27__shared_ptr_default_deleteIS5_S2_EENS_9allocatorIS2_EEED0Ev @2723
    _ZNSt3__120__shared_ptr_pointerIPN3WAN4HeadENS_10shared_ptrI9GGMLBlockE27__shared_ptr_default_deleteIS5_S2_EENS_9allocatorIS2_EEE16__on_zero_sharedEv @2724
    _ZNSt3__120__shared_ptr_pointerIPN3WAN4HeadENS_10shared_ptrI9GGMLBlockE27__shared_ptr_default_deleteIS5_S2_EENS_9allocatorIS2_EEE21__on_zero_shared_weakEv @2725
    _ZNSt3__120__shared_ptr_pointerIPN3WAN4HeadENS_10shared_ptrI9GGMLBlockE27__shared_ptr_default_deleteIS5_S2_EENS_9allocatorIS2_EEED0Ev @2726
    _ZNSt3__120__shared_ptr_pointerIPN3WAN7DupUp3DENS_10shared_ptrI9GGMLBlockE27__shared_ptr_default_deleteIS5_S2_EENS_9allocatorIS2_EEE16__on_zero_sharedEv @2727
    _ZNSt3__120__shared_ptr_pointerIPN3WAN7DupUp3DENS_10shared_ptrI9GGMLBlockE27__shared_ptr_default_deleteIS5_S2_EENS_9allocatorIS2_EEE21__on_zero_shared_weakEv @2728
    _ZNSt3__120__shared_ptr_pointerIPN3WAN7DupUp3DENS_10shared_ptrI9GGMLBlockE27__shared_ptr_default_deleteIS5_S2_EENS_9allocatorIS2_EEED0Ev @2729
    _ZNSt3__120__shared_ptr_pointerIPN3WAN7MLPProjENS_10shared_ptrI9GGMLBlockE27__shared_ptr_default_deleteIS5_S2_EENS_9allocatorIS2_EEE16__on_zero_sharedEv @2730
    _ZNSt3__120__shared_ptr_pointerIPN3WAN7MLPProjENS_10shared_ptrI9GGMLBlockE27__shared_ptr_default_deleteIS5_S2_EENS_9allocatorIS2_EEE21__on_zero_shared_weakEv @2731
    _ZNSt3__120__shared_ptr_pointerIPN3WAN7MLPProjENS_10shared_ptrI9GGMLBlockE27__shared_ptr_default_deleteIS5_S2_EENS_9allocatorIS2_EEED0Ev @2732
    _ZNSt3__120__shared_ptr_pointerIPN3WAN8RMS_normENS_10shared_ptrI9GGMLBlockE27__shared_ptr_default_deleteIS5_S2_EENS_9allocatorIS2_EEE16__on_zero_sharedEv @2733
    _ZNSt3__120__shared_ptr_pointerIPN3WAN8RMS_normENS_10shared_ptrI9GGMLBlockE27__shared_ptr_default_deleteIS5_S2_EENS_9allocatorIS2_EEE21__on_zero_shared_weakEv @2734
    _ZNSt3__120__shared_ptr_pointerIPN3WAN8RMS_normENS_10shared_ptrI9GGMLBlockE27__shared_ptr_default_deleteIS5_S2_EENS_9allocatorIS2_EEED0Ev @2735
    _ZNSt3__120__shared_ptr_pointerIPN3WAN8ResampleENS_10shared_ptrI9GGMLBlockE27__shared_ptr_default_deleteIS5_S2_EENS_9allocatorIS2_EEE16__on_zero_sharedEv @2736
    _ZNSt3__120__shared_ptr_pointerIPN3WAN8ResampleENS_10shared_ptrI9GGMLBlockE27__shared_ptr_default_deleteIS5_S2_EENS_9allocatorIS2_EEE21__on_zero_shared_weakEv @2737
    _ZNSt3__120__shared_ptr_pointerIPN3WAN8ResampleENS_10shared_ptrI9GGMLBlockE27__shared_ptr_default_deleteIS5_S2_EENS_9allocatorIS2_EEED0Ev @2738
    _ZNSt3__120__shared_ptr_pointerIPN3WAN9AvgDown3DENS_10shared_ptrI9GGMLBlockE27__shared_ptr_default_deleteIS5_S2_EENS_9allocatorIS2_EEE16__on_zero_sharedEv @2739
    _ZNSt3__120__shared_ptr_pointerIPN3WAN9AvgDown3DENS_10shared_ptrI9GGMLBlockE27__shared_ptr_default_deleteIS5_S2_EENS_9allocatorIS2_EEE21__on_zero_shared_weakEv @2740
    _ZNSt3__120__shared_ptr_pointerIPN3WAN9AvgDown3DENS_10shared_ptrI9GGMLBlockE27__shared_ptr_default_deleteIS5_S2_EENS_9allocatorIS2_EEED0Ev @2741
    _ZNSt3__120__shared_ptr_pointerIPN3WAN9Decoder3dENS_10shared_ptrI9GGMLBlockE27__shared_ptr_default_deleteIS5_S2_EENS_9allocatorIS2_EEE16__on_zero_sharedEv @2742
    _ZNSt3__120__shared_ptr_pointerIPN3WAN9Decoder3dENS_10shared_ptrI9GGMLBlockE27__shared_ptr_default_deleteIS5_S2_EENS_9allocatorIS2_EEE21__on_zero_shared_weakEv @2743
    _ZNSt3__120__shared_ptr_pointerIPN3WAN9Decoder3dENS_10shared_ptrI9GGMLBlockE27__shared_ptr_default_deleteIS5_S2_EENS_9allocatorIS2_EEED0Ev @2744
    _ZNSt3__120__shared_ptr_pointerIPN3WAN9Encoder3dENS_10shared_ptrI9GGMLBlockE27__shared_ptr_default_deleteIS5_S2_EENS_9allocatorIS2_EEE16__on_zero_sharedEv @2745
    _ZNSt3__120__shared_ptr_pointerIPN3WAN9Encoder3dENS_10shared_ptrI9GGMLBlockE27__shared_ptr_default_deleteIS5_S2_EENS_9allocatorIS2_EEE21__on_zero_shared_weakEv @2746
    _ZNSt3__120__shared_ptr_pointerIPN3WAN9Encoder3dENS_10shared_ptrI9GGMLBlockE27__shared_ptr_default_deleteIS5_S2_EENS_9allocatorIS2_EEED0Ev @2747
    _ZNSt3__120__shared_ptr_pointerIPN4Flux10ModulationENS_10shared_ptrI9GGMLBlockE27__shared_ptr_default_deleteIS5_S2_EENS_9allocatorIS2_EEE16__on_zero_sharedEv @2748
    _ZNSt3__120__shared_ptr_pointerIPN4Flux10ModulationENS_10shared_ptrI9GGMLBlockE27__shared_ptr_default_deleteIS5_S2_EENS_9allocatorIS2_EEE21__on_zero_shared_weakEv @2749
    _ZNSt3__120__shared_ptr_pointerIPN4Flux10ModulationENS_10shared_ptrI9GGMLBlockE27__shared_ptr_default_deleteIS5_S2_EENS_9allocatorIS2_EEED0Ev @2750
    _ZNSt3__120__shared_ptr_pointerIPN4Flux11MLPEmbedderENS_10shared_ptrI9GGMLBlockE27__shared_ptr_default_deleteIS5_S2_EENS_9allocatorIS2_EEE16__on_zero_sharedEv @2751
    _ZNSt3__120__shared_ptr_pointerIPN4Flux11MLPEmbedderENS_10shared_ptrI9GGMLBlockE27__shared_ptr_default_deleteIS5_S2_EENS_9allocatorIS2_EEE21__on_zero_shared_weakEv @2752
    _ZNSt3__120__shared_ptr_pointerIPN4Flux11MLPEmbedderENS_10shared_ptrI9GGMLBlockE27__shared_ptr_default_deleteIS5_S2_EENS_9allocatorIS2_EEED0Ev @2753
    _ZNSt3__120__shared_ptr_pointerIPN4Flux13SelfAttentionENS_10shared_ptrI9GGMLBlockE27__shared_ptr_default_deleteIS5_S2_EENS_9allocatorIS2_EEE16__on_zero_sharedEv @2754
    _ZNSt3__120__shared_ptr_pointerIPN4Flux13SelfAttentionENS_10shared_ptrI9GGMLBlockE27__shared_ptr_default_deleteIS5_S2_EENS_9allocatorIS2_EEE21__on_zero_shared_weakEv @2755
    _ZNSt3__120__shared_ptr_pointerIPN4Flux13SelfAttentionENS_10shared_ptrI9GGMLBlockE27__shared_ptr_default_deleteIS5_S2_EENS_9allocatorIS2_EEED0Ev @2756
    _ZNSt3__120__shared_ptr_pointerIPN4Flux3MLPENS_10shared_ptrI9GGMLBlockE27__shared_ptr_default_deleteIS5_S2_EENS_9allocatorIS2_EEE16__on_zero_sharedEv @2757
    _ZNSt3__120__shared_ptr_pointerIPN4Flux3MLPENS_10shared_ptrI9GGMLBlockE27__shared_ptr_default_deleteIS5_S2_EENS_9allocatorIS2_EEE21__on_zero_shared_weakEv @2758
    _ZNSt3__120__shared_ptr_pointerIPN4Flux3MLPENS_10shared_ptrI9GGMLBlockE27__shared_ptr_default_deleteIS5_S2_EENS_9allocatorIS2_EEED0Ev @2759
    _ZNSt3__120__shared_ptr_pointerIPN4Flux6QKNormENS_10shared_ptrI9GGMLBlockE27__shared_ptr_default_deleteIS5_S2_EENS_9allocatorIS2_EEE16__on_zero_sharedEv @2760
    _ZNSt3__120__shared_ptr_pointerIPN4Flux6QKNormENS_10shared_ptrI9GGMLBlockE27__shared_ptr_default_deleteIS5_S2_EENS_9allocatorIS2_EEE21__on_zero_shared_weakEv @2761
    _ZNSt3__120__shared_ptr_pointerIPN4Flux6QKNormENS_10shared_ptrI9GGMLBlockE27__shared_ptr_default_deleteIS5_S2_EENS_9allocatorIS2_EEED0Ev @2762
    _ZNSt3__120__shared_ptr_pointerIPN4Flux6YakMLPENS_10shared_ptrI9GGMLBlockE27__shared_ptr_default_deleteIS5_S2_EENS_9allocatorIS2_EEE16__on_zero_sharedEv @2763
    _ZNSt3__120__shared_ptr_pointerIPN4Flux6YakMLPENS_10shared_ptrI9GGMLBlockE27__shared_ptr_default_deleteIS5_S2_EENS_9allocatorIS2_EEE21__on_zero_shared_weakEv @2764
    _ZNSt3__120__shared_ptr_pointerIPN4Flux6YakMLPENS_10shared_ptrI9GGMLBlockE27__shared_ptr_default_deleteIS5_S2_EENS_9allocatorIS2_EEED0Ev @2765
    _ZNSt3__120__shared_ptr_pointerIPN4Flux7RMSNormENS_10shared_ptrI9GGMLBlockE27__shared_ptr_default_deleteIS5_S2_EENS_9allocatorIS2_EEE16__on_zero_sharedEv @2766
    _ZNSt3__120__shared_ptr_pointerIPN4Flux7RMSNormENS_10shared_ptrI9GGMLBlockE27__shared_ptr_default_deleteIS5_S2_EENS_9allocatorIS2_EEE21__on_zero_shared_weakEv @2767
    _ZNSt3__120__shared_ptr_pointerIPN4Flux7RMSNormENS_10shared_ptrI9GGMLBlockE27__shared_ptr_default_deleteIS5_S2_EENS_9allocatorIS2_EEED0Ev @2768
    _ZNSt3__120__shared_ptr_pointerIPN4Qwen17TimestepEmbeddingENS_10shared_ptrI9GGMLBlockE27__shared_ptr_default_deleteIS5_S2_EENS_9allocatorIS2_EEE16__on_zero_sharedEv @2769
    _ZNSt3__120__shared_ptr_pointerIPN4Qwen17TimestepEmbeddingENS_10shared_ptrI9GGMLBlockE27__shared_ptr_default_deleteIS5_S2_EENS_9allocatorIS2_EEE21__on_zero_shared_weakEv @2770
    _ZNSt3__120__shared_ptr_pointerIPN4Qwen17TimestepEmbeddingENS_10shared_ptrI9GGMLBlockE27__shared_ptr_default_deleteIS5_S2_EENS_9allocatorIS2_EEED0Ev @2771
    _ZNSt3__120__shared_ptr_pointerIPN4Qwen18QwenImageAttentionENS_10shared_ptrI9GGMLBlockE27__shared_ptr_default_deleteIS5_S2_EENS_9allocatorIS2_EEE16__on_zero_sharedEv @2772
    _ZNSt3__120__shared_ptr_pointerIPN4Qwen18QwenImageAttentionENS_10shared_ptrI9GGMLBlockE27__shared_ptr_default_deleteIS5_S2_EENS_9allocatorIS2_EEE21__on_zero_shared_weakEv @2773
    _ZNSt3__120__shared_ptr_pointerIPN4Qwen18QwenImageAttentionENS_10shared_ptrI9GGMLBlockE27__shared_ptr_default_deleteIS5_S2_EENS_9allocatorIS2_EEED0Ev @2774
    _ZNSt3__120__shared_ptr_pointerIPN4Qwen22AdaLayerNormContinuousENS_10shared_ptrI9GGMLBlockE27__shared_ptr_default_deleteIS5_S2_EENS_9allocatorIS2_EEE16__on_zero_sharedEv @2775
    _ZNSt3__120__shared_ptr_pointerIPN4Qwen22AdaLayerNormContinuousENS_10shared_ptrI9GGMLBlockE27__shared_ptr_default_deleteIS5_S2_EENS_9allocatorIS2_EEE21__on_zero_shared_weakEv @2776
    _ZNSt3__120__shared_ptr_pointerIPN4Qwen22AdaLayerNormContinuousENS_10shared_ptrI9GGMLBlockE27__shared_ptr_default_deleteIS5_S2_EENS_9allocatorIS2_EEED0Ev @2777
    _ZNSt3__120__shared_ptr_pointerIPN4Qwen25QwenImageTransformerBlockENS_10shared_ptrI9GGMLBlockE27__shared_ptr_default_deleteIS5_S2_EENS_9allocatorIS2_EEE16__on_zero_sharedEv @2778
    _ZNSt3__120__shared_ptr_pointerIPN4Qwen25QwenImageTransformerBlockENS_10shared_ptrI9GGMLBlockE27__shared_ptr_default_deleteIS5_S2_EENS_9allocatorIS2_EEE21__on_zero_shared_weakEv @2779
    _ZNSt3__120__shared_ptr_pointerIPN4Qwen25QwenImageTransformerBlockENS_10shared_ptrI9GGMLBlockE27__shared_ptr_default_deleteIS5_S2_EENS_9allocatorIS2_EEED0Ev @2780
    _ZNSt3__120__shared_ptr_pointerIPN4Qwen26QwenTimestepProjEmbeddingsENS_10shared_ptrI9GGMLBlockE27__shared_ptr_default_deleteIS5_S2_EENS_9allocatorIS2_EEE16__on_zero_sharedEv @2781
    _ZNSt3__120__shared_ptr_pointerIPN4Qwen26QwenTimestepProjEmbeddingsENS_10shared_ptrI9GGMLBlockE27__shared_ptr_default_deleteIS5_S2_EENS_9allocatorIS2_EEE21__on_zero_shared_weakEv @2782
    _ZNSt3__120__shared_ptr_pointerIPN4Qwen26QwenTimestepProjEmbeddingsENS_10shared_ptrI9GGMLBlockE27__shared_ptr_default_deleteIS5_S2_EENS_9allocatorIS2_EEED0Ev @2783
    _ZNSt3__120__shared_ptr_pointerIPNS_13__empty_stateIcEENS_10shared_ptrIS2_E27__shared_ptr_default_deleteIS2_S2_EENS_9allocatorIS2_EEE16__on_zero_sharedEv @2784
    _ZNSt3__120__shared_ptr_pointerIPNS_13__empty_stateIcEENS_10shared_ptrIS2_E27__shared_ptr_default_deleteIS2_S2_EENS_9allocatorIS2_EEE21__on_zero_shared_weakEv @2785
    _ZNSt3__120__shared_ptr_pointerIPNS_13__empty_stateIcEENS_10shared_ptrIS2_E27__shared_ptr_default_deleteIS2_S2_EENS_9allocatorIS2_EEED0Ev @2786
    _ZNSt3__120__throw_length_errorB8ne200100EPKc @2787
    _ZNSt3__120__throw_out_of_rangeB8ne200100EPKc @2788
    _ZNSt3__120dynamic_pointer_castB8ne200100I9UNetModel14DiffusionModelEENS_10shared_ptrIT_EERKNS3_IT0_EE @2789
    _ZNSt3__121__empty_non_own_stateIcED0Ev @2790
    _ZNSt3__123__match_any_but_newlineIcED0Ev @2791
    _ZNSt3__124__put_character_sequenceB8ne200100IcNS_11char_traitsIcEEEERNS_13basic_ostreamIT_T0_EES7_PKS4_y @2792
    _ZNSt3__125__throw_bad_function_callB8ne200100Ev @2793
    _ZNSt3__126__end_marked_subexpressionIcED0Ev @2794
    _ZNSt3__126__insertion_sort_unguardedB8ne200100INS_17_ClassicAlgPolicyERNS_6__lessIvvEEPNS_4pairINS_12basic_stringIcNS_11char_traitsIcEENS_9allocatorIcEEEEiEEEEvT1_SE_T0_ @2795
    _ZNSt3__127__insertion_sort_incompleteB8ne200100INS_17_ClassicAlgPolicyERNS_6__lessIvvEEPNS_4pairINS_12basic_stringIcNS_11char_traitsIcEENS_9allocatorIcEEEEiEEEEbT1_SE_T0_ @2796
    _ZNSt3__127__tree_balance_after_insertB8ne200100IPNS_16__tree_node_baseIPvEEEEvT_S5_ @2797
    _ZNSt3__128__begin_marked_subexpressionIcED0Ev @2798
    _ZNSt3__128__exception_guard_exceptionsINS_29_AllocatorDestroyRangeReverseINS_9allocatorIN8nlohmann16json_abi_v3_11_210basic_jsonINS_3mapENS_6vectorENS_12basic_stringIcNS_11char_traitsIcEENS2_IcEEEEbxydS2_NS4_14adl_serializerENS7_IhNS2_ @2799
    _ZNSt3__128__exception_guard_exceptionsINS_29_AllocatorDestroyRangeReverseINS_9allocatorINS_12basic_stringIDiNS_11char_traitsIDiEENS2_IDiEEEEEEPS7_EEED2B8ne200100Ev @2800
    _ZNSt3__128__exception_guard_exceptionsINS_29_AllocatorDestroyRangeReverseINS_9allocatorINS_12basic_stringIcNS_11char_traitsIcEENS2_IcEEEEEEPS7_EEED2B8ne200100Ev @2801
    _ZNSt3__128__exception_guard_exceptionsINS_29_AllocatorDestroyRangeReverseINS_9allocatorINS_4pairINS_12basic_stringIcNS_11char_traitsIcEENS2_IcEEEES8_EEEEPS9_EEED2B8ne200100Ev @2802
    _ZNSt3__128__exception_guard_exceptionsINS_29_AllocatorDestroyRangeReverseINS_9allocatorINS_4pairINS_12basic_stringIcNS_11char_traitsIcEENS2_IcEEEEfEEEEPS9_EEED2B8ne200100Ev @2803
    _ZNSt3__128__exception_guard_exceptionsINS_29_AllocatorDestroyRangeReverseINS_9allocatorINS_4pairINS_6vectorIiNS2_IiEEEENS4_IfNS2_IfEEEEEEEEPS9_EEED2B8ne200100Ev @2804
    _ZNSt3__128__exception_guard_exceptionsINS_29_AllocatorDestroyRangeReverseINS_9allocatorINS_6vectorIfNS2_IfEEEEEEPS5_EEED2B8ne200100Ev @2805
    _ZNSt3__128__exception_guard_exceptionsINS_29_AllocatorDestroyRangeReverseINS_9allocatorINS_6vectorIjNS2_IjEEEEEEPS5_EEED2B8ne200100Ev @2806
    _ZNSt3__128__exception_guard_exceptionsINS_6vectorINS1_IfNS_9allocatorIfEEEENS2_IS4_EEE16__destroy_vectorEED2B8ne200100Ev @2807
    _ZNSt3__128__exception_guard_exceptionsINS_6vectorINS1_IiNS_9allocatorIiEEEENS2_IS4_EEE16__destroy_vectorEED2B8ne200100Ev @2808
    _ZNSt3__128__exception_guard_exceptionsINS_6vectorINS1_IjNS_9allocatorIjEEEENS2_IS4_EEE16__destroy_vectorEED2B8ne200100Ev @2809
    _ZNSt3__128__exception_guard_exceptionsINS_6vectorINS_10shared_ptrI9LoraModelEENS_9allocatorIS4_EEE16__destroy_vectorEED2B8ne200100Ev @2810
    _ZNSt3__128__exception_guard_exceptionsINS_6vectorINS_12basic_stringIDiNS_11char_traitsIDiEENS_9allocatorIDiEEEENS5_IS7_EEE16__destroy_vectorEED2B8ne200100Ev @2811
    _ZNSt3__128__exception_guard_exceptionsINS_6vectorINS_12basic_stringIcNS_11char_traitsIcEENS_9allocatorIcEEEENS5_IS7_EEE16__destroy_vectorEED2B8ne200100Ev @2812
    _ZNSt3__128__exception_guard_exceptionsINS_6vectorINS_4pairINS1_IiNS_9allocatorIiEEEENS1_IfNS3_IfEEEEEENS3_IS8_EEE16__destroy_vectorEED2B8ne200100Ev @2813
    _ZNSt3__128__exception_guard_exceptionsINS_6vectorINS_4pairINS_12basic_stringIcNS_11char_traitsIcEENS_9allocatorIcEEEES8_EENS6_IS9_EEE16__destroy_vectorEED2B8ne200100Ev @2814
    _ZNSt3__128__invoke_void_return_wrapperIbLb0EE6__callB8ne200100IJRZN33FrozenCLIPEmbedderWithCustomWords14load_embeddingENS_12basic_stringIcNS_11char_traitsIcEENS_9allocatorIcEEEES9_RNS_6vectorIiNS7_IiEEEEEUlRK13TensorStoragePP11ggml_ten @2815
    _ZNSt3__131__partition_with_equals_on_leftB8ne200100INS_17_ClassicAlgPolicyEPNS_4pairINS_12basic_stringIcNS_11char_traitsIcEENS_9allocatorIcEEEEiEERNS_6__lessIvvEEEET0_SE_SE_T1_ @2816
    _ZNSt3__132__partition_with_equals_on_rightB8ne200100INS_17_ClassicAlgPolicyEPNS_4pairINS_12basic_stringIcNS_11char_traitsIcEENS_9allocatorIcEEEEiEERNS_6__lessIvvEEEENS2_IT0_bEESE_SE_T1_ @2817
    _ZNSt3__134__uninitialized_allocator_relocateB8ne200100INS_9allocatorIN8nlohmann16json_abi_v3_11_210basic_jsonINS_3mapENS_6vectorENS_12basic_stringIcNS_11char_traitsIcEENS1_IcEEEEbxydS1_NS3_14adl_serializerENS6_IhNS1_IhEEEEEEEEPSF_EEvRT @2818
    _ZNSt3__135__uninitialized_allocator_copy_implB8ne200100INS_9allocatorINS_4pairINS_12basic_stringIcNS_11char_traitsIcEENS1_IcEEEES7_EEEEPKS8_SB_PS8_EET2_RT_T0_T1_SD_ @2819
    _ZNSt3__135__uninitialized_allocator_copy_implB8ne200100INS_9allocatorINS_6vectorIfNS1_IfEEEEEEPKS4_S7_PS4_EET2_RT_T0_T1_S9_ @2820
    _ZNSt3__135__uninitialized_allocator_copy_implB8ne200100INS_9allocatorINS_6vectorIfNS1_IfEEEEEEPS4_S6_S6_EET2_RT_T0_T1_S7_ @2821
    _ZNSt3__135__uninitialized_allocator_copy_implB8ne200100INS_9allocatorINS_6vectorIjNS1_IjEEEEEEPS4_S6_S6_EET2_RT_T0_T1_S7_ @2822
    _ZNSt3__13mapINS_12basic_stringIcNS_11char_traitsIcEENS_9allocatorIcEEEES6_NS_4lessIS6_EENS4_INS_4pairIKS6_S6_EEEEEC2B8ne200100ESt16initializer_listISB_ERKS8_ @2823
    _ZNSt3__13mapINS_12basic_stringIcNS_11char_traitsIcEENS_9allocatorIcEEEES6_NS_4lessIS6_EENS4_INS_4pairIKS6_S6_EEEEEixEOS6_ @2824
    _ZNSt3__13mapIiiNS_4lessIiEENS_9allocatorINS_4pairIKiiEEEEE6insertB8ne200100INS_20__map_const_iteratorINS_21__tree_const_iteratorINS_12__value_typeIiiEEPNS_11__tree_nodeISD_PvEExEEEEEEvT_SK_ @2825
    _ZNSt3__13setI9ggml_typeNS_4lessIS1_EENS_9allocatorIS1_EEEC2B8ne200100ESt16initializer_listIS1_ERKS3_ @2826
    _ZNSt3__13setIiNS_4lessIiEENS_9allocatorIiEEE6insertB8ne200100INS_21__tree_const_iteratorIiPNS_11__tree_nodeIiPvEExEEEEvT_SD_ @2827
    _ZNSt3__13setIiNS_4lessIiEENS_9allocatorIiEEEC2B8ne200100ESt16initializer_listIiERKS2_ @2828
    _ZNSt3__14endlB8ne200100IcNS_11char_traitsIcEEEERNS_13basic_ostreamIT_T0_EES7_ @2829
    _ZNSt3__14pairIKNS_12basic_stringIcNS_11char_traitsIcEENS_9allocatorIcEEEE13TensorStorageED2Ev @2830
    _ZNSt3__14pairIKNS_12basic_stringIcNS_11char_traitsIcEENS_9allocatorIcEEEES6_EC2B8ne200100IPKcSB_TnNS_9enable_ifIXclsr10_CheckArgsE23__is_pair_constructibleIT_T0_EEEiE4typeELi0EEEOSD_OSE_ @2831
    _ZNSt3__14pairIKNS_12basic_stringIcNS_11char_traitsIcEENS_9allocatorIcEEEES6_EC2B8ne200100IRA10_KcRA17_SA_TnNS_9enable_ifIXclsr10_CheckArgsE23__is_pair_constructibleIT_T0_EEEiE4typeELi0EEEOSG_OSH_ @2832
    _ZNSt3__14pairIKNS_12basic_stringIcNS_11char_traitsIcEENS_9allocatorIcEEEES6_EC2B8ne200100IRA11_KcRA18_SA_TnNS_9enable_ifIXclsr10_CheckArgsE23__is_pair_constructibleIT_T0_EEEiE4typeELi0EEEOSG_OSH_ @2833
    _ZNSt3__14pairIKNS_12basic_stringIcNS_11char_traitsIcEENS_9allocatorIcEEEES6_EC2B8ne200100IRA12_KcRA19_SA_TnNS_9enable_ifIXclsr10_CheckArgsE23__is_pair_constructibleIT_T0_EEEiE4typeELi0EEEOSG_OSH_ @2834
    _ZNSt3__14pairIKNS_12basic_stringIcNS_11char_traitsIcEENS_9allocatorIcEEEES6_EC2B8ne200100IRA13_KcRA14_SA_TnNS_9enable_ifIXclsr10_CheckArgsE23__is_pair_constructibleIT_T0_EEEiE4typeELi0EEEOSG_OSH_ @2835
    _ZNSt3__14pairIKNS_12basic_stringIcNS_11char_traitsIcEENS_9allocatorIcEEEES6_EC2B8ne200100IRA13_KcRA23_SA_TnNS_9enable_ifIXclsr10_CheckArgsE23__is_pair_constructibleIT_T0_EEEiE4typeELi0EEEOSG_OSH_ @2836
    _ZNSt3__14pairIKNS_12basic_stringIcNS_11char_traitsIcEENS_9allocatorIcEEEES6_EC2B8ne200100IRA14_KcRA13_SA_TnNS_9enable_ifIXclsr10_CheckArgsE23__is_pair_constructibleIT_T0_EEEiE4typeELi0EEEOSG_OSH_ @2837
    _ZNSt3__14pairIKNS_12basic_stringIcNS_11char_traitsIcEENS_9allocatorIcEEEES6_EC2B8ne200100IRA14_KcRA30_SA_TnNS_9enable_ifIXclsr10_CheckArgsE23__is_pair_constructibleIT_T0_EEEiE4typeELi0EEEOSG_OSH_ @2838
    _ZNSt3__14pairIKNS_12basic_stringIcNS_11char_traitsIcEENS_9allocatorIcEEEES6_EC2B8ne200100IRA15_KcRA16_SA_TnNS_9enable_ifIXclsr10_CheckArgsE23__is_pair_constructibleIT_T0_EEEiE4typeELi0EEEOSG_OSH_ @2839
    _ZNSt3__14pairIKNS_12basic_stringIcNS_11char_traitsIcEENS_9allocatorIcEEEES6_EC2B8ne200100IRA15_KcRA18_SA_TnNS_9enable_ifIXclsr10_CheckArgsE23__is_pair_constructibleIT_T0_EEEiE4typeELi0EEEOSG_OSH_ @2840
    _ZNSt3__14pairIKNS_12basic_stringIcNS_11char_traitsIcEENS_9allocatorIcEEEES6_EC2B8ne200100IRA16_KcRA13_SA_TnNS_9enable_ifIXclsr10_CheckArgsE23__is_pair_constructibleIT_T0_EEEiE4typeELi0EEEOSG_OSH_ @2841
    _ZNSt3__14pairIKNS_12basic_stringIcNS_11char_traitsIcEENS_9allocatorIcEEEES6_EC2B8ne200100IRA16_KcRA15_SA_TnNS_9enable_ifIXclsr10_CheckArgsE23__is_pair_constructibleIT_T0_EEEiE4typeELi0EEEOSG_OSH_ @2842
    _ZNSt3__14pairIKNS_12basic_stringIcNS_11char_traitsIcEENS_9allocatorIcEEEES6_EC2B8ne200100IRA16_KcRA32_SA_TnNS_9enable_ifIXclsr10_CheckArgsE23__is_pair_constructibleIT_T0_EEEiE4typeELi0EEEOSG_OSH_ @2843
    _ZNSt3__14pairIKNS_12basic_stringIcNS_11char_traitsIcEENS_9allocatorIcEEEES6_EC2B8ne200100IRA16_KcSC_TnNS_9enable_ifIXclsr10_CheckArgsE23__is_pair_constructibleIT_T0_EEEiE4typeELi0EEEOSE_OSF_ @2844
    _ZNSt3__14pairIKNS_12basic_stringIcNS_11char_traitsIcEENS_9allocatorIcEEEES6_EC2B8ne200100IRA17_KcRA23_SA_TnNS_9enable_ifIXclsr10_CheckArgsE23__is_pair_constructibleIT_T0_EEEiE4typeELi0EEEOSG_OSH_ @2845
    _ZNSt3__14pairIKNS_12basic_stringIcNS_11char_traitsIcEENS_9allocatorIcEEEES6_EC2B8ne200100IRA17_KcSC_TnNS_9enable_ifIXclsr10_CheckArgsE23__is_pair_constructibleIT_T0_EEEiE4typeELi0EEEOSE_OSF_ @2846
    _ZNSt3__14pairIKNS_12basic_stringIcNS_11char_traitsIcEENS_9allocatorIcEEEES6_EC2B8ne200100IRA18_KcRA15_SA_TnNS_9enable_ifIXclsr10_CheckArgsE23__is_pair_constructibleIT_T0_EEEiE4typeELi0EEEOSG_OSH_ @2847
    _ZNSt3__14pairIKNS_12basic_stringIcNS_11char_traitsIcEENS_9allocatorIcEEEES6_EC2B8ne200100IRA18_KcRA23_SA_TnNS_9enable_ifIXclsr10_CheckArgsE23__is_pair_constructibleIT_T0_EEEiE4typeELi0EEEOSG_OSH_ @2848
    _ZNSt3__14pairIKNS_12basic_stringIcNS_11char_traitsIcEENS_9allocatorIcEEEES6_EC2B8ne200100IRA18_KcRA37_SA_TnNS_9enable_ifIXclsr10_CheckArgsE23__is_pair_constructibleIT_T0_EEEiE4typeELi0EEEOSG_OSH_ @2849
    _ZNSt3__14pairIKNS_12basic_stringIcNS_11char_traitsIcEENS_9allocatorIcEEEES6_EC2B8ne200100IRA18_KcSC_TnNS_9enable_ifIXclsr10_CheckArgsE23__is_pair_constructibleIT_T0_EEEiE4typeELi0EEEOSE_OSF_ @2850
    _ZNSt3__14pairIKNS_12basic_stringIcNS_11char_traitsIcEENS_9allocatorIcEEEES6_EC2B8ne200100IRA19_KcRA24_SA_TnNS_9enable_ifIXclsr10_CheckArgsE23__is_pair_constructibleIT_T0_EEEiE4typeELi0EEEOSG_OSH_ @2851
    _ZNSt3__14pairIKNS_12basic_stringIcNS_11char_traitsIcEENS_9allocatorIcEEEES6_EC2B8ne200100IRA20_KcRA12_SA_TnNS_9enable_ifIXclsr10_CheckArgsE23__is_pair_constructibleIT_T0_EEEiE4typeELi0EEEOSG_OSH_ @2852
    _ZNSt3__14pairIKNS_12basic_stringIcNS_11char_traitsIcEENS_9allocatorIcEEEES6_EC2B8ne200100IRA20_KcRA25_SA_TnNS_9enable_ifIXclsr10_CheckArgsE23__is_pair_constructibleIT_T0_EEEiE4typeELi0EEEOSG_OSH_ @2853
    _ZNSt3__14pairIKNS_12basic_stringIcNS_11char_traitsIcEENS_9allocatorIcEEEES6_EC2B8ne200100IRA20_KcRA45_SA_TnNS_9enable_ifIXclsr10_CheckArgsE23__is_pair_constructibleIT_T0_EEEiE4typeELi0EEEOSG_OSH_ @2854
    _ZNSt3__14pairIKNS_12basic_stringIcNS_11char_traitsIcEENS_9allocatorIcEEEES6_EC2B8ne200100IRA21_KcRA26_SA_TnNS_9enable_ifIXclsr10_CheckArgsE23__is_pair_constructibleIT_T0_EEEiE4typeELi0EEEOSG_OSH_ @2855
    _ZNSt3__14pairIKNS_12basic_stringIcNS_11char_traitsIcEENS_9allocatorIcEEEES6_EC2B8ne200100IRA22_KcRA39_SA_TnNS_9enable_ifIXclsr10_CheckArgsE23__is_pair_constructibleIT_T0_EEEiE4typeELi0EEEOSG_OSH_ @2856
    _ZNSt3__14pairIKNS_12basic_stringIcNS_11char_traitsIcEENS_9allocatorIcEEEES6_EC2B8ne200100IRA22_KcRA47_SA_TnNS_9enable_ifIXclsr10_CheckArgsE23__is_pair_constructibleIT_T0_EEEiE4typeELi0EEEOSG_OSH_ @2857
    _ZNSt3__14pairIKNS_12basic_stringIcNS_11char_traitsIcEENS_9allocatorIcEEEES6_EC2B8ne200100IRA23_KcRA16_SA_TnNS_9enable_ifIXclsr10_CheckArgsE23__is_pair_constructibleIT_T0_EEEiE4typeELi0EEEOSG_OSH_ @2858
    _ZNSt3__14pairIKNS_12basic_stringIcNS_11char_traitsIcEENS_9allocatorIcEEEES6_EC2B8ne200100IRA23_KcRA18_SA_TnNS_9enable_ifIXclsr10_CheckArgsE23__is_pair_constructibleIT_T0_EEEiE4typeELi0EEEOSG_OSH_ @2859
    _ZNSt3__14pairIKNS_12basic_stringIcNS_11char_traitsIcEENS_9allocatorIcEEEES6_EC2B8ne200100IRA25_KcRA17_SA_TnNS_9enable_ifIXclsr10_CheckArgsE23__is_pair_constructibleIT_T0_EEEiE4typeELi0EEEOSG_OSH_ @2860
    _ZNSt3__14pairIKNS_12basic_stringIcNS_11char_traitsIcEENS_9allocatorIcEEEES6_EC2B8ne200100IRA25_KcRA18_SA_TnNS_9enable_ifIXclsr10_CheckArgsE23__is_pair_constructibleIT_T0_EEEiE4typeELi0EEEOSG_OSH_ @2861
    _ZNSt3__14pairIKNS_12basic_stringIcNS_11char_traitsIcEENS_9allocatorIcEEEES6_EC2B8ne200100IRA25_KcRA20_SA_TnNS_9enable_ifIXclsr10_CheckArgsE23__is_pair_constructibleIT_T0_EEEiE4typeELi0EEEOSG_OSH_ @2862
    _ZNSt3__14pairIKNS_12basic_stringIcNS_11char_traitsIcEENS_9allocatorIcEEEES6_EC2B8ne200100IRA25_KcRA44_SA_TnNS_9enable_ifIXclsr10_CheckArgsE23__is_pair_constructibleIT_T0_EEEiE4typeELi0EEEOSG_OSH_ @2863
    _ZNSt3__14pairIKNS_12basic_stringIcNS_11char_traitsIcEENS_9allocatorIcEEEES6_EC2B8ne200100IRA26_KcRA45_SA_TnNS_9enable_ifIXclsr10_CheckArgsE23__is_pair_constructibleIT_T0_EEEiE4typeELi0EEEOSG_OSH_ @2864
    _ZNSt3__14pairIKNS_12basic_stringIcNS_11char_traitsIcEENS_9allocatorIcEEEES6_EC2B8ne200100IRA26_KcRA59_SA_TnNS_9enable_ifIXclsr10_CheckArgsE23__is_pair_constructibleIT_T0_EEEiE4typeELi0EEEOSG_OSH_ @2865
    _ZNSt3__14pairIKNS_12basic_stringIcNS_11char_traitsIcEENS_9allocatorIcEEEES6_EC2B8ne200100IRA27_KcRA46_SA_TnNS_9enable_ifIXclsr10_CheckArgsE23__is_pair_constructibleIT_T0_EEEiE4typeELi0EEEOSG_OSH_ @2866
    _ZNSt3__14pairIKNS_12basic_stringIcNS_11char_traitsIcEENS_9allocatorIcEEEES6_EC2B8ne200100IRA27_KcRA60_SA_TnNS_9enable_ifIXclsr10_CheckArgsE23__is_pair_constructibleIT_T0_EEEiE4typeELi0EEEOSG_OSH_ @2867
    _ZNSt3__14pairIKNS_12basic_stringIcNS_11char_traitsIcEENS_9allocatorIcEEEES6_EC2B8ne200100IRA28_KcRA47_SA_TnNS_9enable_ifIXclsr10_CheckArgsE23__is_pair_constructibleIT_T0_EEEiE4typeELi0EEEOSG_OSH_ @2868
    _ZNSt3__14pairIKNS_12basic_stringIcNS_11char_traitsIcEENS_9allocatorIcEEEES6_EC2B8ne200100IRA29_KcRA52_SA_TnNS_9enable_ifIXclsr10_CheckArgsE23__is_pair_constructibleIT_T0_EEEiE4typeELi0EEEOSG_OSH_ @2869
    _ZNSt3__14pairIKNS_12basic_stringIcNS_11char_traitsIcEENS_9allocatorIcEEEES6_EC2B8ne200100IRA29_KcRA57_SA_TnNS_9enable_ifIXclsr10_CheckArgsE23__is_pair_constructibleIT_T0_EEEiE4typeELi0EEEOSG_OSH_ @2870
    _ZNSt3__14pairIKNS_12basic_stringIcNS_11char_traitsIcEENS_9allocatorIcEEEES6_EC2B8ne200100IRA34_KcRA62_SA_TnNS_9enable_ifIXclsr10_CheckArgsE23__is_pair_constructibleIT_T0_EEEiE4typeELi0EEEOSG_OSH_ @2871
    _ZNSt3__14pairIKNS_12basic_stringIcNS_11char_traitsIcEENS_9allocatorIcEEEES6_EC2B8ne200100IRA35_KcRA18_SA_TnNS_9enable_ifIXclsr10_CheckArgsE23__is_pair_constructibleIT_T0_EEEiE4typeELi0EEEOSG_OSH_ @2872
    _ZNSt3__14pairIKNS_12basic_stringIcNS_11char_traitsIcEENS_9allocatorIcEEEES6_EC2B8ne200100IRA41_KcRA43_SA_TnNS_9enable_ifIXclsr10_CheckArgsE23__is_pair_constructibleIT_T0_EEEiE4typeELi0EEEOSG_OSH_ @2873
    _ZNSt3__14pairIKNS_12basic_stringIcNS_11char_traitsIcEENS_9allocatorIcEEEES6_EC2B8ne200100IRA43_KcRA30_SA_TnNS_9enable_ifIXclsr10_CheckArgsE23__is_pair_constructibleIT_T0_EEEiE4typeELi0EEEOSG_OSH_ @2874
    _ZNSt3__14pairIKNS_12basic_stringIcNS_11char_traitsIcEENS_9allocatorIcEEEES6_EC2B8ne200100IRA43_KcRA44_SA_TnNS_9enable_ifIXclsr10_CheckArgsE23__is_pair_constructibleIT_T0_EEEiE4typeELi0EEEOSG_OSH_ @2875
    _ZNSt3__14pairIKNS_12basic_stringIcNS_11char_traitsIcEENS_9allocatorIcEEEES6_EC2B8ne200100IRA43_KcRA45_SA_TnNS_9enable_ifIXclsr10_CheckArgsE23__is_pair_constructibleIT_T0_EEEiE4typeELi0EEEOSG_OSH_ @2876
    _ZNSt3__14pairIKNS_12basic_stringIcNS_11char_traitsIcEENS_9allocatorIcEEEES6_EC2B8ne200100IRA45_KcRA46_SA_TnNS_9enable_ifIXclsr10_CheckArgsE23__is_pair_constructibleIT_T0_EEEiE4typeELi0EEEOSG_OSH_ @2877
    _ZNSt3__14pairIKNS_12basic_stringIcNS_11char_traitsIcEENS_9allocatorIcEEEES6_EC2B8ne200100IRA4_KcRA30_SA_TnNS_9enable_ifIXclsr10_CheckArgsE23__is_pair_constructibleIT_T0_EEEiE4typeELi0EEEOSG_OSH_ @2878
    _ZNSt3__14pairIKNS_12basic_stringIcNS_11char_traitsIcEENS_9allocatorIcEEEES6_EC2B8ne200100IRA5_KcRA19_SA_TnNS_9enable_ifIXclsr10_CheckArgsE23__is_pair_constructibleIT_T0_EEEiE4typeELi0EEEOSG_OSH_ @2879
    _ZNSt3__14pairIKNS_12basic_stringIcNS_11char_traitsIcEENS_9allocatorIcEEEES6_EC2B8ne200100IRA5_KcRA30_SA_TnNS_9enable_ifIXclsr10_CheckArgsE23__is_pair_constructibleIT_T0_EEEiE4typeELi0EEEOSG_OSH_ @2880
    _ZNSt3__14pairIKNS_12basic_stringIcNS_11char_traitsIcEENS_9allocatorIcEEEES6_EC2B8ne200100IRA5_KcRA32_SA_TnNS_9enable_ifIXclsr10_CheckArgsE23__is_pair_constructibleIT_T0_EEEiE4typeELi0EEEOSG_OSH_ @2881
    _ZNSt3__14pairIKNS_12basic_stringIcNS_11char_traitsIcEENS_9allocatorIcEEEES6_EC2B8ne200100IRA5_KcRA33_SA_TnNS_9enable_ifIXclsr10_CheckArgsE23__is_pair_constructibleIT_T0_EEEiE4typeELi0EEEOSG_OSH_ @2882
    _ZNSt3__14pairIKNS_12basic_stringIcNS_11char_traitsIcEENS_9allocatorIcEEEES6_EC2B8ne200100IRA63_KcRA67_SA_TnNS_9enable_ifIXclsr10_CheckArgsE23__is_pair_constructibleIT_T0_EEEiE4typeELi0EEEOSG_OSH_ @2883
    _ZNSt3__14pairIKNS_12basic_stringIcNS_11char_traitsIcEENS_9allocatorIcEEEES6_EC2B8ne200100IRA6_KcRA13_SA_TnNS_9enable_ifIXclsr10_CheckArgsE23__is_pair_constructibleIT_T0_EEEiE4typeELi0EEEOSG_OSH_ @2884
    _ZNSt3__14pairIKNS_12basic_stringIcNS_11char_traitsIcEENS_9allocatorIcEEEES6_EC2B8ne200100IRA6_KcRA23_SA_TnNS_9enable_ifIXclsr10_CheckArgsE23__is_pair_constructibleIT_T0_EEEiE4typeELi0EEEOSG_OSH_ @2885
    _ZNSt3__14pairIKNS_12basic_stringIcNS_11char_traitsIcEENS_9allocatorIcEEEES6_EC2B8ne200100IRA7_KcRA14_SA_TnNS_9enable_ifIXclsr10_CheckArgsE23__is_pair_constructibleIT_T0_EEEiE4typeELi0EEEOSG_OSH_ @2886
    _ZNSt3__14pairIKNS_12basic_stringIcNS_11char_traitsIcEENS_9allocatorIcEEEES6_EC2B8ne200100IRA8_KcRA11_SA_TnNS_9enable_ifIXclsr10_CheckArgsE23__is_pair_constructibleIT_T0_EEEiE4typeELi0EEEOSG_OSH_ @2887
    _ZNSt3__14pairIKNS_12basic_stringIcNS_11char_traitsIcEENS_9allocatorIcEEEES6_EC2B8ne200100IRA9_KcRA16_SA_TnNS_9enable_ifIXclsr10_CheckArgsE23__is_pair_constructibleIT_T0_EEEiE4typeELi0EEEOSG_OSH_ @2888
    _ZNSt3__14pairIKNS_12basic_stringIcNS_11char_traitsIcEENS_9allocatorIcEEEES6_ED2Ev @2889
    _ZNSt3__14pairINS_12basic_stringIDiNS_11char_traitsIDiEENS_9allocatorIDiEEEES6_ED2Ev @2890
    _ZNSt3__14pairINS_12basic_stringIcNS_11char_traitsIcEENS_9allocatorIcEEEES6_EC2B8ne200100IRA10_KcRA11_S9_TnNS_9enable_ifIXclsr10_CheckArgsE23__is_pair_constructibleIT_T0_EEEiE4typeELi0EEEOSF_OSG_ @2891
    _ZNSt3__14pairINS_12basic_stringIcNS_11char_traitsIcEENS_9allocatorIcEEEES6_EC2B8ne200100IRA10_KcRA15_S9_TnNS_9enable_ifIXclsr10_CheckArgsE23__is_pair_constructibleIT_T0_EEEiE4typeELi0EEEOSF_OSG_ @2892
    _ZNSt3__14pairINS_12basic_stringIcNS_11char_traitsIcEENS_9allocatorIcEEEES6_EC2B8ne200100IRA10_KcRA20_S9_TnNS_9enable_ifIXclsr10_CheckArgsE23__is_pair_constructibleIT_T0_EEEiE4typeELi0EEEOSF_OSG_ @2893
    _ZNSt3__14pairINS_12basic_stringIcNS_11char_traitsIcEENS_9allocatorIcEEEES6_EC2B8ne200100IRA10_KcRA26_S9_TnNS_9enable_ifIXclsr10_CheckArgsE23__is_pair_constructibleIT_T0_EEEiE4typeELi0EEEOSF_OSG_ @2894
    _ZNSt3__14pairINS_12basic_stringIcNS_11char_traitsIcEENS_9allocatorIcEEEES6_EC2B8ne200100IRA10_KcRA27_S9_TnNS_9enable_ifIXclsr10_CheckArgsE23__is_pair_constructibleIT_T0_EEEiE4typeELi0EEEOSF_OSG_ @2895
    _ZNSt3__14pairINS_12basic_stringIcNS_11char_traitsIcEENS_9allocatorIcEEEES6_EC2B8ne200100IRA10_KcRA29_S9_TnNS_9enable_ifIXclsr10_CheckArgsE23__is_pair_constructibleIT_T0_EEEiE4typeELi0EEEOSF_OSG_ @2896
    _ZNSt3__14pairINS_12basic_stringIcNS_11char_traitsIcEENS_9allocatorIcEEEES6_EC2B8ne200100IRA11_KcRA13_S9_TnNS_9enable_ifIXclsr10_CheckArgsE23__is_pair_constructibleIT_T0_EEEiE4typeELi0EEEOSF_OSG_ @2897
    _ZNSt3__14pairINS_12basic_stringIcNS_11char_traitsIcEENS_9allocatorIcEEEES6_EC2B8ne200100IRA11_KcRA14_S9_TnNS_9enable_ifIXclsr10_CheckArgsE23__is_pair_constructibleIT_T0_EEEiE4typeELi0EEEOSF_OSG_ @2898
    _ZNSt3__14pairINS_12basic_stringIcNS_11char_traitsIcEENS_9allocatorIcEEEES6_EC2B8ne200100IRA11_KcRA17_S9_TnNS_9enable_ifIXclsr10_CheckArgsE23__is_pair_constructibleIT_T0_EEEiE4typeELi0EEEOSF_OSG_ @2899
    _ZNSt3__14pairINS_12basic_stringIcNS_11char_traitsIcEENS_9allocatorIcEEEES6_EC2B8ne200100IRA11_KcRA19_S9_TnNS_9enable_ifIXclsr10_CheckArgsE23__is_pair_constructibleIT_T0_EEEiE4typeELi0EEEOSF_OSG_ @2900
    _ZNSt3__14pairINS_12basic_stringIcNS_11char_traitsIcEENS_9allocatorIcEEEES6_EC2B8ne200100IRA11_KcRA20_S9_TnNS_9enable_ifIXclsr10_CheckArgsE23__is_pair_constructibleIT_T0_EEEiE4typeELi0EEEOSF_OSG_ @2901
    _ZNSt3__14pairINS_12basic_stringIcNS_11char_traitsIcEENS_9allocatorIcEEEES6_EC2B8ne200100IRA12_KcRA14_S9_TnNS_9enable_ifIXclsr10_CheckArgsE23__is_pair_constructibleIT_T0_EEEiE4typeELi0EEEOSF_OSG_ @2902
    _ZNSt3__14pairINS_12basic_stringIcNS_11char_traitsIcEENS_9allocatorIcEEEES6_EC2B8ne200100IRA12_KcRA20_S9_TnNS_9enable_ifIXclsr10_CheckArgsE23__is_pair_constructibleIT_T0_EEEiE4typeELi0EEEOSF_OSG_ @2903
    _ZNSt3__14pairINS_12basic_stringIcNS_11char_traitsIcEENS_9allocatorIcEEEES6_EC2B8ne200100IRA12_KcRA24_S9_TnNS_9enable_ifIXclsr10_CheckArgsE23__is_pair_constructibleIT_T0_EEEiE4typeELi0EEEOSF_OSG_ @2904
    _ZNSt3__14pairINS_12basic_stringIcNS_11char_traitsIcEENS_9allocatorIcEEEES6_EC2B8ne200100IRA12_KcRA47_S9_TnNS_9enable_ifIXclsr10_CheckArgsE23__is_pair_constructibleIT_T0_EEEiE4typeELi0EEEOSF_OSG_ @2905
    _ZNSt3__14pairINS_12basic_stringIcNS_11char_traitsIcEENS_9allocatorIcEEEES6_EC2B8ne200100IRA12_KcRA6_S9_TnNS_9enable_ifIXclsr10_CheckArgsE23__is_pair_constructibleIT_T0_EEEiE4typeELi0EEEOSF_OSG_ @2906
    _ZNSt3__14pairINS_12basic_stringIcNS_11char_traitsIcEENS_9allocatorIcEEEES6_EC2B8ne200100IRA12_KcRA8_S9_TnNS_9enable_ifIXclsr10_CheckArgsE23__is_pair_constructibleIT_T0_EEEiE4typeELi0EEEOSF_OSG_ @2907
    _ZNSt3__14pairINS_12basic_stringIcNS_11char_traitsIcEENS_9allocatorIcEEEES6_EC2B8ne200100IRA13_KcRA12_S9_TnNS_9enable_ifIXclsr10_CheckArgsE23__is_pair_constructibleIT_T0_EEEiE4typeELi0EEEOSF_OSG_ @2908
    _ZNSt3__14pairINS_12basic_stringIcNS_11char_traitsIcEENS_9allocatorIcEEEES6_EC2B8ne200100IRA13_KcRA14_S9_TnNS_9enable_ifIXclsr10_CheckArgsE23__is_pair_constructibleIT_T0_EEEiE4typeELi0EEEOSF_OSG_ @2909
    _ZNSt3__14pairINS_12basic_stringIcNS_11char_traitsIcEENS_9allocatorIcEEEES6_EC2B8ne200100IRA13_KcRA16_S9_TnNS_9enable_ifIXclsr10_CheckArgsE23__is_pair_constructibleIT_T0_EEEiE4typeELi0EEEOSF_OSG_ @2910
    _ZNSt3__14pairINS_12basic_stringIcNS_11char_traitsIcEENS_9allocatorIcEEEES6_EC2B8ne200100IRA13_KcRA18_S9_TnNS_9enable_ifIXclsr10_CheckArgsE23__is_pair_constructibleIT_T0_EEEiE4typeELi0EEEOSF_OSG_ @2911
    _ZNSt3__14pairINS_12basic_stringIcNS_11char_traitsIcEENS_9allocatorIcEEEES6_EC2B8ne200100IRA13_KcRA21_S9_TnNS_9enable_ifIXclsr10_CheckArgsE23__is_pair_constructibleIT_T0_EEEiE4typeELi0EEEOSF_OSG_ @2912
    _ZNSt3__14pairINS_12basic_stringIcNS_11char_traitsIcEENS_9allocatorIcEEEES6_EC2B8ne200100IRA13_KcRA6_S9_TnNS_9enable_ifIXclsr10_CheckArgsE23__is_pair_constructibleIT_T0_EEEiE4typeELi0EEEOSF_OSG_ @2913
    _ZNSt3__14pairINS_12basic_stringIcNS_11char_traitsIcEENS_9allocatorIcEEEES6_EC2B8ne200100IRA14_KcRA16_S9_TnNS_9enable_ifIXclsr10_CheckArgsE23__is_pair_constructibleIT_T0_EEEiE4typeELi0EEEOSF_OSG_ @2914
    _ZNSt3__14pairINS_12basic_stringIcNS_11char_traitsIcEENS_9allocatorIcEEEES6_EC2B8ne200100IRA16_KcRA14_S9_TnNS_9enable_ifIXclsr10_CheckArgsE23__is_pair_constructibleIT_T0_EEEiE4typeELi0EEEOSF_OSG_ @2915
    _ZNSt3__14pairINS_12basic_stringIcNS_11char_traitsIcEENS_9allocatorIcEEEES6_EC2B8ne200100IRA16_KcRA24_S9_TnNS_9enable_ifIXclsr10_CheckArgsE23__is_pair_constructibleIT_T0_EEEiE4typeELi0EEEOSF_OSG_ @2916
    _ZNSt3__14pairINS_12basic_stringIcNS_11char_traitsIcEENS_9allocatorIcEEEES6_EC2B8ne200100IRA18_KcRA29_S9_TnNS_9enable_ifIXclsr10_CheckArgsE23__is_pair_constructibleIT_T0_EEEiE4typeELi0EEEOSF_OSG_ @2917
    _ZNSt3__14pairINS_12basic_stringIcNS_11char_traitsIcEENS_9allocatorIcEEEES6_EC2B8ne200100IRA19_KcRA28_S9_TnNS_9enable_ifIXclsr10_CheckArgsE23__is_pair_constructibleIT_T0_EEEiE4typeELi0EEEOSF_OSG_ @2918
    _ZNSt3__14pairINS_12basic_stringIcNS_11char_traitsIcEENS_9allocatorIcEEEES6_EC2B8ne200100IRA20_KcRA26_S9_TnNS_9enable_ifIXclsr10_CheckArgsE23__is_pair_constructibleIT_T0_EEEiE4typeELi0EEEOSF_OSG_ @2919
    _ZNSt3__14pairINS_12basic_stringIcNS_11char_traitsIcEENS_9allocatorIcEEEES6_EC2B8ne200100IRA20_KcRA31_S9_TnNS_9enable_ifIXclsr10_CheckArgsE23__is_pair_constructibleIT_T0_EEEiE4typeELi0EEEOSF_OSG_ @2920
    _ZNSt3__14pairINS_12basic_stringIcNS_11char_traitsIcEENS_9allocatorIcEEEES6_EC2B8ne200100IRA21_KcRA30_S9_TnNS_9enable_ifIXclsr10_CheckArgsE23__is_pair_constructibleIT_T0_EEEiE4typeELi0EEEOSF_OSG_ @2921
    _ZNSt3__14pairINS_12basic_stringIcNS_11char_traitsIcEENS_9allocatorIcEEEES6_EC2B8ne200100IRA22_KcRA13_S9_TnNS_9enable_ifIXclsr10_CheckArgsE23__is_pair_constructibleIT_T0_EEEiE4typeELi0EEEOSF_OSG_ @2922
    _ZNSt3__14pairINS_12basic_stringIcNS_11char_traitsIcEENS_9allocatorIcEEEES6_EC2B8ne200100IRA22_KcRA23_S9_TnNS_9enable_ifIXclsr10_CheckArgsE23__is_pair_constructibleIT_T0_EEEiE4typeELi0EEEOSF_OSG_ @2923
    _ZNSt3__14pairINS_12basic_stringIcNS_11char_traitsIcEENS_9allocatorIcEEEES6_EC2B8ne200100IRA22_KcRA25_S9_TnNS_9enable_ifIXclsr10_CheckArgsE23__is_pair_constructibleIT_T0_EEEiE4typeELi0EEEOSF_OSG_ @2924
    _ZNSt3__14pairINS_12basic_stringIcNS_11char_traitsIcEENS_9allocatorIcEEEES6_EC2B8ne200100IRA22_KcRA26_S9_TnNS_9enable_ifIXclsr10_CheckArgsE23__is_pair_constructibleIT_T0_EEEiE4typeELi0EEEOSF_OSG_ @2925
    _ZNSt3__14pairINS_12basic_stringIcNS_11char_traitsIcEENS_9allocatorIcEEEES6_EC2B8ne200100IRA24_KcRA15_S9_TnNS_9enable_ifIXclsr10_CheckArgsE23__is_pair_constructibleIT_T0_EEEiE4typeELi0EEEOSF_OSG_ @2926
    _ZNSt3__14pairINS_12basic_stringIcNS_11char_traitsIcEENS_9allocatorIcEEEES6_EC2B8ne200100IRA24_KcRA25_S9_TnNS_9enable_ifIXclsr10_CheckArgsE23__is_pair_constructibleIT_T0_EEEiE4typeELi0EEEOSF_OSG_ @2927
    _ZNSt3__14pairINS_12basic_stringIcNS_11char_traitsIcEENS_9allocatorIcEEEES6_EC2B8ne200100IRA24_KcRA27_S9_TnNS_9enable_ifIXclsr10_CheckArgsE23__is_pair_constructibleIT_T0_EEEiE4typeELi0EEEOSF_OSG_ @2928
    _ZNSt3__14pairINS_12basic_stringIcNS_11char_traitsIcEENS_9allocatorIcEEEES6_EC2B8ne200100IRA24_KcSB_TnNS_9enable_ifIXclsr10_CheckArgsE23__is_pair_constructibleIT_T0_EEEiE4typeELi0EEEOSD_OSE_ @2929
    _ZNSt3__14pairINS_12basic_stringIcNS_11char_traitsIcEENS_9allocatorIcEEEES6_EC2B8ne200100IRA28_KcRA26_S9_TnNS_9enable_ifIXclsr10_CheckArgsE23__is_pair_constructibleIT_T0_EEEiE4typeELi0EEEOSF_OSG_ @2930
    _ZNSt3__14pairINS_12basic_stringIcNS_11char_traitsIcEENS_9allocatorIcEEEES6_EC2B8ne200100IRA29_KcRA39_S9_TnNS_9enable_ifIXclsr10_CheckArgsE23__is_pair_constructibleIT_T0_EEEiE4typeELi0EEEOSF_OSG_ @2931
    _ZNSt3__14pairINS_12basic_stringIcNS_11char_traitsIcEENS_9allocatorIcEEEES6_EC2B8ne200100IRA35_KcRA39_S9_TnNS_9enable_ifIXclsr10_CheckArgsE23__is_pair_constructibleIT_T0_EEEiE4typeELi0EEEOSF_OSG_ @2932
    _ZNSt3__14pairINS_12basic_stringIcNS_11char_traitsIcEENS_9allocatorIcEEEES6_EC2B8ne200100IRA38_KcRA25_S9_TnNS_9enable_ifIXclsr10_CheckArgsE23__is_pair_constructibleIT_T0_EEEiE4typeELi0EEEOSF_OSG_ @2933
    _ZNSt3__14pairINS_12basic_stringIcNS_11char_traitsIcEENS_9allocatorIcEEEES6_EC2B8ne200100IRA3_KcRA5_S9_TnNS_9enable_ifIXclsr10_CheckArgsE23__is_pair_constructibleIT_T0_EEEiE4typeELi0EEEOSF_OSG_ @2934
    _ZNSt3__14pairINS_12basic_stringIcNS_11char_traitsIcEENS_9allocatorIcEEEES6_EC2B8ne200100IRA3_KcRA7_S9_TnNS_9enable_ifIXclsr10_CheckArgsE23__is_pair_constructibleIT_T0_EEEiE4typeELi0EEEOSF_OSG_ @2935
    _ZNSt3__14pairINS_12basic_stringIcNS_11char_traitsIcEENS_9allocatorIcEEEES6_EC2B8ne200100IRA4_KcRA12_S9_TnNS_9enable_ifIXclsr10_CheckArgsE23__is_pair_constructibleIT_T0_EEEiE4typeELi0EEEOSF_OSG_ @2936
    _ZNSt3__14pairINS_12basic_stringIcNS_11char_traitsIcEENS_9allocatorIcEEEES6_EC2B8ne200100IRA5_KcRA14_S9_TnNS_9enable_ifIXclsr10_CheckArgsE23__is_pair_constructibleIT_T0_EEEiE4typeELi0EEEOSF_OSG_ @2937
    _ZNSt3__14pairINS_12basic_stringIcNS_11char_traitsIcEENS_9allocatorIcEEEES6_EC2B8ne200100IRA5_KcRA2_S9_TnNS_9enable_ifIXclsr10_CheckArgsE23__is_pair_constructibleIT_T0_EEEiE4typeELi0EEEOSF_OSG_ @2938
    _ZNSt3__14pairINS_12basic_stringIcNS_11char_traitsIcEENS_9allocatorIcEEEES6_EC2B8ne200100IRA5_KcRA7_S9_TnNS_9enable_ifIXclsr10_CheckArgsE23__is_pair_constructibleIT_T0_EEEiE4typeELi0EEEOSF_OSG_ @2939
    _ZNSt3__14pairINS_12basic_stringIcNS_11char_traitsIcEENS_9allocatorIcEEEES6_EC2B8ne200100IRA5_KcRA9_S9_TnNS_9enable_ifIXclsr10_CheckArgsE23__is_pair_constructibleIT_T0_EEEiE4typeELi0EEEOSF_OSG_ @2940
    _ZNSt3__14pairINS_12basic_stringIcNS_11char_traitsIcEENS_9allocatorIcEEEES6_EC2B8ne200100IRA6_KcRA12_S9_TnNS_9enable_ifIXclsr10_CheckArgsE23__is_pair_constructibleIT_T0_EEEiE4typeELi0EEEOSF_OSG_ @2941
    _ZNSt3__14pairINS_12basic_stringIcNS_11char_traitsIcEENS_9allocatorIcEEEES6_EC2B8ne200100IRA7_KcRA8_S9_TnNS_9enable_ifIXclsr10_CheckArgsE23__is_pair_constructibleIT_T0_EEEiE4typeELi0EEEOSF_OSG_ @2942
    _ZNSt3__14pairINS_12basic_stringIcNS_11char_traitsIcEENS_9allocatorIcEEEES6_EC2B8ne200100IRA8_KcRA13_S9_TnNS_9enable_ifIXclsr10_CheckArgsE23__is_pair_constructibleIT_T0_EEEiE4typeELi0EEEOSF_OSG_ @2943
    _ZNSt3__14pairINS_12basic_stringIcNS_11char_traitsIcEENS_9allocatorIcEEEES6_EC2B8ne200100IRA8_KcRA18_S9_TnNS_9enable_ifIXclsr10_CheckArgsE23__is_pair_constructibleIT_T0_EEEiE4typeELi0EEEOSF_OSG_ @2944
    _ZNSt3__14pairINS_12basic_stringIcNS_11char_traitsIcEENS_9allocatorIcEEEES6_EC2B8ne200100IRA8_KcRA25_S9_TnNS_9enable_ifIXclsr10_CheckArgsE23__is_pair_constructibleIT_T0_EEEiE4typeELi0EEEOSF_OSG_ @2945
    _ZNSt3__14pairINS_12basic_stringIcNS_11char_traitsIcEENS_9allocatorIcEEEES6_EC2B8ne200100IRA8_KcRA29_S9_TnNS_9enable_ifIXclsr10_CheckArgsE23__is_pair_constructibleIT_T0_EEEiE4typeELi0EEEOSF_OSG_ @2946
    _ZNSt3__14pairINS_12basic_stringIcNS_11char_traitsIcEENS_9allocatorIcEEEES6_EC2B8ne200100IRA9_KcRA14_S9_TnNS_9enable_ifIXclsr10_CheckArgsE23__is_pair_constructibleIT_T0_EEEiE4typeELi0EEEOSF_OSG_ @2947
    _ZNSt3__14pairINS_12basic_stringIcNS_11char_traitsIcEENS_9allocatorIcEEEES6_EC2B8ne200100IRA9_KcSB_TnNS_9enable_ifIXclsr10_CheckArgsE23__is_pair_constructibleIT_T0_EEEiE4typeELi0EEEOSD_OSE_ @2948
    _ZNSt3__14pairINS_12basic_stringIcNS_11char_traitsIcEENS_9allocatorIcEEEES6_ED2Ev @2949
    _ZNSt3__14pairINS_6vectorIP11ggml_tensorNS_9allocatorIS3_EEEES6_EC2B8ne200100ILb1ETnNS_9enable_ifIXclsr13_CheckArgsDepIXT_EEE23__is_pair_constructibleIRKS6_SB_EEEiE4typeELi0EEESB_SB_ @2950
    _ZNSt3__14pairINS_6vectorIP11ggml_tensorNS_9allocatorIS3_EEEES6_ED2Ev @2951
    _ZNSt3__14pairINS_6vectorIiNS_9allocatorIiEEEENS1_IfNS2_IfEEEEEC2B8ne200100ERKS7_ @2952
    _ZNSt3__14pairINS_6vectorIiNS_9allocatorIiEEEENS1_IfNS2_IfEEEEEC2B8ne200100IRS4_RS6_TnNS_9enable_ifIXclsr10_CheckArgsE23__is_pair_constructibleIT_T0_EEEiE4typeELi0EEEOSC_OSD_ @2953
    _ZNSt3__14pairINS_6vectorIiNS_9allocatorIiEEEENS1_IfNS2_IfEEEEED2Ev @2954
    _ZNSt3__15dequeINS_7__stateIcEENS_9allocatorIS2_EEE19__add_back_capacityEv @2955
    _ZNSt3__15dequeINS_7__stateIcEENS_9allocatorIS2_EEE20__add_front_capacityEv @2956
    _ZNSt3__15dequeINS_7__stateIcEENS_9allocatorIS2_EEE5clearEv @2957
    _ZNSt3__15dequeINS_7__stateIcEENS_9allocatorIS2_EEED2B8ne200100Ev @2958
    _ZNSt3__15tupleIJNS_6vectorIP11ggml_tensorNS_9allocatorIS3_EEEES6_S6_EED2Ev @2959
    _ZNSt3__15tupleIJNS_6vectorIiNS_9allocatorIiEEEENS1_IfNS2_IfEEEEEED2Ev @2960
    _ZNSt3__15tupleIJNS_6vectorIiNS_9allocatorIiEEEENS1_IfNS2_IfEEEENS1_IbNS2_IbEEEEEED2Ev @2961
    _ZNSt3__15tupleIJNS_6vectorIiNS_9allocatorIiEEEENS1_IfNS2_IfEEEES6_EED2Ev @2962
    _ZNSt3__16__loopIcED0Ev @2963
    _ZNSt3__16__nodeIcED2Ev @2964
    _ZNSt3__16__treeI9ggml_typeNS_4lessIS1_EENS_9allocatorIS1_EEE12__find_equalIS1_EERPNS_16__tree_node_baseIPvEENS_21__tree_const_iteratorIS1_PNS_11__tree_nodeIS1_S9_EExEERPNS_15__tree_end_nodeISB_EESC_RKT_ @2965
    _ZNSt3__16__treeI9ggml_typeNS_4lessIS1_EENS_9allocatorIS1_EEE7destroyEPNS_11__tree_nodeIS1_PvEE @2966
    _ZNSt3__16__treeINS_12__value_typeI9ggml_typejEENS_19__map_value_compareIS2_S3_NS_4lessIS2_EELb1EEENS_9allocatorIS3_EEE7destroyEPNS_11__tree_nodeIS3_PvEE @2967
    _ZNSt3__16__treeINS_12__value_typeINS_12basic_stringIDiNS_11char_traitsIDiEENS_9allocatorIDiEEEEiEENS_19__map_value_compareIS7_S8_NS_4lessIS7_EELb1EEENS5_IS8_EEE12__find_equalIS7_EERPNS_16__tree_node_baseIPvEERPNS_15__tree_end_nodeISJ_E @2968
    _ZNSt3__16__treeINS_12__value_typeINS_12basic_stringIDiNS_11char_traitsIDiEENS_9allocatorIDiEEEEiEENS_19__map_value_compareIS7_S8_NS_4lessIS7_EELb1EEENS5_IS8_EEE25__emplace_unique_key_argsIS7_JRKNS_21piecewise_construct_tENS_5tupleIJRKS @2969
    _ZNSt3__16__treeINS_12__value_typeINS_12basic_stringIDiNS_11char_traitsIDiEENS_9allocatorIDiEEEEiEENS_19__map_value_compareIS7_S8_NS_4lessIS7_EELb1EEENS5_IS8_EEE4findIS7_EENS_15__tree_iteratorIS8_PNS_11__tree_nodeIS8_PvEExEERKT_ @2970
    _ZNSt3__16__treeINS_12__value_typeINS_12basic_stringIDiNS_11char_traitsIDiEENS_9allocatorIDiEEEEiEENS_19__map_value_compareIS7_S8_NS_4lessIS7_EELb1EEENS5_IS8_EEE7destroyEPNS_11__tree_nodeIS8_PvEE @2971
    _ZNSt3__16__treeINS_12__value_typeINS_12basic_stringIcNS_11char_traitsIcEENS_9allocatorIcEEEEN8nlohmann16json_abi_v3_11_210basic_jsonINS_3mapENS_6vectorES7_bxydS5_NS9_14adl_serializerENSC_IhNS5_IhEEEEEEEENS_19__map_value_compareIS7_SH_N @2972
    _ZNSt3__16__treeINS_12__value_typeINS_12basic_stringIcNS_11char_traitsIcEENS_9allocatorIcEEEEN8nlohmann16json_abi_v3_11_210basic_jsonINS_3mapENS_6vectorES7_bxydS5_NS9_14adl_serializerENSC_IhNS5_IhEEEEEEEENS_19__map_value_compareIS7_SH_N @2973
    _ZNSt3__16__treeINS_12__value_typeINS_12basic_stringIcNS_11char_traitsIcEENS_9allocatorIcEEEEN8nlohmann16json_abi_v3_11_210basic_jsonINS_3mapENS_6vectorES7_bxydS5_NS9_14adl_serializerENSC_IhNS5_IhEEEEEEEENS_19__map_value_compareIS7_SH_N @2974
    _ZNSt3__16__treeINS_12__value_typeINS_12basic_stringIcNS_11char_traitsIcEENS_9allocatorIcEEEEN8nlohmann16json_abi_v3_11_210basic_jsonINS_3mapENS_6vectorES7_bxydS5_NS9_14adl_serializerENSC_IhNS5_IhEEEEEEEENS_19__map_value_compareIS7_SH_N @2975
    _ZNSt3__16__treeINS_12__value_typeINS_12basic_stringIcNS_11char_traitsIcEENS_9allocatorIcEEEEN8nlohmann16json_abi_v3_11_210basic_jsonINS_3mapENS_6vectorES7_bxydS5_NS9_14adl_serializerENSC_IhNS5_IhEEEEEEEENS_19__map_value_compareIS7_SH_N @2976
    _ZNSt3__16__treeINS_12__value_typeINS_12basic_stringIcNS_11char_traitsIcEENS_9allocatorIcEEEENS_4pairIiiEEEENS_19__map_value_compareIS7_SA_NS_4lessIS7_EELb1EEENS5_ISA_EEE12__find_equalIS7_EERPNS_16__tree_node_baseIPvEERPNS_15__tree_end_ @2977
    _ZNSt3__16__treeINS_12__value_typeINS_12basic_stringIcNS_11char_traitsIcEENS_9allocatorIcEEEENS_4pairIiiEEEENS_19__map_value_compareIS7_SA_NS_4lessIS7_EELb1EEENS5_ISA_EEE25__emplace_unique_key_argsIS7_JRKNS_21piecewise_construct_tENS_5t @2978
    _ZNSt3__16__treeINS_12__value_typeINS_12basic_stringIcNS_11char_traitsIcEENS_9allocatorIcEEEENS_4pairIiiEEEENS_19__map_value_compareIS7_SA_NS_4lessIS7_EELb1EEENS5_ISA_EEE4findIS7_EENS_15__tree_iteratorISA_PNS_11__tree_nodeISA_PvEExEERKT @2979
    _ZNSt3__16__treeINS_12__value_typeINS_12basic_stringIcNS_11char_traitsIcEENS_9allocatorIcEEEENS_4pairIiiEEEENS_19__map_value_compareIS7_SA_NS_4lessIS7_EELb1EEENS5_ISA_EEE7destroyEPNS_11__tree_nodeISA_PvEE @2980
    _ZNSt3__16__treeINS_12__value_typeINS_12basic_stringIcNS_11char_traitsIcEENS_9allocatorIcEEEEP11ggml_tensorEENS_19__map_value_compareIS7_SA_NS_4lessIS7_EELb1EEENS5_ISA_EEE12__find_equalIS7_EERPNS_16__tree_node_baseIPvEENS_21__tree_const @2981
    _ZNSt3__16__treeINS_12__value_typeINS_12basic_stringIcNS_11char_traitsIcEENS_9allocatorIcEEEEP11ggml_tensorEENS_19__map_value_compareIS7_SA_NS_4lessIS7_EELb1EEENS5_ISA_EEE12__find_equalIS7_EERPNS_16__tree_node_baseIPvEERPNS_15__tree_end @2982
    _ZNSt3__16__treeINS_12__value_typeINS_12basic_stringIcNS_11char_traitsIcEENS_9allocatorIcEEEEP11ggml_tensorEENS_19__map_value_compareIS7_SA_NS_4lessIS7_EELb1EEENS5_ISA_EEE25__emplace_unique_key_argsIS7_JRKNS_21piecewise_construct_tENS_5 @2983
    _ZNSt3__16__treeINS_12__value_typeINS_12basic_stringIcNS_11char_traitsIcEENS_9allocatorIcEEEEP11ggml_tensorEENS_19__map_value_compareIS7_SA_NS_4lessIS7_EELb1EEENS5_ISA_EEE30__emplace_hint_unique_key_argsIS7_JRKNS_4pairIKS7_S9_EEEEENSI_I @2984
    _ZNSt3__16__treeINS_12__value_typeINS_12basic_stringIcNS_11char_traitsIcEENS_9allocatorIcEEEEP11ggml_tensorEENS_19__map_value_compareIS7_SA_NS_4lessIS7_EELb1EEENS5_ISA_EEE4findIS7_EENS_15__tree_iteratorISA_PNS_11__tree_nodeISA_PvEExEERK @2985
    _ZNSt3__16__treeINS_12__value_typeINS_12basic_stringIcNS_11char_traitsIcEENS_9allocatorIcEEEEP11ggml_tensorEENS_19__map_value_compareIS7_SA_NS_4lessIS7_EELb1EEENS5_ISA_EEE7destroyEPNS_11__tree_nodeISA_PvEE @2986
    _ZNSt3__16__treeINS_12__value_typeINS_12basic_stringIcNS_11char_traitsIcEENS_9allocatorIcEEEES7_EENS_19__map_value_compareIS7_S8_NS_4lessIS7_EELb1EEENS5_IS8_EEE12__find_equalIS7_EERPNS_16__tree_node_baseIPvEENS_21__tree_const_iteratorIS @2987
    _ZNSt3__16__treeINS_12__value_typeINS_12basic_stringIcNS_11char_traitsIcEENS_9allocatorIcEEEES7_EENS_19__map_value_compareIS7_S8_NS_4lessIS7_EELb1EEENS5_IS8_EEE12__find_equalIS7_EERPNS_16__tree_node_baseIPvEERPNS_15__tree_end_nodeISJ_EE @2988
    _ZNSt3__16__treeINS_12__value_typeINS_12basic_stringIcNS_11char_traitsIcEENS_9allocatorIcEEEES7_EENS_19__map_value_compareIS7_S8_NS_4lessIS7_EELb1EEENS5_IS8_EEE12__find_equalIS8_EERPNS_16__tree_node_baseIPvEERPNS_15__tree_end_nodeISJ_EE @2989
    _ZNSt3__16__treeINS_12__value_typeINS_12basic_stringIcNS_11char_traitsIcEENS_9allocatorIcEEEES7_EENS_19__map_value_compareIS7_S8_NS_4lessIS7_EELb1EEENS5_IS8_EEE16__construct_nodeIJRKNS_4pairIKS7_S7_EEEEENS_10unique_ptrINS_11__tree_nodeI @2990
    _ZNSt3__16__treeINS_12__value_typeINS_12basic_stringIcNS_11char_traitsIcEENS_9allocatorIcEEEES7_EENS_19__map_value_compareIS7_S8_NS_4lessIS7_EELb1EEENS5_IS8_EEE21__emplace_unique_implIJPKcSH_EEENS_4pairINS_15__tree_iteratorIS8_PNS_11__t @2991
    _ZNSt3__16__treeINS_12__value_typeINS_12basic_stringIcNS_11char_traitsIcEENS_9allocatorIcEEEES7_EENS_19__map_value_compareIS7_S8_NS_4lessIS7_EELb1EEENS5_IS8_EEE25__emplace_unique_key_argsIS7_JRKNS_21piecewise_construct_tENS_5tupleIJRKS7 @2992
    _ZNSt3__16__treeINS_12__value_typeINS_12basic_stringIcNS_11char_traitsIcEENS_9allocatorIcEEEES7_EENS_19__map_value_compareIS7_S8_NS_4lessIS7_EELb1EEENS5_IS8_EEE4findIS7_EENS_15__tree_iteratorIS8_PNS_11__tree_nodeIS8_PvEExEERKT_ @2993
    _ZNSt3__16__treeINS_12__value_typeINS_12basic_stringIcNS_11char_traitsIcEENS_9allocatorIcEEEES7_EENS_19__map_value_compareIS7_S8_NS_4lessIS7_EELb1EEENS5_IS8_EEE7destroyEPNS_11__tree_nodeIS8_PvEE @2994
    _ZNSt3__16__treeINS_12__value_typeINS_4pairINS_12basic_stringIDiNS_11char_traitsIDiEENS_9allocatorIDiEEEES8_EEiEENS_19__map_value_compareIS9_SA_NS_4lessIS9_EELb1EEENS6_ISA_EEE16__construct_nodeIJRKNS_21piecewise_construct_tENS_5tupleIJR @2995
    _ZNSt3__16__treeINS_12__value_typeINS_4pairINS_12basic_stringIDiNS_11char_traitsIDiEENS_9allocatorIDiEEEES8_EEiEENS_19__map_value_compareIS9_SA_NS_4lessIS9_EELb1EEENS6_ISA_EEE25__emplace_unique_key_argsIS9_JRKNS_21piecewise_construct_tE @2996
    _ZNSt3__16__treeINS_12__value_typeINS_4pairINS_12basic_stringIDiNS_11char_traitsIDiEENS_9allocatorIDiEEEES8_EEiEENS_19__map_value_compareIS9_SA_NS_4lessIS9_EELb1EEENS6_ISA_EEE7destroyEPNS_11__tree_nodeISA_PvEE @2997
    _ZNSt3__16__treeINS_12__value_typeIP11ggml_tensorPKvEENS_19__map_value_compareIS3_S6_NS_4lessIS3_EELb1EEENS_9allocatorIS6_EEE7destroyEPNS_11__tree_nodeIS6_PvEE @2998
    _ZNSt3__16__treeINS_12__value_typeIP11ggml_tensorS3_EENS_19__map_value_compareIS3_S4_NS_4lessIS3_EELb1EEENS_9allocatorIS4_EEE7destroyEPNS_11__tree_nodeIS4_PvEE @2999
    _ZNSt3__16__treeINS_12__value_typeIiNS_12basic_stringIDiNS_11char_traitsIDiEENS_9allocatorIDiEEEEEENS_19__map_value_compareIiS8_NS_4lessIiEELb1EEENS5_IS8_EEE12__find_equalIiEERPNS_16__tree_node_baseIPvEENS_21__tree_const_iteratorIS8_PNS @3000
    _ZNSt3__16__treeINS_12__value_typeIiNS_12basic_stringIDiNS_11char_traitsIDiEENS_9allocatorIDiEEEEEENS_19__map_value_compareIiS8_NS_4lessIiEELb1EEENS5_IS8_EEE30__emplace_hint_unique_key_argsIiJRNS_4pairIiS7_EEEEENSG_INS_15__tree_iterator @3001
    _ZNSt3__16__treeINS_12__value_typeIiNS_12basic_stringIDiNS_11char_traitsIDiEENS_9allocatorIDiEEEEEENS_19__map_value_compareIiS8_NS_4lessIiEELb1EEENS5_IS8_EEE7destroyEPNS_11__tree_nodeIS8_PvEE @3002
    _ZNSt3__16__treeINS_12__value_typeIiiEENS_19__map_value_compareIiS2_NS_4lessIiEELb1EEENS_9allocatorIS2_EEE12__find_equalIiEERPNS_16__tree_node_baseIPvEENS_21__tree_const_iteratorIS2_PNS_11__tree_nodeIS2_SC_EExEERPNS_15__tree_end_nodeISE @3003
    _ZNSt3__16__treeINS_12__value_typeIiiEENS_19__map_value_compareIiS2_NS_4lessIiEELb1EEENS_9allocatorIS2_EEE7destroyEPNS_11__tree_nodeIS2_PvEE @3004
    _ZNSt3__16__treeINS_12basic_stringIcNS_11char_traitsIcEENS_9allocatorIcEEEENS_4lessIS6_EENS4_IS6_EEE12__find_equalIS6_EERPNS_16__tree_node_baseIPvEENS_21__tree_const_iteratorIS6_PNS_11__tree_nodeIS6_SD_EExEERPNS_15__tree_end_nodeISF_EES @3005
    _ZNSt3__16__treeINS_12basic_stringIcNS_11char_traitsIcEENS_9allocatorIcEEEENS_4lessIS6_EENS4_IS6_EEE12__find_equalIS6_EERPNS_16__tree_node_baseIPvEERPNS_15__tree_end_nodeISF_EERKT_ @3006
    _ZNSt3__16__treeINS_12basic_stringIcNS_11char_traitsIcEENS_9allocatorIcEEEENS_4lessIS6_EENS4_IS6_EEE25__emplace_unique_key_argsIS6_JRKS6_EEENS_4pairINS_15__tree_iteratorIS6_PNS_11__tree_nodeIS6_PvEExEEbEERKT_DpOT0_ @3007
    _ZNSt3__16__treeINS_12basic_stringIcNS_11char_traitsIcEENS_9allocatorIcEEEENS_4lessIS6_EENS4_IS6_EEE30__emplace_hint_unique_key_argsIS6_JRKS6_EEENS_4pairINS_15__tree_iteratorIS6_PNS_11__tree_nodeIS6_PvEExEEbEENS_21__tree_const_iteratorI @3008
    _ZNSt3__16__treeINS_12basic_stringIcNS_11char_traitsIcEENS_9allocatorIcEEEENS_4lessIS6_EENS4_IS6_EEE4findIS6_EENS_15__tree_iteratorIS6_PNS_11__tree_nodeIS6_PvEExEERKT_ @3009
    _ZNSt3__16__treeINS_12basic_stringIcNS_11char_traitsIcEENS_9allocatorIcEEEENS_4lessIS6_EENS4_IS6_EEE7destroyEPNS_11__tree_nodeIS6_PvEE @3010
    _ZNSt3__16__treeINS_4pairINS_12basic_stringIDiNS_11char_traitsIDiEENS_9allocatorIDiEEEES7_EENS_4lessIS8_EENS5_IS8_EEE16__construct_nodeIJRKS8_EEENS_10unique_ptrINS_11__tree_nodeIS8_PvEENS_22__tree_node_destructorINS5_ISJ_EEEEEEDpOT_ @3011
    _ZNSt3__16__treeINS_4pairINS_12basic_stringIDiNS_11char_traitsIDiEENS_9allocatorIDiEEEES7_EENS_4lessIS8_EENS5_IS8_EEE25__emplace_unique_key_argsIS8_JRKS8_EEENS1_INS_15__tree_iteratorIS8_PNS_11__tree_nodeIS8_PvEExEEbEERKT_DpOT0_ @3012
    _ZNSt3__16__treeINS_4pairINS_12basic_stringIDiNS_11char_traitsIDiEENS_9allocatorIDiEEEES7_EENS_4lessIS8_EENS5_IS8_EEE7destroyEPNS_11__tree_nodeIS8_PvEE @3013
    _ZNSt3__16__treeIiNS_4lessIiEENS_9allocatorIiEEE12__find_equalIiEERPNS_16__tree_node_baseIPvEENS_21__tree_const_iteratorIiPNS_11__tree_nodeIiS8_EExEERPNS_15__tree_end_nodeISA_EESB_RKT_ @3014
    _ZNSt3__16__treeIiNS_4lessIiEENS_9allocatorIiEEE15__assign_uniqueIPKiEEvT_S9_ @3015
    _ZNSt3__16__treeIiNS_4lessIiEENS_9allocatorIiEEE7destroyEPNS_11__tree_nodeIiPvEE @3016
    _ZNSt3__16vectorI13TensorStorageNS_9allocatorIS1_EEE20__throw_length_errorB8ne200100Ev @3017
    _ZNSt3__16vectorI13TensorStorageNS_9allocatorIS1_EEE24__emplace_back_slow_pathIJRKS1_EEEPS1_DpOT_ @3018
    _ZNSt3__16vectorI13TensorStorageNS_9allocatorIS1_EEED2B8ne200100Ev @3019
    _ZNSt3__16vectorI14GGUFTensorInfoNS_9allocatorIS1_EEE20__throw_length_errorB8ne200100Ev @3020
    _ZNSt3__16vectorI14GGUFTensorInfoNS_9allocatorIS1_EEE24__emplace_back_slow_pathIJS1_EEEPS1_DpOT_ @3021
    _ZNSt3__16vectorI14GGUFTensorInfoNS_9allocatorIS1_EEE26__swap_out_circular_bufferERNS_14__split_bufferIS1_RS3_EE @3022
    _ZNSt3__16vectorI14GGUFTensorInfoNS_9allocatorIS1_EEE5clearB8ne200100Ev @3023
    _ZNSt3__16vectorI14sd_image_f32_tNS_9allocatorIS1_EEE20__throw_length_errorB8ne200100Ev @3024
    _ZNSt3__16vectorIDiNS_9allocatorIDiEEE20__throw_length_errorB8ne200100Ev @3025
    _ZNSt3__16vectorIDiNS_9allocatorIDiEEE9push_backB8ne200100ERKDi @3026
    _ZNSt3__16vectorIN4Flux13ModulationOutENS_9allocatorIS2_EEE20__throw_length_errorB8ne200100Ev @3027
    _ZNSt3__16vectorIN8nlohmann16json_abi_v3_11_210basic_jsonINS_3mapES0_NS_12basic_stringIcNS_11char_traitsIcEENS_9allocatorIcEEEEbxydS8_NS2_14adl_serializerENS0_IhNS8_IhEEEEEENS8_ISE_EEE16__destroy_vectorclB8ne200100Ev @3028
    _ZNSt3__16vectorIN8nlohmann16json_abi_v3_11_210basic_jsonINS_3mapES0_NS_12basic_stringIcNS_11char_traitsIcEENS_9allocatorIcEEEEbxydS8_NS2_14adl_serializerENS0_IhNS8_IhEEEEEENS8_ISE_EEE16__init_with_sizeB8ne200100IPSE_SI_EEvT_T0_y @3029
    _ZNSt3__16vectorIN8nlohmann16json_abi_v3_11_210basic_jsonINS_3mapES0_NS_12basic_stringIcNS_11char_traitsIcEENS_9allocatorIcEEEEbxydS8_NS2_14adl_serializerENS0_IhNS8_IhEEEEEENS8_ISE_EEE20__throw_length_errorB8ne200100Ev @3030
    _ZNSt3__16vectorIN8nlohmann16json_abi_v3_11_210basic_jsonINS_3mapES0_NS_12basic_stringIcNS_11char_traitsIcEENS_9allocatorIcEEEEbxydS8_NS2_14adl_serializerENS0_IhNS8_IhEEEEEENS8_ISE_EEE24__emplace_back_slow_pathIJDnEEEPSE_DpOT_ @3031
    _ZNSt3__16vectorIN8nlohmann16json_abi_v3_11_210basic_jsonINS_3mapES0_NS_12basic_stringIcNS_11char_traitsIcEENS_9allocatorIcEEEEbxydS8_NS2_14adl_serializerENS0_IhNS8_IhEEEEEENS8_ISE_EEE24__emplace_back_slow_pathIJNS2_6detail7value_tEEEEP @3032
    _ZNSt3__16vectorIN8nlohmann16json_abi_v3_11_210basic_jsonINS_3mapES0_NS_12basic_stringIcNS_11char_traitsIcEENS_9allocatorIcEEEEbxydS8_NS2_14adl_serializerENS0_IhNS8_IhEEEEEENS8_ISE_EEE24__emplace_back_slow_pathIJRSA_EEEPSE_DpOT_ @3033
    _ZNSt3__16vectorIN8nlohmann16json_abi_v3_11_210basic_jsonINS_3mapES0_NS_12basic_stringIcNS_11char_traitsIcEENS_9allocatorIcEEEEbxydS8_NS2_14adl_serializerENS0_IhNS8_IhEEEEEENS8_ISE_EEE24__emplace_back_slow_pathIJRbEEEPSE_DpOT_ @3034
    _ZNSt3__16vectorIN8nlohmann16json_abi_v3_11_210basic_jsonINS_3mapES0_NS_12basic_stringIcNS_11char_traitsIcEENS_9allocatorIcEEEEbxydS8_NS2_14adl_serializerENS0_IhNS8_IhEEEEEENS8_ISE_EEE24__emplace_back_slow_pathIJRdEEEPSE_DpOT_ @3035
    _ZNSt3__16vectorIN8nlohmann16json_abi_v3_11_210basic_jsonINS_3mapES0_NS_12basic_stringIcNS_11char_traitsIcEENS_9allocatorIcEEEEbxydS8_NS2_14adl_serializerENS0_IhNS8_IhEEEEEENS8_ISE_EEE24__emplace_back_slow_pathIJRxEEEPSE_DpOT_ @3036
    _ZNSt3__16vectorIN8nlohmann16json_abi_v3_11_210basic_jsonINS_3mapES0_NS_12basic_stringIcNS_11char_traitsIcEENS_9allocatorIcEEEEbxydS8_NS2_14adl_serializerENS0_IhNS8_IhEEEEEENS8_ISE_EEE24__emplace_back_slow_pathIJRyEEEPSE_DpOT_ @3037
    _ZNSt3__16vectorIN8nlohmann16json_abi_v3_11_210basic_jsonINS_3mapES0_NS_12basic_stringIcNS_11char_traitsIcEENS_9allocatorIcEEEEbxydS8_NS2_14adl_serializerENS0_IhNS8_IhEEEEEENS8_ISE_EEE24__emplace_back_slow_pathIJSE_EEEPSE_DpOT_ @3038
    _ZNSt3__16vectorIN8nlohmann16json_abi_v3_11_210basic_jsonINS_3mapES0_NS_12basic_stringIcNS_11char_traitsIcEENS_9allocatorIcEEEEbxydS8_NS2_14adl_serializerENS0_IhNS8_IhEEEEEENS8_ISE_EEE6resizeEy @3039
    _ZNSt3__16vectorIN8nlohmann16json_abi_v3_11_210basic_jsonINS_3mapES0_NS_12basic_stringIcNS_11char_traitsIcEENS_9allocatorIcEEEEbxydS8_NS2_14adl_serializerENS0_IhNS8_IhEEEEEENS8_ISE_EEE7reserveEy @3040
    _ZNSt3__16vectorIN8nlohmann16json_abi_v3_11_210basic_jsonINS_3mapES0_NS_12basic_stringIcNS_11char_traitsIcEENS_9allocatorIcEEEEbxydS8_NS2_14adl_serializerENS0_IhNS8_IhEEEEEENS8_ISE_EEE8__appendEy @3041
    _ZNSt3__16vectorIN8nlohmann16json_abi_v3_11_210basic_jsonINS_3mapES0_NS_12basic_stringIcNS_11char_traitsIcEENS_9allocatorIcEEEEbxydS8_NS2_14adl_serializerENS0_IhNS8_IhEEEEEENS8_ISE_EEE8pop_backB8ne200100Ev @3042
    _ZNSt3__16vectorIN8nlohmann16json_abi_v3_11_210basic_jsonINS_3mapES0_NS_12basic_stringIcNS_11char_traitsIcEENS_9allocatorIcEEEEbxydS8_NS2_14adl_serializerENS0_IhNS8_IhEEEEEENS8_ISE_EEED2B8ne200100Ev @3043
    _ZNSt3__16vectorINS0_IfNS_9allocatorIfEEEENS1_IS3_EEE18__assign_with_sizeB8ne200100IPS3_S7_EEvT_T0_x @3044
    _ZNSt3__16vectorINS0_IfNS_9allocatorIfEEEENS1_IS3_EEE20__throw_length_errorB8ne200100Ev @3045
    _ZNSt3__16vectorINS0_IfNS_9allocatorIfEEEENS1_IS3_EEE8__appendEy @3046
    _ZNSt3__16vectorINS0_IfNS_9allocatorIfEEEENS1_IS3_EEEC2B8ne200100EyRKS3_ @3047
    _ZNSt3__16vectorINS0_IfNS_9allocatorIfEEEENS1_IS3_EEED2B8ne200100Ev @3048
    _ZNSt3__16vectorINS0_IiNS_9allocatorIiEEEENS1_IS3_EEE20__throw_length_errorB8ne200100Ev @3049
    _ZNSt3__16vectorINS0_IiNS_9allocatorIiEEEENS1_IS3_EEE6assignEyRKS3_ @3050
    _ZNSt3__16vectorINS0_IiNS_9allocatorIiEEEENS1_IS3_EEEC2B8ne200100EyRKS3_ @3051
    _ZNSt3__16vectorINS0_IiNS_9allocatorIiEEEENS1_IS3_EEED2B8ne200100Ev @3052
    _ZNSt3__16vectorINS0_IjNS_9allocatorIjEEEENS1_IS3_EEE20__throw_length_errorB8ne200100Ev @3053
    _ZNSt3__16vectorINS0_IjNS_9allocatorIjEEEENS1_IS3_EEEC2B8ne200100EyRKS3_ @3054
    _ZNSt3__16vectorINS0_IjNS_9allocatorIjEEEENS1_IS3_EEED2B8ne200100Ev @3055
    _ZNSt3__16vectorINS_10shared_ptrI9LoraModelEENS_9allocatorIS3_EEE18__assign_with_sizeB8ne200100IPS3_S8_EEvT_T0_x @3056
    _ZNSt3__16vectorINS_10shared_ptrI9LoraModelEENS_9allocatorIS3_EEE20__throw_length_errorB8ne200100Ev @3057
    _ZNSt3__16vectorINS_10shared_ptrI9LoraModelEENS_9allocatorIS3_EEED2B8ne200100Ev @3058
    _ZNSt3__16vectorINS_12basic_stringIDiNS_11char_traitsIDiEENS_9allocatorIDiEEEENS4_IS6_EEE16__init_with_sizeB8ne200100INS_11__wrap_iterIPS6_EESC_EEvT_T0_y @3059
    _ZNSt3__16vectorINS_12basic_stringIDiNS_11char_traitsIDiEENS_9allocatorIDiEEEENS4_IS6_EEE18__assign_with_sizeB8ne200100IPS6_SA_EEvT_T0_x @3060
    _ZNSt3__16vectorINS_12basic_stringIDiNS_11char_traitsIDiEENS_9allocatorIDiEEEENS4_IS6_EEE18__insert_with_sizeB8ne200100INS_11__wrap_iterIPS6_EESC_EESC_NSA_IPKS6_EET_T0_x @3061
    _ZNSt3__16vectorINS_12basic_stringIDiNS_11char_traitsIDiEENS_9allocatorIDiEEEENS4_IS6_EEE20__throw_length_errorB8ne200100Ev @3062
    _ZNSt3__16vectorINS_12basic_stringIDiNS_11char_traitsIDiEENS_9allocatorIDiEEEENS4_IS6_EEE24__emplace_back_slow_pathIJRKS6_EEEPS6_DpOT_ @3063
    _ZNSt3__16vectorINS_12basic_stringIDiNS_11char_traitsIDiEENS_9allocatorIDiEEEENS4_IS6_EEE24__emplace_back_slow_pathIJiRKDiEEEPS6_DpOT_ @3064
    _ZNSt3__16vectorINS_12basic_stringIDiNS_11char_traitsIDiEENS_9allocatorIDiEEEENS4_IS6_EEE9push_backB8ne200100EOS6_ @3065
    _ZNSt3__16vectorINS_12basic_stringIDiNS_11char_traitsIDiEENS_9allocatorIDiEEEENS4_IS6_EEED2B8ne200100Ev @3066
    _ZNSt3__16vectorINS_12basic_stringIcNS_11char_traitsIcEENS_9allocatorIcEEEENS4_IS6_EEE16__init_with_sizeB8ne200100IPKS6_SB_EEvT_T0_y @3067
    _ZNSt3__16vectorINS_12basic_stringIcNS_11char_traitsIcEENS_9allocatorIcEEEENS4_IS6_EEE18__assign_with_sizeB8ne200100IPKS6_SB_EEvT_T0_x @3068
    _ZNSt3__16vectorINS_12basic_stringIcNS_11char_traitsIcEENS_9allocatorIcEEEENS4_IS6_EEE20__throw_length_errorB8ne200100Ev @3069
    _ZNSt3__16vectorINS_12basic_stringIcNS_11char_traitsIcEENS_9allocatorIcEEEENS4_IS6_EEE24__emplace_back_slow_pathIJRKS6_EEEPS6_DpOT_ @3070
    _ZNSt3__16vectorINS_12basic_stringIcNS_11char_traitsIcEENS_9allocatorIcEEEENS4_IS6_EEE9push_backB8ne200100EOS6_ @3071
    _ZNSt3__16vectorINS_12basic_stringIcNS_11char_traitsIcEENS_9allocatorIcEEEENS4_IS6_EEED2B8ne200100Ev @3072
    _ZNSt3__16vectorINS_4pairINS0_IiNS_9allocatorIiEEEENS0_IfNS2_IfEEEEEENS2_IS7_EEE16__init_with_sizeB8ne200100IPKS7_SC_EEvT_T0_y @3073
    _ZNSt3__16vectorINS_4pairINS0_IiNS_9allocatorIiEEEENS0_IfNS2_IfEEEEEENS2_IS7_EEE16__init_with_sizeB8ne200100IPS7_SB_EEvT_T0_y @3074
    _ZNSt3__16vectorINS_4pairINS0_IiNS_9allocatorIiEEEENS0_IfNS2_IfEEEEEENS2_IS7_EEE20__throw_length_errorB8ne200100Ev @3075
    _ZNSt3__16vectorINS_4pairINS0_IiNS_9allocatorIiEEEENS0_IfNS2_IfEEEEEENS2_IS7_EEED2B8ne200100Ev @3076
    _ZNSt3__16vectorINS_4pairINS_12basic_stringIDiNS_11char_traitsIDiEENS_9allocatorIDiEEEES7_EENS5_IS8_EEE20__throw_length_errorB8ne200100Ev @3077
    _ZNSt3__16vectorINS_4pairINS_12basic_stringIDiNS_11char_traitsIDiEENS_9allocatorIDiEEEES7_EENS5_IS8_EEED2B8ne200100Ev @3078
    _ZNSt3__16vectorINS_4pairINS_12basic_stringIcNS_11char_traitsIcEENS_9allocatorIcEEEE9ggml_typeEENS5_IS9_EEE20__throw_length_errorB8ne200100Ev @3079
    _ZNSt3__16vectorINS_4pairINS_12basic_stringIcNS_11char_traitsIcEENS_9allocatorIcEEEE9ggml_typeEENS5_IS9_EEE24__emplace_back_slow_pathIJRS7_RS8_EEEPS9_DpOT_ @3080
    _ZNSt3__16vectorINS_4pairINS_12basic_stringIcNS_11char_traitsIcEENS_9allocatorIcEEEE9ggml_typeEENS5_IS9_EEED2B8ne200100Ev @3081
    _ZNSt3__16vectorINS_4pairINS_12basic_stringIcNS_11char_traitsIcEENS_9allocatorIcEEEES7_EENS5_IS8_EEE20__throw_length_errorB8ne200100Ev @3082
    _ZNSt3__16vectorINS_4pairINS_12basic_stringIcNS_11char_traitsIcEENS_9allocatorIcEEEES7_EENS5_IS8_EEE24__emplace_back_slow_pathIJRA16_KcRA24_SC_EEEPS8_DpOT_ @3083
    _ZNSt3__16vectorINS_4pairINS_12basic_stringIcNS_11char_traitsIcEENS_9allocatorIcEEEES7_EENS5_IS8_EEE24__emplace_back_slow_pathIJRA24_KcSE_EEEPS8_DpOT_ @3084
    _ZNSt3__16vectorINS_4pairINS_12basic_stringIcNS_11char_traitsIcEENS_9allocatorIcEEEES7_EENS5_IS8_EEE24__emplace_back_slow_pathIJRS7_SC_EEEPS8_DpOT_ @3085
    _ZNSt3__16vectorINS_4pairINS_12basic_stringIcNS_11char_traitsIcEENS_9allocatorIcEEEES7_EENS5_IS8_EEE9push_backB8ne200100EOS8_ @3086
    _ZNSt3__16vectorINS_4pairINS_12basic_stringIcNS_11char_traitsIcEENS_9allocatorIcEEEES7_EENS5_IS8_EEEC2B8ne200100ESt16initializer_listIS8_E @3087
    _ZNSt3__16vectorINS_4pairINS_12basic_stringIcNS_11char_traitsIcEENS_9allocatorIcEEEES7_EENS5_IS8_EEED2B8ne200100Ev @3088
    _ZNSt3__16vectorINS_4pairINS_12basic_stringIcNS_11char_traitsIcEENS_9allocatorIcEEEEfEENS5_IS8_EEE18__insert_with_sizeB8ne200100INS_11__wrap_iterIPS8_EESE_EESE_NSC_IPKS8_EET_T0_x @3089
    _ZNSt3__16vectorINS_4pairINS_12basic_stringIcNS_11char_traitsIcEENS_9allocatorIcEEEEfEENS5_IS8_EEE20__throw_length_errorB8ne200100Ev @3090
    _ZNSt3__16vectorINS_4pairINS_12basic_stringIcNS_11char_traitsIcEENS_9allocatorIcEEEEfEENS5_IS8_EEE24__emplace_back_slow_pathIJRS7_RfEEEPS8_DpOT_ @3091
    _ZNSt3__16vectorINS_4pairINS_12basic_stringIcNS_11char_traitsIcEENS_9allocatorIcEEEEfEENS5_IS8_EEE9push_backB8ne200100EOS8_ @3092
    _ZNSt3__16vectorINS_4pairINS_12basic_stringIcNS_11char_traitsIcEENS_9allocatorIcEEEEfEENS5_IS8_EEED2B8ne200100Ev @3093
    _ZNSt3__16vectorINS_4pairINS_12basic_stringIcNS_11char_traitsIcEENS_9allocatorIcEEEEiEENS5_IS8_EEE20__throw_length_errorB8ne200100Ev @3094
    _ZNSt3__16vectorINS_4pairINS_12basic_stringIcNS_11char_traitsIcEENS_9allocatorIcEEEEiEENS5_IS8_EEE24__emplace_back_slow_pathIJRKS7_RKiEEEPS8_DpOT_ @3095
    _ZNSt3__16vectorINS_4pairINS_12basic_stringIcNS_11char_traitsIcEENS_9allocatorIcEEEEiEENS5_IS8_EEE24__emplace_back_slow_pathIJRKS7_RiEEEPS8_DpOT_ @3096
    _ZNSt3__16vectorINS_4pairINS_12basic_stringIcNS_11char_traitsIcEENS_9allocatorIcEEEEiEENS5_IS8_EEED2B8ne200100Ev @3097
    _ZNSt3__16vectorINS_4pairIccEENS_9allocatorIS2_EEE20__throw_length_errorB8ne200100Ev @3098
    _ZNSt3__16vectorINS_4pairIccEENS_9allocatorIS2_EEE9push_backB8ne200100EOS2_ @3099
    _ZNSt3__16vectorINS_4pairIiNS_12basic_stringIDiNS_11char_traitsIDiEENS_9allocatorIDiEEEEEENS5_IS8_EEE20__throw_length_errorB8ne200100Ev @3100
    _ZNSt3__16vectorINS_4pairIiNS_12basic_stringIDiNS_11char_traitsIDiEENS_9allocatorIDiEEEEEENS5_IS8_EEE9push_backB8ne200100EOS8_ @3101
    _ZNSt3__16vectorINS_4pairIiNS_12basic_stringIDiNS_11char_traitsIDiEENS_9allocatorIDiEEEEEENS5_IS8_EEED2B8ne200100Ev @3102
    _ZNSt3__16vectorINS_4pairIiP11ggml_tensorEENS_9allocatorIS4_EEE20__throw_length_errorB8ne200100Ev @3103
    _ZNSt3__16vectorINS_4pairIyPKcEENS_9allocatorIS4_EEE18__assign_with_sizeB8ne200100IPS4_S9_EEvT_T0_x @3104
    _ZNSt3__16vectorINS_4pairIyPKcEENS_9allocatorIS4_EEE20__throw_length_errorB8ne200100Ev @3105
    _ZNSt3__16vectorINS_4pairIyPKcEENS_9allocatorIS4_EEE8__appendEy @3106
    _ZNSt3__16vectorINS_6threadENS_9allocatorIS1_EEE20__throw_length_errorB8ne200100Ev @3107
    _ZNSt3__16vectorINS_6threadENS_9allocatorIS1_EEED2B8ne200100Ev @3108
    _ZNSt3__16vectorINS_7__stateIcEENS_9allocatorIS2_EEE20__throw_length_errorB8ne200100Ev @3109
    _ZNSt3__16vectorINS_7__stateIcEENS_9allocatorIS2_EEE24__emplace_back_slow_pathIJS2_EEEPS2_DpOT_ @3110
    _ZNSt3__16vectorINS_7__stateIcEENS_9allocatorIS2_EEE26__swap_out_circular_bufferERNS_14__split_bufferIS2_RS4_EE @3111
    _ZNSt3__16vectorINS_7__stateIcEENS_9allocatorIS2_EEED2B8ne200100Ev @3112
    _ZNSt3__16vectorINS_9sub_matchINS_11__wrap_iterIPKcEEEENS_9allocatorIS6_EEE20__throw_length_errorB8ne200100Ev @3113
    _ZNSt3__16vectorINS_9sub_matchINS_11__wrap_iterIPKcEEEENS_9allocatorIS6_EEE8__appendEy @3114
    _ZNSt3__16vectorINS_9sub_matchIPKcEENS_9allocatorIS4_EEE18__assign_with_sizeB8ne200100IPS4_S9_EEvT_T0_x @3115
    _ZNSt3__16vectorINS_9sub_matchIPKcEENS_9allocatorIS4_EEE20__throw_length_errorB8ne200100Ev @3116
    _ZNSt3__16vectorINS_9sub_matchIPKcEENS_9allocatorIS4_EEE6assignEyRKS4_ @3117
    _ZNSt3__16vectorINS_9sub_matchIPKcEENS_9allocatorIS4_EEE8__appendEyRKS4_ @3118
    _ZNSt3__16vectorIP10sd_image_tNS_9allocatorIS2_EEE18__assign_with_sizeB8ne200100IPS2_S7_EEvT_T0_x @3119
    _ZNSt3__16vectorIP10sd_image_tNS_9allocatorIS2_EEE20__throw_length_errorB8ne200100Ev @3120
    _ZNSt3__16vectorIP11ggml_tensorNS_9allocatorIS2_EEE18__assign_with_sizeB8ne200100IPKS2_S8_EEvT_T0_x @3121
    _ZNSt3__16vectorIP11ggml_tensorNS_9allocatorIS2_EEE18__assign_with_sizeB8ne200100IPS2_S7_EEvT_T0_x @3122
    _ZNSt3__16vectorIP11ggml_tensorNS_9allocatorIS2_EEE20__throw_length_errorB8ne200100Ev @3123
    _ZNSt3__16vectorIP11ggml_tensorNS_9allocatorIS2_EEE8__appendEy @3124
    _ZNSt3__16vectorIP11ggml_tensorNS_9allocatorIS2_EEE9push_backB8ne200100EOS2_ @3125
    _ZNSt3__16vectorIP11ggml_tensorNS_9allocatorIS2_EEE9push_backB8ne200100ERKS2_ @3126
    _ZNSt3__16vectorIP9GGMLBlockNS_9allocatorIS2_EEE20__throw_length_errorB8ne200100Ev @3127
    _ZNSt3__16vectorIP9GGMLBlockNS_9allocatorIS2_EEE9push_backB8ne200100EOS2_ @3128
    _ZNSt3__16vectorIPK13TensorStorageNS_9allocatorIS3_EEE20__throw_length_errorB8ne200100Ev @3129
    _ZNSt3__16vectorIPKcNS_9allocatorIS2_EEE20__throw_length_errorB8ne200100Ev @3130
    _ZNSt3__16vectorIPN8nlohmann16json_abi_v3_11_210basic_jsonINS_3mapES0_NS_12basic_stringIcNS_11char_traitsIcEENS_9allocatorIcEEEEbxydS8_NS2_14adl_serializerENS0_IhNS8_IhEEEEEENS8_ISF_EEE20__throw_length_errorB8ne200100Ev @3131
    _ZNSt3__16vectorIPN8nlohmann16json_abi_v3_11_210basic_jsonINS_3mapES0_NS_12basic_stringIcNS_11char_traitsIcEENS_9allocatorIcEEEEbxydS8_NS2_14adl_serializerENS0_IhNS8_IhEEEEEENS8_ISF_EEE9push_backB8ne200100EOSF_ @3132
    _ZNSt3__16vectorIPN8nlohmann16json_abi_v3_11_210basic_jsonINS_3mapES0_NS_12basic_stringIcNS_11char_traitsIcEENS_9allocatorIcEEEEbxydS8_NS2_14adl_serializerENS0_IhNS8_IhEEEEEENS8_ISF_EEE9push_backB8ne200100ERKSF_ @3133
    _ZNSt3__16vectorIZNK18T5UniGramTokenizer15EncodeOptimizedERKNS_12basic_stringIcNS_11char_traitsIcEENS_9allocatorIcEEEEE12BestPathNodeNS5_ISA_EEE20__throw_length_errorB8ne200100Ev @3134
    _ZNSt3__16vectorIbNS_9allocatorIbEEE20__throw_length_errorB8ne200100Ev @3135
    _ZNSt3__16vectorIbNS_9allocatorIbEEE7reserveEy @3136
    _ZNSt3__16vectorIbNS_9allocatorIbEEEC2ERKS3_ @3137
    _ZNSt3__16vectorIcNS_9allocatorIcEEE20__throw_length_errorB8ne200100Ev @3138
    _ZNSt3__16vectorIdNS_9allocatorIdEEE20__throw_length_errorB8ne200100Ev @3139
    _ZNSt3__16vectorIfNS_9allocatorIfEEE18__assign_with_sizeB8ne200100INS_11__wrap_iterIPfEES7_EEvT_T0_x @3140
    _ZNSt3__16vectorIfNS_9allocatorIfEEE18__assign_with_sizeB8ne200100IPKfS6_EEvT_T0_x @3141
    _ZNSt3__16vectorIfNS_9allocatorIfEEE18__assign_with_sizeB8ne200100IPfS5_EEvT_T0_x @3142
    _ZNSt3__16vectorIfNS_9allocatorIfEEE18__insert_with_sizeB8ne200100INS_11__wrap_iterIPKfEES8_EENS5_IPfEES8_T_T0_x @3143
    _ZNSt3__16vectorIfNS_9allocatorIfEEE18__insert_with_sizeB8ne200100INS_11__wrap_iterIPfEES7_EES7_NS5_IPKfEET_T0_x @3144
    _ZNSt3__16vectorIfNS_9allocatorIfEEE18__insert_with_sizeB8ne200100IPfS5_EENS_11__wrap_iterIS5_EENS6_IPKfEET_T0_x @3145
    _ZNSt3__16vectorIfNS_9allocatorIfEEE20__throw_length_errorB8ne200100Ev @3146
    _ZNSt3__16vectorIfNS_9allocatorIfEEE6insertENS_11__wrap_iterIPKfEEyRS5_ @3147
    _ZNSt3__16vectorIfNS_9allocatorIfEEE8__appendEy @3148
    _ZNSt3__16vectorIfNS_9allocatorIfEEE9push_backB8ne200100EOf @3149
    _ZNSt3__16vectorIfNS_9allocatorIfEEE9push_backB8ne200100ERKf @3150
    _ZNSt3__16vectorIhNS_9allocatorIhEEE20__throw_length_errorB8ne200100Ev @3151
    _ZNSt3__16vectorIhNS_9allocatorIhEEE6resizeEy @3152
    _ZNSt3__16vectorIiNS_9allocatorIiEEE18__assign_with_sizeB8ne200100IPKiS6_EEvT_T0_x @3153
    _ZNSt3__16vectorIiNS_9allocatorIiEEE18__assign_with_sizeB8ne200100IPiS5_EEvT_T0_x @3154
    _ZNSt3__16vectorIiNS_9allocatorIiEEE18__insert_with_sizeB8ne200100INS_11__wrap_iterIPiEES7_EES7_NS5_IPKiEET_T0_x @3155
    _ZNSt3__16vectorIiNS_9allocatorIiEEE20__throw_length_errorB8ne200100Ev @3156
    _ZNSt3__16vectorIiNS_9allocatorIiEEE6insertENS_11__wrap_iterIPKiEERS5_ @3157
    _ZNSt3__16vectorIiNS_9allocatorIiEEE6insertENS_11__wrap_iterIPKiEEyRS5_ @3158
    _ZNSt3__16vectorIiNS_9allocatorIiEEE8__appendEy @3159
    _ZNSt3__16vectorIiNS_9allocatorIiEEE9push_backB8ne200100EOi @3160
    _ZNSt3__16vectorIiNS_9allocatorIiEEE9push_backB8ne200100ERKi @3161
    _ZNSt3__16vectorIjNS_9allocatorIjEEE20__throw_length_errorB8ne200100Ev @3162
    _ZNSt3__16vectorItNS_9allocatorItEEE20__throw_length_errorB8ne200100Ev @3163
    _ZNSt3__16vectorItNS_9allocatorItEEE9push_backB8ne200100EOt @3164
    _ZNSt3__16vectorIxNS_9allocatorIxEEE20__throw_length_errorB8ne200100Ev @3165
    _ZNSt3__16vectorIxNS_9allocatorIxEEE8__appendEy @3166
    _ZNSt3__17__sort3B8ne200100INS_17_ClassicAlgPolicyERNS_6__lessIvvEEPNS_4pairINS_12basic_stringIcNS_11char_traitsIcEENS_9allocatorIcEEEEiEETnNS_9enable_ifIXnt21__use_branchless_sortIT0_T1_EEiE4typeELi0EEEbSG_SG_SG_SF_ @3167
    _ZNSt3__17__sort4B8ne200100INS_17_ClassicAlgPolicyERNS_6__lessIvvEEPNS_4pairINS_12basic_stringIcNS_11char_traitsIcEENS_9allocatorIcEEEEiEETnNS_9enable_ifIXnt21__use_branchless_sortIT0_T1_EEiE4typeELi0EEEvSG_SG_SG_SG_SF_ @3168
    _ZNSt3__17__sort5B8ne200100INS_17_ClassicAlgPolicyERNS_6__lessIvvEEPNS_4pairINS_12basic_stringIcNS_11char_traitsIcEENS_9allocatorIcEEEEiEETnNS_9enable_ifIXnt21__use_branchless_sortIT0_T1_EEiE4typeELi0EEEvSG_SG_SG_SG_SG_SF_ @3169
    _ZNSt3__17__stateIcEC2ERKS1_ @3170
    _ZNSt3__17__stateIcED2Ev @3171
    _ZNSt3__17getlineB8ne200100IcNS_11char_traitsIcEENS_9allocatorIcEEEERNS_13basic_istreamIT_T0_EES9_RNS_12basic_stringIS6_S7_T1_EES6_ @3172
    _ZNSt3__18__invokeB8ne200100IRZN19StableDiffusionGGML17process_latent_inEP11ggml_tensorEUlS3_xxxxE_JS3_xxxxEEEDTclclsr3stdE7declvalIT_EEspclsr3stdE7declvalIT0_EEEEOS6_DpOS7_ @3173
    _ZNSt3__18__invokeB8ne200100IRZN19StableDiffusionGGML18process_latent_outEP11ggml_tensorEUlS3_xxxxE_JS3_xxxxEEEDTclclsr3stdE7declvalIT_EEspclsr3stdE7declvalIT0_EEEEOS6_DpOS7_ @3174
    _ZNSt3__18__invokeB8ne200100IRZN7FakeVAE7computeEiP11ggml_tensorbPS3_P12ggml_contextEUlS3_xxxxE_JS3_xxxxEEEDTclclsr3stdE7declvalIT_EEspclsr3stdE7declvalIT0_EEEEOS9_DpOSA_ @3175
    _ZNSt3__19__sift_upB8ne200100INS_17_ClassicAlgPolicyERNS_6__lessIvvEEPNS_4pairINS_12basic_stringIcNS_11char_traitsIcEENS_9allocatorIcEEEEiEEEEvT1_SE_OT0_NS_15iterator_traitsISE_E15difference_typeE @3176
    _ZNSt3__19allocatorI10MMDiTModelE7destroyB8ne200100EPS1_ @3177
    _ZNSt3__19allocatorI11LLMEmbedderE9constructB8ne200100IS1_JRP12ggml_backendRbR10OrderedMapINS_12basic_stringIcNS_11char_traitsIcEENS0_IcEEEE13TensorStorageER9SDVersionRA1_KcS7_EEEvPT_DpOT0_ @3178
    _ZNSt3__19allocatorI11LLMEmbedderE9constructB8ne200100IS1_JRP12ggml_backendRbR10OrderedMapINS_12basic_stringIcNS_11char_traitsIcEENS0_IcEEEE13TensorStorageER9SDVersionRA1_KcbEEEvPT_DpOT0_ @3179
    _ZNSt3__19allocatorI11ZImageModelE9constructB8ne200100IS1_JRP12ggml_backendRbR10OrderedMapINS_12basic_stringIcNS_11char_traitsIcEENS0_IcEEEE13TensorStorageERA22_KcR9SDVersionEEEvPT_DpOT0_ @3180
    _ZNSt3__19allocatorI13AutoEncoderKLE9constructB8ne200100IS1_JRP12ggml_backendRbR10OrderedMapINS_12basic_stringIcNS_11char_traitsIcEENS0_IcEEEE13TensorStorageERA18_KcS7_bR9SDVersionEEEvPT_DpOT0_ @3181
    _ZNSt3__19allocatorI14QwenImageModelE9constructB8ne200100IS1_JRP12ggml_backendRbR10OrderedMapINS_12basic_stringIcNS_11char_traitsIcEENS0_IcEEEE13TensorStorageERA22_KcR9SDVersionRKbEEEvPT_DpOT0_ @3182
    _ZNSt3__19allocatorI19CLIPTextModelRunnerE9constructB8ne200100IS1_JRP12ggml_backendRbRK10OrderedMapINS_12basic_stringIcNS_11char_traitsIcEENS0_IcEEEE13TensorStorageERA40_Kc11CLIPVersionbS7_EEEvPT_DpOT0_ @3183
    _ZNSt3__19allocatorI19CLIPTextModelRunnerE9constructB8ne200100IS1_JRP12ggml_backendRbRK10OrderedMapINS_12basic_stringIcNS_11char_traitsIcEENS0_IcEEEE13TensorStorageERA42_Kc11CLIPVersionbS7_EEEvPT_DpOT0_ @3184
    _ZNSt3__19allocatorI19CLIPTextModelRunnerE9constructB8ne200100IS1_JRP12ggml_backendRbRK10OrderedMapINS_12basic_stringIcNS_11char_traitsIcEENS0_IcEEEE13TensorStorageERA44_Kc11CLIPVersionbEEEvPT_DpOT0_ @3185
    _ZNSt3__19allocatorI19PhotoMakerIDEncoderE9constructB8ne200100IS1_JRP12ggml_backendRbR10OrderedMapINS_12basic_stringIcNS_11char_traitsIcEENS0_IcEEEE13TensorStorageERA5_KcR9SDVersion9PMVersionEEEvPT_DpOT0_ @3186
    _ZNSt3__19allocatorI19PhotoMakerIDEncoderE9constructB8ne200100IS1_JRP12ggml_backendRbR10OrderedMapINS_12basic_stringIcNS_11char_traitsIcEENS0_IcEEEE13TensorStorageERA5_KcR9SDVersionEEEvPT_DpOT0_ @3187
    _ZNSt3__19allocatorI20TinyImageAutoEncoderE9constructB8ne200100IS1_JRP12ggml_backendRbR10OrderedMapINS_12basic_stringIcNS_11char_traitsIcEENS0_IcEEEE13TensorStorageERA15_KcS7_R9SDVersionEEEvPT_DpOT0_ @3188
    _ZNSt3__19allocatorI20TinyVideoAutoEncoderE9constructB8ne200100IS1_JRP12ggml_backendRbR10OrderedMapINS_12basic_stringIcNS_11char_traitsIcEENS0_IcEEEE13TensorStorageERA8_KcS7_R9SDVersionEEEvPT_DpOT0_ @3189
    _ZNSt3__19allocatorI6Conv2dE7destroyB8ne200100EPS1_ @3190
    _ZNSt3__19allocatorI6LinearE7destroyB8ne200100EPS1_ @3191
    _ZNSt3__19allocatorI7RMSNormE7destroyB8ne200100EPS1_ @3192
    _ZNSt3__19allocatorI8T5RunnerE9constructB8ne200100IS1_JRP12ggml_backendRbRK10OrderedMapINS_12basic_stringIcNS_11char_traitsIcEENS0_IcEEEE13TensorStorageERA32_KcEEEvPT_DpOT0_ @3193
    _ZNSt3__19allocatorI8T5RunnerE9constructB8ne200100IS1_JRP12ggml_backendRbRK10OrderedMapINS_12basic_stringIcNS_11char_traitsIcEENS0_IcEEEE13TensorStorageERA32_KcS7_EEEvPT_DpOT0_ @3194
    _ZNSt3__19allocatorI8WanModelE9constructB8ne200100IS1_JRP12ggml_backendRbR10OrderedMapINS_12basic_stringIcNS_11char_traitsIcEENS0_IcEEEE13TensorStorageERA22_KcR9SDVersionEEEvPT_DpOT0_ @3195
    _ZNSt3__19allocatorI8WanModelE9constructB8ne200100IS1_JRP12ggml_backendRbR10OrderedMapINS_12basic_stringIcNS_11char_traitsIcEENS0_IcEEEE13TensorStorageERA33_KcR9SDVersionEEEvPT_DpOT0_ @3196
    _ZNSt3__19allocatorI9LayerNormE7destroyB8ne200100EPS1_ @3197
    _ZNSt3__19allocatorI9LoraModelE9constructB8ne200100IS1_JRA5_KcRP12ggml_backendRKPS4_RA1_S4_R9SDVersionEEEvPT_DpOT0_ @3198
    _ZNSt3__19allocatorI9LoraModelE9constructB8ne200100IS1_JRKNS_12basic_stringIcNS_11char_traitsIcEENS0_IcEEEERP12ggml_backendRS8_PKcR9SDVersionEEEvPT_DpOT0_ @3199
    _ZNSt3__19allocatorIN3LLM16MistralTokenizerEE9constructB8ne200100IS2_JEEEvPT_DpOT0_ @3200
    _ZNSt3__19allocatorIN3LLM9LLMRunnerEE9constructB8ne200100IS2_JRNS1_7LLMArchERP12ggml_backendRbRK10OrderedMapINS_12basic_stringIcNS_11char_traitsIcEENS0_IcEEEE13TensorStorageERA18_KcSA_EEEvPT_DpOT0_ @3201
    _ZNSt3__19allocatorIN3WAN12WanVAERunnerEE9constructB8ne200100IS2_JRP12ggml_backendRbR10OrderedMapINS_12basic_stringIcNS_11char_traitsIcEENS0_IcEEEE13TensorStorageERA18_KcS8_R9SDVersionEEEvPT_DpOT0_ @3202
    _ZNSt3__1eqB8ne200100IcNS_11char_traitsIcEENS_9allocatorIcEEEEbRKNS_12basic_stringIT_T0_T1_EEPKS6_ @3203
    _ZNSt3__1ltB8ne200100INS_12basic_stringIDiNS_11char_traitsIDiEENS_9allocatorIDiEEEES6_S6_S6_EEbRKNS_4pairIT_T0_EERKNS7_IT1_T2_EE @3204
    _ZNSt3__1plB8ne200100IDiNS_11char_traitsIDiEENS_9allocatorIDiEEEENS_12basic_stringIT_T0_T1_EERKS9_SB_ @3205
    _ZNSt3__1plB8ne200100IcNS_11char_traitsIcEENS_9allocatorIcEEEENS_12basic_stringIT_T0_T1_EERKS9_SB_ @3206
    _ZSt28__throw_bad_array_new_lengthB8ne200100v @3207
    _ZTCNSt3__114basic_ifstreamIcNS_11char_traitsIcEEEE0_NS_13basic_istreamIcS2_EE @3208
    _ZTCNSt3__118basic_stringstreamIcNS_11char_traitsIcEENS_9allocatorIcEEEE0_NS_13basic_istreamIcS2_EE @3209
    _ZTCNSt3__118basic_stringstreamIcNS_11char_traitsIcEENS_9allocatorIcEEEE0_NS_14basic_iostreamIcS2_EE @3210
    _ZTCNSt3__118basic_stringstreamIcNS_11char_traitsIcEENS_9allocatorIcEEEE16_NS_13basic_ostreamIcS2_EE @3211
    _ZTCNSt3__119basic_ostringstreamIcNS_11char_traitsIcEENS_9allocatorIcEEEE0_NS_13basic_ostreamIcS2_EE @3212
    _ZTI10ControlNet @3213
    _ZTI10FinalLayer @3214
    _ZTI10FuseModule @3215
    _ZTI10GGMLRunner @3216
    _ZTI10JointBlock @3217
    _ZTI10MMDiTModel @3218
    _ZTI10MT19937RNG @3219
    _ZTI10PatchEmbed @3220
    _ZTI10UnaryBlock @3221
    _ZTI11CLIPEncoder @3222
    _ZTI11Conditioner @3223
    _ZTI11FeedForward @3224
    _ZTI11GroupNorm32 @3225
    _ZTI11LLMEmbedder @3226
    _ZTI11MMDiTRunner @3227
    _ZTI11MmapWrapper @3228
    _ZTI11ResnetBlock @3229
    _ZTI11T5Attention @3230
    _ZTI11T5LayerNorm @3231
    _ZTI11TinyDecoder @3232
    _ZTI11TinyEncoder @3233
    _ZTI11ZImageModel @3234
    _ZTI12AYSScheduler @3235
    _ZTI12AlphaBlender @3236
    _ZTI12EDMVDenoiser @3237
    _ZTI12LCMScheduler @3238
    _ZTI13AutoEncoderKL @3239
    _ZTI13CLIPTextModel @3240
    _ZTI13GITSScheduler @3241
    _ZTI13PMFeedForward @3242
    _ZTI13STDDefaultRNG @3243
    _ZTI13SelfAttention @3244
    _ZTI13UpSampleBlock @3245
    _ZTI13VideoResBlock @3246
    _ZTI13WeightAdapter @3247
    _ZTI14CLIPEmbeddings @3248
    _ZTI14CLIPProjection @3249
    _ZTI14CrossAttention @3250
    _ZTI14DiffusionModel @3251
    _ZTI14QwenImageModel @3252
    _ZTI14SigmaScheduler @3253
    _ZTI14T5CLIPEmbedder @3254
    _ZTI14UnetModelBlock @3255
    _ZTI14VectorEmbedder @3256
    _ZTI15CLIPVisionModel @3257
    _ZTI15CompVisDenoiser @3258
    _ZTI15ControlNetBlock @3259
    _ZTI15DismantledBlock @3260
    _ZTI15DownSampleBlock @3261
    _ZTI15KarrasScheduler @3262
    _ZTI15MmapWrapperImpl @3263
    _ZTI15SD3CLIPEmbedder @3264
    _ZTI15SimpleScheduler @3265
    _ZTI15TinyAutoEncoder @3266
    _ZTI15UNetModelRunner @3267
    _ZTI16CompVisVDenoiser @3268
    _ZTI16FluxCLIPEmbedder @3269
    _ZTI16FluxFlowDenoiser @3270
    _ZTI16MultiLoraAdapter @3271
    _ZTI16QFormerPerceiver @3272
    _ZTI16TimestepEmbedder @3273
    _ZTI16TinyVideoDecoder @3274
    _ZTI16TinyVideoEncoder @3275
    _ZTI16VideoResnetBlock @3276
    _ZTI17DiscreteScheduler @3277
    _ZTI17Flux2FlowDenoiser @3278
    _ZTI18AutoencodingEngine @3279
    _ZTI18KLOptimalScheduler @3280
    _ZTI18MultiheadAttention @3281
    _ZTI18PerceiverAttention @3282
    _ZTI18ResidualDenseBlock @3283
    _ZTI18SpatialTransformer @3284
    _ZTI19CLIPTextModelRunner @3285
    _ZTI19PhotoMakerIDEncoder @3286
    _ZTI19SGMUniformScheduler @3287
    _ZTI19SmoothStepScheduler @3288
    _ZTI20BongTangentScheduler @3289
    _ZTI20CLIPVisionEmbeddings @3290
    _ZTI20DiscreteFlowDenoiser @3291
    _ZTI20ExponentialScheduler @3292
    _ZTI20T5DenseGatedActDense @3293
    _ZTI20T5LayerSelfAttention @3294
    _ZTI20TinyImageAutoEncoder @3295
    _ZTI20TinyVideoAutoEncoder @3296
    _ZTI21BasicTransformerBlock @3297
    _ZTI22FacePerceiverResampler @3298
    _ZTI23SpatialVideoTransformer @3299
    _ZTI24FrozenCLIPVisionEmbedder @3300
    _ZTI24PhotoMakerIDEncoderBlock @3301
    _ZTI25CLIPVisionModelProjection @3302
    _ZTI2T5 @3303
    _ZTI33FrozenCLIPEmbedderWithCustomWords @3304
    _ZTI3Mlp @3305
    _ZTI3RNG @3306
    _ZTI3VAE @3307
    _ZTI4GELU @3308
    _ZTI4RRDB @3309
    _ZTI51PhotoMakerIDEncoder_CLIPInsightfaceExtendtokenBlock @3310
    _ZTI5GEGLU @3311
    _ZTI5MMDiT @3312
    _ZTI5TAEHV @3313
    _ZTI5TAESD @3314
    _ZTI5TGrow @3315
    _ZTI5TPool @3316
    _ZTI6Conv2d @3317
    _ZTI6Conv3d @3318
    _ZTI6ESRGAN @3319
    _ZTI6Linear @3320
    _ZTI7CLIPMLP @3321
    _ZTI7Decoder @3322
    _ZTI7Encoder @3323
    _ZTI7FakeVAE @3324
    _ZTI7RMSNorm @3325
    _ZTI7RRDBNet @3326
    _ZTI7T5Block @3327
    _ZTI7T5Stack @3328
    _ZTI8AE3DConv @3329
    _ZTI8Denoiser @3330
    _ZTI8Identity @3331
    _ZTI8MemBlock @3332
    _ZTI8ResBlock @3333
    _ZTI8T5Runner @3334
    _ZTI8TAEBlock @3335
    _ZTI8WanModel @3336
    _ZTI9AttnBlock @3337
    _ZTI9CLIPLayer @3338
    _ZTI9Embedding @3339
    _ZTI9FluxModel @3340
    _ZTI9FuseBlock @3341
    _ZTI9GGMLBlock @3342
    _ZTI9GroupNorm @3343
    _ZTI9LayerNorm @3344
    _ZTI9LoraModel @3345
    _ZTI9PhiloxRNG @3346
    _ZTI9T5LayerFF @3347
    _ZTI9UNetModel @3348
    _ZTIFviiP10sd_image_tbPvE @3349
    _ZTIN3LLM11PatchMergerE @3350
    _ZTIN3LLM11VisionBlockE @3351
    _ZTIN3LLM11VisionModelE @3352
    _ZTIN3LLM15VisionAttentionE @3353
    _ZTIN3LLM16TransformerBlockE @3354
    _ZTIN3LLM16VisionPatchEmbedE @3355
    _ZTIN3LLM3LLME @3356
    _ZTIN3LLM3MLPE @3357
    _ZTIN3LLM9AttentionE @3358
    _ZTIN3LLM9LLMRunnerE @3359
    _ZTIN3LLM9TextModelE @3360
    _ZTIN3WAN12CausalConv3dE @3361
    _ZTIN3WAN12WanVAERunnerE @3362
    _ZTIN3WAN13ResidualBlockE @3363
    _ZTIN3WAN14AttentionBlockE @3364
    _ZTIN3WAN16Up_ResidualBlockE @3365
    _ZTIN3WAN16WanSelfAttentionE @3366
    _ZTIN3WAN17WanAttentionBlockE @3367
    _ZTIN3WAN17WanCrossAttentionE @3368
    _ZTIN3WAN18Down_ResidualBlockE @3369
    _ZTIN3WAN20WanI2VCrossAttentionE @3370
    _ZTIN3WAN20WanT2VCrossAttentionE @3371
    _ZTIN3WAN21VaceWanAttentionBlockE @3372
    _ZTIN3WAN3WanE @3373
    _ZTIN3WAN4HeadE @3374
    _ZTIN3WAN6WanVAEE @3375
    _ZTIN3WAN7DupUp3DE @3376
    _ZTIN3WAN7MLPProjE @3377
    _ZTIN3WAN8RMS_normE @3378
    _ZTIN3WAN8ResampleE @3379
    _ZTIN3WAN9AvgDown3DE @3380
    _ZTIN3WAN9Decoder3dE @3381
    _ZTIN3WAN9Encoder3dE @3382
    _ZTIN3WAN9WanRunnerE @3383
    _ZTIN4Flux10FluxRunnerE @3384
    _ZTIN4Flux10ModulationE @3385
    _ZTIN4Flux11MLPEmbedderE @3386
    _ZTIN4Flux12NerfEmbedderE @3387
    _ZTIN4Flux12NerfGLUBlockE @3388
    _ZTIN4Flux13SelfAttentionE @3389
    _ZTIN4Flux17DoubleStreamBlockE @3390
    _ZTIN4Flux17SingleStreamBlockE @3391
    _ZTIN4Flux18ChromaApproximatorE @3392
    _ZTIN4Flux18NerfFinalLayerConvE @3393
    _ZTIN4Flux3MLPE @3394
    _ZTIN4Flux4FluxE @3395
    _ZTIN4Flux6QKNormE @3396
    _ZTIN4Flux6YakMLPE @3397
    _ZTIN4Flux7RMSNormE @3398
    _ZTIN4Flux9LastLayerE @3399
    _ZTIN4Qwen14QwenImageModelE @3400
    _ZTIN4Qwen15QwenImageRunnerE @3401
    _ZTIN4Qwen17TimestepEmbeddingE @3402
    _ZTIN4Qwen18QwenImageAttentionE @3403
    _ZTIN4Qwen22AdaLayerNormContinuousE @3404
    _ZTIN4Qwen25QwenImageTransformerBlockE @3405
    _ZTIN4Qwen26QwenTimestepProjEmbeddingsE @3406
    _ZTIN5Darts15DoubleArrayImplIvvivEE @3407
    _ZTIN5Darts7Details9ExceptionE @3408
    _ZTIN6ZImage10FinalLayerE @3409
    _ZTIN6ZImage11FeedForwardE @3410
    _ZTIN6ZImage11ZImageModelE @3411
    _ZTIN6ZImage12ZImageRunnerE @3412
    _ZTIN6ZImage14JointAttentionE @3413
    _ZTIN6ZImage21JointTransformerBlockE @3414
    _ZTIN8nlohmann16json_abi_v3_11_26detail10type_errorE @3415
    _ZTIN8nlohmann16json_abi_v3_11_26detail11parse_errorE @3416
    _ZTIN8nlohmann16json_abi_v3_11_26detail12out_of_rangeE @3417
    _ZTIN8nlohmann16json_abi_v3_11_26detail16invalid_iteratorE @3418
    _ZTIN8nlohmann16json_abi_v3_11_26detail9exceptionE @3419
    _ZTINSt3__110__back_refIcEE @3420
    _ZTINSt3__110__function6__baseIFP11ggml_cgraphvEEE @3421
    _ZTINSt3__110__function6__baseIFP11ggml_tensorS3_fiEEE @3422
    _ZTINSt3__110__function6__baseIFbRK13TensorStoragePP11ggml_tensorEEE @3423
    _ZTINSt3__110__function6__baseIFbRKNS_12basic_stringIcNS_11char_traitsIcEENS_9allocatorIcEEEEEEE @3424
    _ZTINSt3__110__function6__baseIFbRNS_12basic_stringIcNS_11char_traitsIcEENS_9allocatorIcEEEERNS_6vectorIiNS5_IiEEEEEEE @3425
    _ZTINSt3__110__function6__baseIFffEEE @3426
    _ZTINSt3__110__function6__baseIFvP11ggml_tensorS3_bEEE @3427
    _ZTINSt3__110__function6__baseIFvP11ggml_tensorxxxxEEE @3428
    _ZTINSt3__110__function6__baseIFviiP10sd_image_tbPvEEE @3429
    _ZTINSt3__110__function6__funcINS_6__bindIM8DenoiserFffEJPS3_RKNS_12placeholders4__phILi1EEEEEENS_9allocatorISC_EEFffEEE @3430
    _ZTINSt3__110__function6__funcIPFviiP10sd_image_tbPvENS_9allocatorIS6_EES5_EE @3431
    _ZTINSt3__110__function6__funcIZN10ControlNet7computeEiP11ggml_tensorS4_S4_S4_S4_PS4_P12ggml_contextEUlvE_NS_9allocatorIS8_EEFP11ggml_cgraphvEEE @3432
    _ZTINSt3__110__function6__funcIZN11LLMEmbedder21get_learned_conditionEP12ggml_contextiRK17ConditionerParamsEUlP11ggml_tensorxxxxE0_NS_9allocatorISA_EEFvS9_xxxxEEE @3433
    _ZTINSt3__110__function6__funcIZN11LLMEmbedder21get_learned_conditionEP12ggml_contextiRK17ConditionerParamsEUlP11ggml_tensorxxxxE_NS_9allocatorISA_EEFvS9_xxxxEEE @3434
    _ZTINSt3__110__function6__funcIZN11MMDiTRunner7computeEiP11ggml_tensorS4_S4_S4_PS4_P12ggml_contextNS_6vectorIiNS_9allocatorIiEEEEEUlvE_NS9_ISC_EEFP11ggml_cgraphvEEE @3435
    _ZTINSt3__110__function6__funcIZN12UpscalerGGML7upscaleE10sd_image_tjEUlP11ggml_tensorS5_bE_NS_9allocatorIS6_EEFvS5_S5_bEEE @3436
    _ZTINSt3__110__function6__funcIZN13AutoEncoderKL7computeEiP11ggml_tensorbPS4_P12ggml_contextEUlvE_NS_9allocatorIS8_EEFP11ggml_cgraphvEEE @3437
    _ZTINSt3__110__function6__funcIZN15SD3CLIPEmbedder8tokenizeENS_12basic_stringIcNS_11char_traitsIcEENS_9allocatorIcEEEEybEUlRS8_RNS_6vectorIiNS6_IiEEEEE_NS6_ISE_EEFbS9_SD_EEE @3438
    _ZTINSt3__110__function6__funcIZN15UNetModelRunner7computeEiP11ggml_tensorS4_S4_S4_S4_iNS_6vectorIS4_NS_9allocatorIS4_EEEEfPS4_P12ggml_contextEUlvE_NS6_ISC_EEFP11ggml_cgraphvEEE @3439
    _ZTINSt3__110__function6__funcIZN16FluxCLIPEmbedder8tokenizeENS_12basic_stringIcNS_11char_traitsIcEENS_9allocatorIcEEEEybEUlRS8_RNS_6vectorIiNS6_IiEEEEE_NS6_ISE_EEFbS9_SD_EEE @3440
    _ZTINSt3__110__function6__funcIZN19CLIPTextModelRunner7computeEiP11ggml_tensoriPvybiPS4_P12ggml_contextEUlvE_NS_9allocatorIS9_EEFP11ggml_cgraphvEEE @3441
    _ZTINSt3__110__function6__funcIZN19PhotoMakerIDEncoder7computeEiP11ggml_tensorS4_S4_RNS_6vectorIbNS_9allocatorIbEEEEPS4_P12ggml_contextEUlvE_NS6_ISD_EEFP11ggml_cgraphvEEE @3442
    _ZTINSt3__110__function6__funcIZN19StableDiffusionGGML10vae_encodeEP12ggml_contextP11ggml_tensorbEUlS6_S6_bE0_NS_9allocatorIS7_EEFvS6_S6_bEEE @3443
    _ZTINSt3__110__function6__funcIZN19StableDiffusionGGML10vae_encodeEP12ggml_contextP11ggml_tensorbEUlS6_S6_bE_NS_9allocatorIS7_EEFvS6_S6_bEEE @3444
    _ZTINSt3__110__function6__funcIZN19StableDiffusionGGML13preview_imageEP12ggml_contextiP11ggml_tensor9SDVersion9preview_tS6_NS_8functionIFviiP10sd_image_tbPvEEESC_bEUlS6_S6_bE0_NS_9allocatorISF_EEFvS6_S6_bEEE @3445
    _ZTINSt3__110__function6__funcIZN19StableDiffusionGGML13preview_imageEP12ggml_contextiP11ggml_tensor9SDVersion9preview_tS6_NS_8functionIFviiP10sd_image_tbPvEEESC_bEUlS6_S6_bE_NS_9allocatorISF_EEFvS6_S6_bEEE @3446
    _ZTINSt3__110__function6__funcIZN19StableDiffusionGGML17get_pmid_conditonEP12ggml_context14sd_pm_params_tR17ConditionerParamsEUlP11ggml_tensorxxxxE_NS_9allocatorISA_EEFvS9_xxxxEEE @3447
    _ZTINSt3__110__function6__funcIZN19StableDiffusionGGML17process_latent_inEP11ggml_tensorEUlS4_xxxxE_NS_9allocatorIS5_EEFvS4_xxxxEEE @3448
    _ZTINSt3__110__function6__funcIZN19StableDiffusionGGML18decode_first_stageEP12ggml_contextP11ggml_tensorbEUlS6_S6_bE0_NS_9allocatorIS7_EEFvS6_S6_bEEE @3449
    _ZTINSt3__110__function6__funcIZN19StableDiffusionGGML18decode_first_stageEP12ggml_contextP11ggml_tensorbEUlS6_S6_bE_NS_9allocatorIS7_EEFvS6_S6_bEEE @3450
    _ZTINSt3__110__function6__funcIZN19StableDiffusionGGML18process_latent_outEP11ggml_tensorEUlS4_xxxxE_NS_9allocatorIS5_EEFvS4_xxxxEEE @3451
    _ZTINSt3__110__function6__funcIZN19StableDiffusionGGML22apply_loras_at_runtimeERKNS_13unordered_mapINS_12basic_stringIcNS_11char_traitsIcEENS_9allocatorIcEEEEfNS_4hashIS9_EENS_8equal_toIS9_EENS7_INS_4pairIKS9_fEEEEEEEUlRSF_E0_NS7_ISM_EE @3452
    _ZTINSt3__110__function6__funcIZN19StableDiffusionGGML22apply_loras_at_runtimeERKNS_13unordered_mapINS_12basic_stringIcNS_11char_traitsIcEENS_9allocatorIcEEEEfNS_4hashIS9_EENS_8equal_toIS9_EENS7_INS_4pairIKS9_fEEEEEEEUlRSF_E1_NS7_ISM_EE @3453
    _ZTINSt3__110__function6__funcIZN19StableDiffusionGGML22apply_loras_at_runtimeERKNS_13unordered_mapINS_12basic_stringIcNS_11char_traitsIcEENS_9allocatorIcEEEEfNS_4hashIS9_EENS_8equal_toIS9_EENS7_INS_4pairIKS9_fEEEEEEEUlRSF_E_NS7_ISM_EEF @3454
    _ZTINSt3__110__function6__funcIZN19StableDiffusionGGML4initEPK15sd_ctx_params_tEUlRKNS_12basic_stringIcNS_11char_traitsIcEENS_9allocatorIcEEEEE_NS9_ISE_EEFbSD_EEE @3455
    _ZTINSt3__110__function6__funcIZN19StableDiffusionGGML6sampleEP12ggml_contextNS_10shared_ptrI14DiffusionModelEEbP11ggml_tensorS9_11SDConditionSA_SA_S9_f20sd_guidance_params_tfi15sample_method_tRKNS_6vectorIfNS_9allocatorIfEEEEiSA_NSD_IS @3456
    _ZTINSt3__110__function6__funcIZN20TinyImageAutoEncoder7computeEiP11ggml_tensorbPS4_P12ggml_contextEUlvE_NS_9allocatorIS8_EEFP11ggml_cgraphvEEE @3457
    _ZTINSt3__110__function6__funcIZN20TinyVideoAutoEncoder7computeEiP11ggml_tensorbPS4_P12ggml_contextEUlvE_NS_9allocatorIS8_EEFP11ggml_cgraphvEEE @3458
    _ZTINSt3__110__function6__funcIZN24FrozenCLIPVisionEmbedder7computeEiP11ggml_tensorbiPS4_P12ggml_contextEUlvE_NS_9allocatorIS8_EEFP11ggml_cgraphvEEE @3459
    _ZTINSt3__110__function6__funcIZN33FrozenCLIPEmbedderWithCustomWords14load_embeddingENS_12basic_stringIcNS_11char_traitsIcEENS_9allocatorIcEEEES8_RNS_6vectorIiNS6_IiEEEEEUlRK13TensorStoragePP11ggml_tensorE_NS6_ISJ_EEFbSF_SI_EEE @3460
    _ZTINSt3__110__function6__funcIZN33FrozenCLIPEmbedderWithCustomWords19convert_token_to_idENS_12basic_stringIcNS_11char_traitsIcEENS_9allocatorIcEEEEEUlRS8_RNS_6vectorIiNS6_IiEEEEE_NS6_ISE_EEFbS9_SD_EEE @3461
    _ZTINSt3__110__function6__funcIZN33FrozenCLIPEmbedderWithCustomWords27tokenize_with_trigger_tokenENS_12basic_stringIcNS_11char_traitsIcEENS_9allocatorIcEEEEiiybEUlRS8_RNS_6vectorIiNS6_IiEEEEE_NS6_ISE_EEFbS9_SD_EEE @3462
    _ZTINSt3__110__function6__funcIZN33FrozenCLIPEmbedderWithCustomWords8tokenizeENS_12basic_stringIcNS_11char_traitsIcEENS_9allocatorIcEEEEybEUlRS8_RNS_6vectorIiNS6_IiEEEEE_NS6_ISE_EEFbS9_SD_EEE @3463
    _ZTINSt3__110__function6__funcIZN3LLM9LLMRunner12encode_imageEiP11ggml_tensorPS5_P12ggml_contextEUlvE_NS_9allocatorIS9_EEFP11ggml_cgraphvEEE @3464
    _ZTINSt3__110__function6__funcIZN3LLM9LLMRunner7computeEiP11ggml_tensorS5_NS_6vectorINS_4pairIiS5_EENS_9allocatorIS8_EEEENS_3setIiNS_4lessIiEENS9_IiEEEEPS5_P12ggml_contextEUlvE_NS9_ISK_EEFP11ggml_cgraphvEEE @3465
    _ZTINSt3__110__function6__funcIZN3WAN12WanVAERunner7computeEiP11ggml_tensorbPS5_P12ggml_contextEUlvE_NS_9allocatorIS9_EEFP11ggml_cgraphvEEE @3466
    _ZTINSt3__110__function6__funcIZN3WAN9WanRunner7computeEiP11ggml_tensorS5_S5_S5_S5_S5_S5_fPS5_P12ggml_contextEUlvE_NS_9allocatorIS9_EEFP11ggml_cgraphvEEE @3467
    _ZTINSt3__110__function6__funcIZN4Flux10FluxRunner7computeEiP11ggml_tensorS5_S5_S5_S5_S5_NS_6vectorIS5_NS_9allocatorIS5_EEEEbPS5_P12ggml_contextNS6_IiNS7_IiEEEEEUlvE_NS7_ISF_EEFP11ggml_cgraphvEEE @3468
    _ZTINSt3__110__function6__funcIZN4Qwen15QwenImageRunner7computeEiP11ggml_tensorS5_S5_NS_6vectorIS5_NS_9allocatorIS5_EEEEbPS5_P12ggml_contextEUlvE_NS7_ISD_EEFP11ggml_cgraphvEEE @3469
    _ZTINSt3__110__function6__funcIZN6ESRGAN7computeEiP11ggml_tensorPS4_P12ggml_contextEUlvE_NS_9allocatorIS8_EEFP11ggml_cgraphvEEE @3470
    _ZTINSt3__110__function6__funcIZN6ZImage12ZImageRunner7computeEiP11ggml_tensorS5_S5_NS_6vectorIS5_NS_9allocatorIS5_EEEEbPS5_P12ggml_contextEUlvE_NS7_ISD_EEFP11ggml_cgraphvEEE @3471
    _ZTINSt3__110__function6__funcIZN7FakeVAE7computeEiP11ggml_tensorbPS4_P12ggml_contextEUlS4_xxxxE_NS_9allocatorIS8_EEFvS4_xxxxEEE @3472
    _ZTINSt3__110__function6__funcIZN8T5Runner7computeEiP11ggml_tensorS4_PS4_P12ggml_contextEUlvE_NS_9allocatorIS8_EEFP11ggml_cgraphvEEE @3473
    _ZTINSt3__110__function6__funcIZN9LoraModel14load_from_fileEiNS_8functionIFbRKNS_12basic_stringIcNS_11char_traitsIcEENS_9allocatorIcEEEEEEEEUlRK13TensorStoragePP11ggml_tensorE_NS7_ISK_EEFbSG_SJ_EEE @3474
    _ZTINSt3__110__function6__funcIZN9LoraModel5applyENS_3mapINS_12basic_stringIcNS_11char_traitsIcEENS_9allocatorIcEEEEP11ggml_tensorNS_4lessIS9_EENS7_INS_4pairIKS9_SB_EEEEEE9SDVersioniEUlvE_NS7_ISK_EEFP11ggml_cgraphvEEE @3475
    _ZTINSt3__111__alternateIcEE @3476
    _ZTINSt3__111__end_stateIcEE @3477
    _ZTINSt3__111__lookaheadIcNS_12regex_traitsIcEEEE @3478
    _ZTINSt3__111__match_anyIcEE @3479
    _ZTINSt3__111regex_errorE @3480
    _ZTINSt3__112__match_charIcEE @3481
    _ZTINSt3__112codecvt_baseE @3482
    _ZTINSt3__112codecvt_utf8IDiLm1114111ELNS_12codecvt_modeE0EEE @3483
    _ZTINSt3__113__empty_stateIcEE @3484
    _ZTINSt3__113basic_filebufIcNS_11char_traitsIcEEEE @3485
    _ZTINSt3__113basic_istreamIcNS_11char_traitsIcEEEE @3486
    _ZTINSt3__113basic_ostreamIcNS_11char_traitsIcEEEE @3487
    _ZTINSt3__114__codecvt_utf8IDiEE @3488
    _ZTINSt3__114__shared_countE @3489
    _ZTINSt3__114basic_ifstreamIcNS_11char_traitsIcEEEE @3490
    _ZTINSt3__114basic_iostreamIcNS_11char_traitsIcEEEE @3491
    _ZTINSt3__115__has_one_stateIcEE @3492
    _ZTINSt3__115__word_boundaryIcNS_12regex_traitsIcEEEE @3493
    _ZTINSt3__115basic_streambufIcNS_11char_traitsIcEEEE @3494
    _ZTINSt3__115basic_stringbufIcNS_11char_traitsIcEENS_9allocatorIcEEEE @3495
    _ZTINSt3__116__back_ref_icaseIcNS_12regex_traitsIcEEEE @3496
    _ZTINSt3__116__owns_one_stateIcEE @3497
    _ZTINSt3__117__owns_two_statesIcEE @3498
    _ZTINSt3__117__repeat_one_loopIcEE @3499
    _ZTINSt3__117bad_function_callE @3500
    _ZTINSt3__118__back_ref_collateIcNS_12regex_traitsIcEEEE @3501
    _ZTINSt3__118__match_char_icaseIcNS_12regex_traitsIcEEEE @3502
    _ZTINSt3__118__weak_result_typeIM8DenoiserFffEEE @3503
    _ZTINSt3__118basic_stringstreamIcNS_11char_traitsIcEENS_9allocatorIcEEEE @3504
    _ZTINSt3__119__shared_weak_countE @3505
    _ZTINSt3__119basic_ostringstreamIcNS_11char_traitsIcEENS_9allocatorIcEEEE @3506
    _ZTINSt3__120__bracket_expressionIcNS_12regex_traitsIcEEEE @3507
    _ZTINSt3__120__l_anchor_multilineIcEE @3508
    _ZTINSt3__120__match_char_collateIcNS_12regex_traitsIcEEEE @3509
    _ZTINSt3__120__r_anchor_multilineIcEE @3510
    _ZTINSt3__120__shared_ptr_emplaceI10ControlNetNS_9allocatorIS1_EEEE @3511
    _ZTINSt3__120__shared_ptr_emplaceI10MMDiTModelNS_9allocatorIS1_EEEE @3512
    _ZTINSt3__120__shared_ptr_emplaceI10MT19937RNGNS_9allocatorIS1_EEEE @3513
    _ZTINSt3__120__shared_ptr_emplaceI11LLMEmbedderNS_9allocatorIS1_EEEE @3514
    _ZTINSt3__120__shared_ptr_emplaceI11ZImageModelNS_9allocatorIS1_EEEE @3515
    _ZTINSt3__120__shared_ptr_emplaceI12AYSSchedulerNS_9allocatorIS1_EEEE @3516
    _ZTINSt3__120__shared_ptr_emplaceI12EDMVDenoiserNS_9allocatorIS1_EEEE @3517
    _ZTINSt3__120__shared_ptr_emplaceI12LCMSchedulerNS_9allocatorIS1_EEEE @3518
    _ZTINSt3__120__shared_ptr_emplaceI13AutoEncoderKLNS_9allocatorIS1_EEEE @3519
    _ZTINSt3__120__shared_ptr_emplaceI13GITSSchedulerNS_9allocatorIS1_EEEE @3520
    _ZTINSt3__120__shared_ptr_emplaceI13STDDefaultRNGNS_9allocatorIS1_EEEE @3521
    _ZTINSt3__120__shared_ptr_emplaceI14QwenImageModelNS_9allocatorIS1_EEEE @3522
    _ZTINSt3__120__shared_ptr_emplaceI14T5CLIPEmbedderNS_9allocatorIS1_EEEE @3523
    _ZTINSt3__120__shared_ptr_emplaceI15CompVisDenoiserNS_9allocatorIS1_EEEE @3524
    _ZTINSt3__120__shared_ptr_emplaceI15KarrasSchedulerNS_9allocatorIS1_EEEE @3525
    _ZTINSt3__120__shared_ptr_emplaceI15SD3CLIPEmbedderNS_9allocatorIS1_EEEE @3526
    _ZTINSt3__120__shared_ptr_emplaceI15SimpleSchedulerNS_9allocatorIS1_EEEE @3527
    _ZTINSt3__120__shared_ptr_emplaceI16CompVisVDenoiserNS_9allocatorIS1_EEEE @3528
    _ZTINSt3__120__shared_ptr_emplaceI16FluxCLIPEmbedderNS_9allocatorIS1_EEEE @3529
    _ZTINSt3__120__shared_ptr_emplaceI16FluxFlowDenoiserNS_9allocatorIS1_EEEE @3530
    _ZTINSt3__120__shared_ptr_emplaceI16MultiLoraAdapterNS_9allocatorIS1_EEEE @3531
    _ZTINSt3__120__shared_ptr_emplaceI16TimestepEmbedderNS_9allocatorIS1_EEEE @3532
    _ZTINSt3__120__shared_ptr_emplaceI17DiscreteSchedulerNS_9allocatorIS1_EEEE @3533
    _ZTINSt3__120__shared_ptr_emplaceI17Flux2FlowDenoiserNS_9allocatorIS1_EEEE @3534
    _ZTINSt3__120__shared_ptr_emplaceI18KLOptimalSchedulerNS_9allocatorIS1_EEEE @3535
    _ZTINSt3__120__shared_ptr_emplaceI19CLIPTextModelRunnerNS_9allocatorIS1_EEEE @3536
    _ZTINSt3__120__shared_ptr_emplaceI19PhotoMakerIDEncoderNS_9allocatorIS1_EEEE @3537
    _ZTINSt3__120__shared_ptr_emplaceI19SGMUniformSchedulerNS_9allocatorIS1_EEEE @3538
    _ZTINSt3__120__shared_ptr_emplaceI19SmoothStepSchedulerNS_9allocatorIS1_EEEE @3539
    _ZTINSt3__120__shared_ptr_emplaceI20BongTangentSchedulerNS_9allocatorIS1_EEEE @3540
    _ZTINSt3__120__shared_ptr_emplaceI20DiscreteFlowDenoiserNS_9allocatorIS1_EEEE @3541
    _ZTINSt3__120__shared_ptr_emplaceI20ExponentialSchedulerNS_9allocatorIS1_EEEE @3542
    _ZTINSt3__120__shared_ptr_emplaceI20TinyImageAutoEncoderNS_9allocatorIS1_EEEE @3543
    _ZTINSt3__120__shared_ptr_emplaceI20TinyVideoAutoEncoderNS_9allocatorIS1_EEEE @3544
    _ZTINSt3__120__shared_ptr_emplaceI24FrozenCLIPVisionEmbedderNS_9allocatorIS1_EEEE @3545
    _ZTINSt3__120__shared_ptr_emplaceI33FrozenCLIPEmbedderWithCustomWordsNS_9allocatorIS1_EEEE @3546
    _ZTINSt3__120__shared_ptr_emplaceI6Conv2dNS_9allocatorIS1_EEEE @3547
    _ZTINSt3__120__shared_ptr_emplaceI6ESRGANNS_9allocatorIS1_EEEE @3548
    _ZTINSt3__120__shared_ptr_emplaceI6LinearNS_9allocatorIS1_EEEE @3549
    _ZTINSt3__120__shared_ptr_emplaceI7FakeVAENS_9allocatorIS1_EEEE @3550
    _ZTINSt3__120__shared_ptr_emplaceI7RMSNormNS_9allocatorIS1_EEEE @3551
    _ZTINSt3__120__shared_ptr_emplaceI8T5RunnerNS_9allocatorIS1_EEEE @3552
    _ZTINSt3__120__shared_ptr_emplaceI8WanModelNS_9allocatorIS1_EEEE @3553
    _ZTINSt3__120__shared_ptr_emplaceI9FluxModelNS_9allocatorIS1_EEEE @3554
    _ZTINSt3__120__shared_ptr_emplaceI9LayerNormNS_9allocatorIS1_EEEE @3555
    _ZTINSt3__120__shared_ptr_emplaceI9LoraModelNS_9allocatorIS1_EEEE @3556
    _ZTINSt3__120__shared_ptr_emplaceI9PhiloxRNGNS_9allocatorIS1_EEEE @3557
    _ZTINSt3__120__shared_ptr_emplaceI9UNetModelNS_9allocatorIS1_EEEE @3558
    _ZTINSt3__120__shared_ptr_emplaceIN3LLM14Qwen2TokenizerENS_9allocatorIS2_EEEE @3559
    _ZTINSt3__120__shared_ptr_emplaceIN3LLM16MistralTokenizerENS_9allocatorIS2_EEEE @3560
    _ZTINSt3__120__shared_ptr_emplaceIN3LLM3MLPENS_9allocatorIS2_EEEE @3561
    _ZTINSt3__120__shared_ptr_emplaceIN3LLM9AttentionENS_9allocatorIS2_EEEE @3562
    _ZTINSt3__120__shared_ptr_emplaceIN3LLM9LLMRunnerENS_9allocatorIS2_EEEE @3563
    _ZTINSt3__120__shared_ptr_emplaceIN3WAN12WanVAERunnerENS_9allocatorIS2_EEEE @3564
    _ZTINSt3__120__shared_ptr_emplaceIN4Flux10ModulationENS_9allocatorIS2_EEEE @3565
    _ZTINSt3__120__shared_ptr_emplaceIN4Flux11MLPEmbedderENS_9allocatorIS2_EEEE @3566
    _ZTINSt3__120__shared_ptr_emplaceIN4Flux12NerfEmbedderENS_9allocatorIS2_EEEE @3567
    _ZTINSt3__120__shared_ptr_emplaceIN4Flux12NerfGLUBlockENS_9allocatorIS2_EEEE @3568
    _ZTINSt3__120__shared_ptr_emplaceIN4Flux17DoubleStreamBlockENS_9allocatorIS2_EEEE @3569
    _ZTINSt3__120__shared_ptr_emplaceIN4Flux17SingleStreamBlockENS_9allocatorIS2_EEEE @3570
    _ZTINSt3__120__shared_ptr_emplaceIN4Flux18ChromaApproximatorENS_9allocatorIS2_EEEE @3571
    _ZTINSt3__120__shared_ptr_emplaceIN4Flux18NerfFinalLayerConvENS_9allocatorIS2_EEEE @3572
    _ZTINSt3__120__shared_ptr_emplaceIN4Flux7RMSNormENS_9allocatorIS2_EEEE @3573
    _ZTINSt3__120__shared_ptr_emplaceIN4Flux9LastLayerENS_9allocatorIS2_EEEE @3574
    _ZTINSt3__120__shared_ptr_emplaceIN6ZImage10FinalLayerENS_9allocatorIS2_EEEE @3575
    _ZTINSt3__120__shared_ptr_emplaceIN6ZImage11FeedForwardENS_9allocatorIS2_EEEE @3576
    _ZTINSt3__120__shared_ptr_emplaceIN6ZImage14JointAttentionENS_9allocatorIS2_EEEE @3577
    _ZTINSt3__120__shared_ptr_emplaceIN6ZImage21JointTransformerBlockENS_9allocatorIS2_EEEE @3578
    _ZTINSt3__120__shared_ptr_pointerIP10FinalLayerNS_10shared_ptrI9GGMLBlockE27__shared_ptr_default_deleteIS4_S1_EENS_9allocatorIS1_EEEE @3579
    _ZTINSt3__120__shared_ptr_pointerIP10FuseModuleNS_10shared_ptrI9GGMLBlockE27__shared_ptr_default_deleteIS4_S1_EENS_9allocatorIS1_EEEE @3580
    _ZTINSt3__120__shared_ptr_pointerIP10JointBlockNS_10shared_ptrI9GGMLBlockE27__shared_ptr_default_deleteIS4_S1_EENS_9allocatorIS1_EEEE @3581
    _ZTINSt3__120__shared_ptr_pointerIP10PatchEmbedNS_10shared_ptrI9GGMLBlockE27__shared_ptr_default_deleteIS4_S1_EENS_9allocatorIS1_EEEE @3582
    _ZTINSt3__120__shared_ptr_pointerIP11CLIPEncoderNS_10shared_ptrI9GGMLBlockE27__shared_ptr_default_deleteIS4_S1_EENS_9allocatorIS1_EEEE @3583
    _ZTINSt3__120__shared_ptr_pointerIP11FeedForwardNS_10shared_ptrI9GGMLBlockE27__shared_ptr_default_deleteIS4_S1_EENS_9allocatorIS1_EEEE @3584
    _ZTINSt3__120__shared_ptr_pointerIP11GroupNorm32NS_10shared_ptrI9GGMLBlockE27__shared_ptr_default_deleteIS4_S1_EENS_9allocatorIS1_EEEE @3585
    _ZTINSt3__120__shared_ptr_pointerIP11ResnetBlockNS_10shared_ptrI9GGMLBlockE27__shared_ptr_default_deleteIS4_S1_EENS_9allocatorIS1_EEEE @3586
    _ZTINSt3__120__shared_ptr_pointerIP11T5AttentionNS_10shared_ptrI9GGMLBlockE27__shared_ptr_default_deleteIS4_S1_EENS_9allocatorIS1_EEEE @3587
    _ZTINSt3__120__shared_ptr_pointerIP11T5LayerNormNS_10shared_ptrI9GGMLBlockE27__shared_ptr_default_deleteIS4_S1_EENS_9allocatorIS1_EEEE @3588
    _ZTINSt3__120__shared_ptr_pointerIP11TinyDecoderNS_10shared_ptrI9GGMLBlockE27__shared_ptr_default_deleteIS4_S1_EENS_9allocatorIS1_EEEE @3589
    _ZTINSt3__120__shared_ptr_pointerIP11TinyEncoderNS_10shared_ptrI9GGMLBlockE27__shared_ptr_default_deleteIS4_S1_EENS_9allocatorIS1_EEEE @3590
    _ZTINSt3__120__shared_ptr_pointerIP12AlphaBlenderNS_10shared_ptrI9GGMLBlockE27__shared_ptr_default_deleteIS4_S1_EENS_9allocatorIS1_EEEE @3591
    _ZTINSt3__120__shared_ptr_pointerIP13PMFeedForwardNS_10shared_ptrI9GGMLBlockE27__shared_ptr_default_deleteIS4_S1_EENS_9allocatorIS1_EEEE @3592
    _ZTINSt3__120__shared_ptr_pointerIP13SelfAttentionNS_10shared_ptrI9GGMLBlockE27__shared_ptr_default_deleteIS4_S1_EENS_9allocatorIS1_EEEE @3593
    _ZTINSt3__120__shared_ptr_pointerIP13UpSampleBlockNS_10shared_ptrI9GGMLBlockE27__shared_ptr_default_deleteIS4_S1_EENS_9allocatorIS1_EEEE @3594
    _ZTINSt3__120__shared_ptr_pointerIP14CLIPEmbeddingsNS_10shared_ptrI9GGMLBlockE27__shared_ptr_default_deleteIS4_S1_EENS_9allocatorIS1_EEEE @3595
    _ZTINSt3__120__shared_ptr_pointerIP14CLIPProjectionNS_10shared_ptrI9GGMLBlockE27__shared_ptr_default_deleteIS4_S1_EENS_9allocatorIS1_EEEE @3596
    _ZTINSt3__120__shared_ptr_pointerIP14CrossAttentionNS_10shared_ptrI9GGMLBlockE27__shared_ptr_default_deleteIS4_S1_EENS_9allocatorIS1_EEEE @3597
    _ZTINSt3__120__shared_ptr_pointerIP14VectorEmbedderNS_10shared_ptrI9GGMLBlockE27__shared_ptr_default_deleteIS4_S1_EENS_9allocatorIS1_EEEE @3598
    _ZTINSt3__120__shared_ptr_pointerIP15CLIPVisionModelNS_10shared_ptrI9GGMLBlockE27__shared_ptr_default_deleteIS4_S1_EENS_9allocatorIS1_EEEE @3599
    _ZTINSt3__120__shared_ptr_pointerIP15DismantledBlockNS_10shared_ptrI9GGMLBlockE27__shared_ptr_default_deleteIS4_S1_EENS_9allocatorIS1_EEEE @3600
    _ZTINSt3__120__shared_ptr_pointerIP15DownSampleBlockNS_10shared_ptrI9GGMLBlockE27__shared_ptr_default_deleteIS4_S1_EENS_9allocatorIS1_EEEE @3601
    _ZTINSt3__120__shared_ptr_pointerIP16QFormerPerceiverNS_10shared_ptrI9GGMLBlockE27__shared_ptr_default_deleteIS4_S1_EENS_9allocatorIS1_EEEE @3602
    _ZTINSt3__120__shared_ptr_pointerIP16TimestepEmbedderNS_10shared_ptrI9GGMLBlockE27__shared_ptr_default_deleteIS4_S1_EENS_9allocatorIS1_EEEE @3603
    _ZTINSt3__120__shared_ptr_pointerIP16TinyVideoDecoderNS_10shared_ptrI9GGMLBlockE27__shared_ptr_default_deleteIS4_S1_EENS_9allocatorIS1_EEEE @3604
    _ZTINSt3__120__shared_ptr_pointerIP16TinyVideoEncoderNS_10shared_ptrI9GGMLBlockE27__shared_ptr_default_deleteIS4_S1_EENS_9allocatorIS1_EEEE @3605
    _ZTINSt3__120__shared_ptr_pointerIP16VideoResnetBlockNS_10shared_ptrI9GGMLBlockE27__shared_ptr_default_deleteIS4_S1_EENS_9allocatorIS1_EEEE @3606
    _ZTINSt3__120__shared_ptr_pointerIP18MultiheadAttentionNS_10shared_ptrI9GGMLBlockE27__shared_ptr_default_deleteIS4_S1_EENS_9allocatorIS1_EEEE @3607
    _ZTINSt3__120__shared_ptr_pointerIP18PerceiverAttentionNS_10shared_ptrI9GGMLBlockE27__shared_ptr_default_deleteIS4_S1_EENS_9allocatorIS1_EEEE @3608
    _ZTINSt3__120__shared_ptr_pointerIP18ResidualDenseBlockNS_10shared_ptrI9GGMLBlockE27__shared_ptr_default_deleteIS4_S1_EENS_9allocatorIS1_EEEE @3609
    _ZTINSt3__120__shared_ptr_pointerIP18SpatialTransformerNS_10shared_ptrI9GGMLBlockE27__shared_ptr_default_deleteIS4_S1_EENS_9allocatorIS1_EEEE @3610
    _ZTINSt3__120__shared_ptr_pointerIP20CLIPVisionEmbeddingsNS_10shared_ptrI9GGMLBlockE27__shared_ptr_default_deleteIS4_S1_EENS_9allocatorIS1_EEEE @3611
    _ZTINSt3__120__shared_ptr_pointerIP20T5DenseGatedActDenseNS_10shared_ptrI9GGMLBlockE27__shared_ptr_default_deleteIS4_S1_EENS_9allocatorIS1_EEEE @3612
    _ZTINSt3__120__shared_ptr_pointerIP20T5LayerSelfAttentionNS_10shared_ptrI9GGMLBlockE27__shared_ptr_default_deleteIS4_S1_EENS_9allocatorIS1_EEEE @3613
    _ZTINSt3__120__shared_ptr_pointerIP21BasicTransformerBlockNS_10shared_ptrI9GGMLBlockE27__shared_ptr_default_deleteIS4_S1_EENS_9allocatorIS1_EEEE @3614
    _ZTINSt3__120__shared_ptr_pointerIP22FacePerceiverResamplerNS_10shared_ptrI9GGMLBlockE27__shared_ptr_default_deleteIS4_S1_EENS_9allocatorIS1_EEEE @3615
    _ZTINSt3__120__shared_ptr_pointerIP3MlpNS_10shared_ptrI9GGMLBlockE27__shared_ptr_default_deleteIS4_S1_EENS_9allocatorIS1_EEEE @3616
    _ZTINSt3__120__shared_ptr_pointerIP4GELUNS_10shared_ptrI9GGMLBlockE27__shared_ptr_default_deleteIS4_S1_EENS_9allocatorIS1_EEEE @3617
    _ZTINSt3__120__shared_ptr_pointerIP4RRDBNS_10shared_ptrI9GGMLBlockE27__shared_ptr_default_deleteIS4_S1_EENS_9allocatorIS1_EEEE @3618
    _ZTINSt3__120__shared_ptr_pointerIP5GEGLUNS_10shared_ptrI9GGMLBlockE27__shared_ptr_default_deleteIS4_S1_EENS_9allocatorIS1_EEEE @3619
    _ZTINSt3__120__shared_ptr_pointerIP5TGrowNS_10shared_ptrI9GGMLBlockE27__shared_ptr_default_deleteIS4_S1_EENS_9allocatorIS1_EEEE @3620
    _ZTINSt3__120__shared_ptr_pointerIP5TPoolNS_10shared_ptrI9GGMLBlockE27__shared_ptr_default_deleteIS4_S1_EENS_9allocatorIS1_EEEE @3621
    _ZTINSt3__120__shared_ptr_pointerIP6Conv2dNS_10shared_ptrI9GGMLBlockE27__shared_ptr_default_deleteIS4_S1_EENS_9allocatorIS1_EEEE @3622
    _ZTINSt3__120__shared_ptr_pointerIP6Conv3dNS_10shared_ptrI9GGMLBlockE27__shared_ptr_default_deleteIS4_S1_EENS_9allocatorIS1_EEEE @3623
    _ZTINSt3__120__shared_ptr_pointerIP6LinearNS_10shared_ptrI9GGMLBlockE27__shared_ptr_default_deleteIS4_S1_EENS_9allocatorIS1_EEEE @3624
    _ZTINSt3__120__shared_ptr_pointerIP7CLIPMLPNS_10shared_ptrI9GGMLBlockE27__shared_ptr_default_deleteIS4_S1_EENS_9allocatorIS1_EEEE @3625
    _ZTINSt3__120__shared_ptr_pointerIP7DecoderNS_10shared_ptrI9GGMLBlockE27__shared_ptr_default_deleteIS4_S1_EENS_9allocatorIS1_EEEE @3626
    _ZTINSt3__120__shared_ptr_pointerIP7EncoderNS_10shared_ptrI9GGMLBlockE27__shared_ptr_default_deleteIS4_S1_EENS_9allocatorIS1_EEEE @3627
    _ZTINSt3__120__shared_ptr_pointerIP7RMSNormNS_10shared_ptrI9GGMLBlockE27__shared_ptr_default_deleteIS4_S1_EENS_9allocatorIS1_EEEE @3628
    _ZTINSt3__120__shared_ptr_pointerIP7T5BlockNS_10shared_ptrI9GGMLBlockE27__shared_ptr_default_deleteIS4_S1_EENS_9allocatorIS1_EEEE @3629
    _ZTINSt3__120__shared_ptr_pointerIP7T5StackNS_10shared_ptrI9GGMLBlockE27__shared_ptr_default_deleteIS4_S1_EENS_9allocatorIS1_EEEE @3630
    _ZTINSt3__120__shared_ptr_pointerIP8AE3DConvNS_10shared_ptrI9GGMLBlockE27__shared_ptr_default_deleteIS4_S1_EENS_9allocatorIS1_EEEE @3631
    _ZTINSt3__120__shared_ptr_pointerIP8IdentityNS_10shared_ptrI9GGMLBlockE27__shared_ptr_default_deleteIS4_S1_EENS_9allocatorIS1_EEEE @3632
    _ZTINSt3__120__shared_ptr_pointerIP8MemBlockNS_10shared_ptrI9GGMLBlockE27__shared_ptr_default_deleteIS4_S1_EENS_9allocatorIS1_EEEE @3633
    _ZTINSt3__120__shared_ptr_pointerIP8ResBlockNS_10shared_ptrI9GGMLBlockE27__shared_ptr_default_deleteIS4_S1_EENS_9allocatorIS1_EEEE @3634
    _ZTINSt3__120__shared_ptr_pointerIP8TAEBlockNS_10shared_ptrI9GGMLBlockE27__shared_ptr_default_deleteIS4_S1_EENS_9allocatorIS1_EEEE @3635
    _ZTINSt3__120__shared_ptr_pointerIP9AttnBlockNS_10shared_ptrI9GGMLBlockE27__shared_ptr_default_deleteIS4_S1_EENS_9allocatorIS1_EEEE @3636
    _ZTINSt3__120__shared_ptr_pointerIP9CLIPLayerNS_10shared_ptrI9GGMLBlockE27__shared_ptr_default_deleteIS4_S1_EENS_9allocatorIS1_EEEE @3637
    _ZTINSt3__120__shared_ptr_pointerIP9EmbeddingNS_10shared_ptrI9GGMLBlockE27__shared_ptr_default_deleteIS4_S1_EENS_9allocatorIS1_EEEE @3638
    _ZTINSt3__120__shared_ptr_pointerIP9FuseBlockNS_10shared_ptrI9GGMLBlockE27__shared_ptr_default_deleteIS4_S1_EENS_9allocatorIS1_EEEE @3639
    _ZTINSt3__120__shared_ptr_pointerIP9GroupNormNS_10shared_ptrI9GGMLBlockE27__shared_ptr_default_deleteIS4_S1_EENS_9allocatorIS1_EEEE @3640
    _ZTINSt3__120__shared_ptr_pointerIP9LayerNormNS_10shared_ptrI9GGMLBlockE27__shared_ptr_default_deleteIS4_S1_EENS_9allocatorIS1_EEEE @3641
    _ZTINSt3__120__shared_ptr_pointerIP9T5LayerFFNS_10shared_ptrI9GGMLBlockE27__shared_ptr_default_deleteIS4_S1_EENS_9allocatorIS1_EEEE @3642
    _ZTINSt3__120__shared_ptr_pointerIPN3LLM11PatchMergerENS_10shared_ptrI9GGMLBlockE27__shared_ptr_default_deleteIS5_S2_EENS_9allocatorIS2_EEEE @3643
    _ZTINSt3__120__shared_ptr_pointerIPN3LLM11VisionBlockENS_10shared_ptrI9GGMLBlockE27__shared_ptr_default_deleteIS5_S2_EENS_9allocatorIS2_EEEE @3644
    _ZTINSt3__120__shared_ptr_pointerIPN3LLM11VisionModelENS_10shared_ptrI9GGMLBlockE27__shared_ptr_default_deleteIS5_S2_EENS_9allocatorIS2_EEEE @3645
    _ZTINSt3__120__shared_ptr_pointerIPN3LLM15VisionAttentionENS_10shared_ptrI9GGMLBlockE27__shared_ptr_default_deleteIS5_S2_EENS_9allocatorIS2_EEEE @3646
    _ZTINSt3__120__shared_ptr_pointerIPN3LLM16TransformerBlockENS_10shared_ptrI9GGMLBlockE27__shared_ptr_default_deleteIS5_S2_EENS_9allocatorIS2_EEEE @3647
    _ZTINSt3__120__shared_ptr_pointerIPN3LLM16VisionPatchEmbedENS_10shared_ptrI9GGMLBlockE27__shared_ptr_default_deleteIS5_S2_EENS_9allocatorIS2_EEEE @3648
    _ZTINSt3__120__shared_ptr_pointerIPN3LLM3MLPENS_10shared_ptrI9GGMLBlockE27__shared_ptr_default_deleteIS5_S2_EENS_9allocatorIS2_EEEE @3649
    _ZTINSt3__120__shared_ptr_pointerIPN3LLM9TextModelENS_10shared_ptrI9GGMLBlockE27__shared_ptr_default_deleteIS5_S2_EENS_9allocatorIS2_EEEE @3650
    _ZTINSt3__120__shared_ptr_pointerIPN3WAN12CausalConv3dENS_10shared_ptrI9GGMLBlockE27__shared_ptr_default_deleteIS5_S2_EENS_9allocatorIS2_EEEE @3651
    _ZTINSt3__120__shared_ptr_pointerIPN3WAN13ResidualBlockENS_10shared_ptrI9GGMLBlockE27__shared_ptr_default_deleteIS5_S2_EENS_9allocatorIS2_EEEE @3652
    _ZTINSt3__120__shared_ptr_pointerIPN3WAN14AttentionBlockENS_10shared_ptrI9GGMLBlockE27__shared_ptr_default_deleteIS5_S2_EENS_9allocatorIS2_EEEE @3653
    _ZTINSt3__120__shared_ptr_pointerIPN3WAN16Up_ResidualBlockENS_10shared_ptrI9GGMLBlockE27__shared_ptr_default_deleteIS5_S2_EENS_9allocatorIS2_EEEE @3654
    _ZTINSt3__120__shared_ptr_pointerIPN3WAN16WanSelfAttentionENS_10shared_ptrI9GGMLBlockE27__shared_ptr_default_deleteIS5_S2_EENS_9allocatorIS2_EEEE @3655
    _ZTINSt3__120__shared_ptr_pointerIPN3WAN17WanAttentionBlockENS_10shared_ptrI9GGMLBlockE27__shared_ptr_default_deleteIS5_S2_EENS_9allocatorIS2_EEEE @3656
    _ZTINSt3__120__shared_ptr_pointerIPN3WAN18Down_ResidualBlockENS_10shared_ptrI9GGMLBlockE27__shared_ptr_default_deleteIS5_S2_EENS_9allocatorIS2_EEEE @3657
    _ZTINSt3__120__shared_ptr_pointerIPN3WAN20WanI2VCrossAttentionENS_10shared_ptrI9GGMLBlockE27__shared_ptr_default_deleteIS5_S2_EENS_9allocatorIS2_EEEE @3658
    _ZTINSt3__120__shared_ptr_pointerIPN3WAN20WanT2VCrossAttentionENS_10shared_ptrI9GGMLBlockE27__shared_ptr_default_deleteIS5_S2_EENS_9allocatorIS2_EEEE @3659
    _ZTINSt3__120__shared_ptr_pointerIPN3WAN21VaceWanAttentionBlockENS_10shared_ptrI9GGMLBlockE27__shared_ptr_default_deleteIS5_S2_EENS_9allocatorIS2_EEEE @3660
    _ZTINSt3__120__shared_ptr_pointerIPN3WAN4HeadENS_10shared_ptrI9GGMLBlockE27__shared_ptr_default_deleteIS5_S2_EENS_9allocatorIS2_EEEE @3661
    _ZTINSt3__120__shared_ptr_pointerIPN3WAN7DupUp3DENS_10shared_ptrI9GGMLBlockE27__shared_ptr_default_deleteIS5_S2_EENS_9allocatorIS2_EEEE @3662
    _ZTINSt3__120__shared_ptr_pointerIPN3WAN7MLPProjENS_10shared_ptrI9GGMLBlockE27__shared_ptr_default_deleteIS5_S2_EENS_9allocatorIS2_EEEE @3663
    _ZTINSt3__120__shared_ptr_pointerIPN3WAN8RMS_normENS_10shared_ptrI9GGMLBlockE27__shared_ptr_default_deleteIS5_S2_EENS_9allocatorIS2_EEEE @3664
    _ZTINSt3__120__shared_ptr_pointerIPN3WAN8ResampleENS_10shared_ptrI9GGMLBlockE27__shared_ptr_default_deleteIS5_S2_EENS_9allocatorIS2_EEEE @3665
    _ZTINSt3__120__shared_ptr_pointerIPN3WAN9AvgDown3DENS_10shared_ptrI9GGMLBlockE27__shared_ptr_default_deleteIS5_S2_EENS_9allocatorIS2_EEEE @3666
    _ZTINSt3__120__shared_ptr_pointerIPN3WAN9Decoder3dENS_10shared_ptrI9GGMLBlockE27__shared_ptr_default_deleteIS5_S2_EENS_9allocatorIS2_EEEE @3667
    _ZTINSt3__120__shared_ptr_pointerIPN3WAN9Encoder3dENS_10shared_ptrI9GGMLBlockE27__shared_ptr_default_deleteIS5_S2_EENS_9allocatorIS2_EEEE @3668
    _ZTINSt3__120__shared_ptr_pointerIPN4Flux10ModulationENS_10shared_ptrI9GGMLBlockE27__shared_ptr_default_deleteIS5_S2_EENS_9allocatorIS2_EEEE @3669
    _ZTINSt3__120__shared_ptr_pointerIPN4Flux11MLPEmbedderENS_10shared_ptrI9GGMLBlockE27__shared_ptr_default_deleteIS5_S2_EENS_9allocatorIS2_EEEE @3670
    _ZTINSt3__120__shared_ptr_pointerIPN4Flux13SelfAttentionENS_10shared_ptrI9GGMLBlockE27__shared_ptr_default_deleteIS5_S2_EENS_9allocatorIS2_EEEE @3671
    _ZTINSt3__120__shared_ptr_pointerIPN4Flux3MLPENS_10shared_ptrI9GGMLBlockE27__shared_ptr_default_deleteIS5_S2_EENS_9allocatorIS2_EEEE @3672
    _ZTINSt3__120__shared_ptr_pointerIPN4Flux6QKNormENS_10shared_ptrI9GGMLBlockE27__shared_ptr_default_deleteIS5_S2_EENS_9allocatorIS2_EEEE @3673
    _ZTINSt3__120__shared_ptr_pointerIPN4Flux6YakMLPENS_10shared_ptrI9GGMLBlockE27__shared_ptr_default_deleteIS5_S2_EENS_9allocatorIS2_EEEE @3674
    _ZTINSt3__120__shared_ptr_pointerIPN4Flux7RMSNormENS_10shared_ptrI9GGMLBlockE27__shared_ptr_default_deleteIS5_S2_EENS_9allocatorIS2_EEEE @3675
    _ZTINSt3__120__shared_ptr_pointerIPN4Qwen17TimestepEmbeddingENS_10shared_ptrI9GGMLBlockE27__shared_ptr_default_deleteIS5_S2_EENS_9allocatorIS2_EEEE @3676
    _ZTINSt3__120__shared_ptr_pointerIPN4Qwen18QwenImageAttentionENS_10shared_ptrI9GGMLBlockE27__shared_ptr_default_deleteIS5_S2_EENS_9allocatorIS2_EEEE @3677
    _ZTINSt3__120__shared_ptr_pointerIPN4Qwen22AdaLayerNormContinuousENS_10shared_ptrI9GGMLBlockE27__shared_ptr_default_deleteIS5_S2_EENS_9allocatorIS2_EEEE @3678
    _ZTINSt3__120__shared_ptr_pointerIPN4Qwen25QwenImageTransformerBlockENS_10shared_ptrI9GGMLBlockE27__shared_ptr_default_deleteIS5_S2_EENS_9allocatorIS2_EEEE @3679
    _ZTINSt3__120__shared_ptr_pointerIPN4Qwen26QwenTimestepProjEmbeddingsENS_10shared_ptrI9GGMLBlockE27__shared_ptr_default_deleteIS5_S2_EENS_9allocatorIS2_EEEE @3680
    _ZTINSt3__120__shared_ptr_pointerIPNS_13__empty_stateIcEENS_10shared_ptrIS2_E27__shared_ptr_default_deleteIS2_S2_EENS_9allocatorIS2_EEEE @3681
    _ZTINSt3__121__empty_non_own_stateIcEE @3682
    _ZTINSt3__123__match_any_but_newlineIcEE @3683
    _ZTINSt3__126__end_marked_subexpressionIcEE @3684
    _ZTINSt3__128__begin_marked_subexpressionIcEE @3685
    _ZTINSt3__134__binary_function_keep_layout_baseIP8DenoiserffEE @3686
    _ZTINSt3__16__bindIM8DenoiserFffEJPS1_RKNS_12placeholders4__phILi1EEEEEE @3687
    _ZTINSt3__16__loopIcEE @3688
    _ZTINSt3__16__nodeIcEE @3689
    _ZTINSt3__16locale5facetE @3690
    _ZTINSt3__17codecvtIDiciEE @3691
    _ZTINSt3__18ios_baseE @3692
    _ZTINSt3__19basic_iosIcNS_11char_traitsIcEEEE @3693
    _ZTIPFviiP10sd_image_tbPvE @3694
    _ZTISt11logic_error @3695
    _ZTISt11range_error @3696
    _ZTISt12length_error @3697
    _ZTISt12out_of_range @3698
    _ZTISt13runtime_error @3699
    _ZTISt20bad_array_new_length @3700
    _ZTISt8bad_cast @3701
    _ZTISt9bad_alloc @3702
    _ZTISt9exception @3703
    _ZTIZN10ControlNet7computeEiP11ggml_tensorS1_S1_S1_S1_PS1_P12ggml_contextEUlvE_ @3704
    _ZTIZN11LLMEmbedder21get_learned_conditionEP12ggml_contextiRK17ConditionerParamsEUlP11ggml_tensorxxxxE0_ @3705
    _ZTIZN11LLMEmbedder21get_learned_conditionEP12ggml_contextiRK17ConditionerParamsEUlP11ggml_tensorxxxxE_ @3706
    _ZTIZN11MMDiTRunner7computeEiP11ggml_tensorS1_S1_S1_PS1_P12ggml_contextNSt3__16vectorIiNS5_9allocatorIiEEEEEUlvE_ @3707
    _ZTIZN12UpscalerGGML7upscaleE10sd_image_tjEUlP11ggml_tensorS2_bE_ @3708
    _ZTIZN13AutoEncoderKL7computeEiP11ggml_tensorbPS1_P12ggml_contextEUlvE_ @3709
    _ZTIZN15SD3CLIPEmbedder8tokenizeENSt3__112basic_stringIcNS0_11char_traitsIcEENS0_9allocatorIcEEEEybEUlRS6_RNS0_6vectorIiNS4_IiEEEEE_ @3710
    _ZTIZN15UNetModelRunner7computeEiP11ggml_tensorS1_S1_S1_S1_iNSt3__16vectorIS1_NS2_9allocatorIS1_EEEEfPS1_P12ggml_contextEUlvE_ @3711
    _ZTIZN16FluxCLIPEmbedder8tokenizeENSt3__112basic_stringIcNS0_11char_traitsIcEENS0_9allocatorIcEEEEybEUlRS6_RNS0_6vectorIiNS4_IiEEEEE_ @3712
    _ZTIZN19CLIPTextModelRunner7computeEiP11ggml_tensoriPvybiPS1_P12ggml_contextEUlvE_ @3713
    _ZTIZN19PhotoMakerIDEncoder7computeEiP11ggml_tensorS1_S1_RNSt3__16vectorIbNS2_9allocatorIbEEEEPS1_P12ggml_contextEUlvE_ @3714
    _ZTIZN19StableDiffusionGGML10vae_encodeEP12ggml_contextP11ggml_tensorbEUlS3_S3_bE0_ @3715
    _ZTIZN19StableDiffusionGGML10vae_encodeEP12ggml_contextP11ggml_tensorbEUlS3_S3_bE_ @3716
    _ZTIZN19StableDiffusionGGML13preview_imageEP12ggml_contextiP11ggml_tensor9SDVersion9preview_tS3_NSt3__18functionIFviiP10sd_image_tbPvEEESA_bEUlS3_S3_bE0_ @3717
    _ZTIZN19StableDiffusionGGML13preview_imageEP12ggml_contextiP11ggml_tensor9SDVersion9preview_tS3_NSt3__18functionIFviiP10sd_image_tbPvEEESA_bEUlS3_S3_bE_ @3718
    _ZTIZN19StableDiffusionGGML17get_pmid_conditonEP12ggml_context14sd_pm_params_tR17ConditionerParamsEUlP11ggml_tensorxxxxE_ @3719
    _ZTIZN19StableDiffusionGGML17process_latent_inEP11ggml_tensorEUlS1_xxxxE_ @3720
    _ZTIZN19StableDiffusionGGML18decode_first_stageEP12ggml_contextP11ggml_tensorbEUlS3_S3_bE0_ @3721
    _ZTIZN19StableDiffusionGGML18decode_first_stageEP12ggml_contextP11ggml_tensorbEUlS3_S3_bE_ @3722
    _ZTIZN19StableDiffusionGGML18process_latent_outEP11ggml_tensorEUlS1_xxxxE_ @3723
    _ZTIZN19StableDiffusionGGML22apply_loras_at_runtimeERKNSt3__113unordered_mapINS0_12basic_stringIcNS0_11char_traitsIcEENS0_9allocatorIcEEEEfNS0_4hashIS7_EENS0_8equal_toIS7_EENS5_INS0_4pairIKS7_fEEEEEEEUlRSD_E0_ @3724
    _ZTIZN19StableDiffusionGGML22apply_loras_at_runtimeERKNSt3__113unordered_mapINS0_12basic_stringIcNS0_11char_traitsIcEENS0_9allocatorIcEEEEfNS0_4hashIS7_EENS0_8equal_toIS7_EENS5_INS0_4pairIKS7_fEEEEEEEUlRSD_E1_ @3725
    _ZTIZN19StableDiffusionGGML22apply_loras_at_runtimeERKNSt3__113unordered_mapINS0_12basic_stringIcNS0_11char_traitsIcEENS0_9allocatorIcEEEEfNS0_4hashIS7_EENS0_8equal_toIS7_EENS5_INS0_4pairIKS7_fEEEEEEEUlRSD_E_ @3726
    _ZTIZN19StableDiffusionGGML4initEPK15sd_ctx_params_tEUlRKNSt3__112basic_stringIcNS3_11char_traitsIcEENS3_9allocatorIcEEEEE_ @3727
    _ZTIZN19StableDiffusionGGML6sampleEP12ggml_contextNSt3__110shared_ptrI14DiffusionModelEEbP11ggml_tensorS7_11SDConditionS8_S8_S7_f20sd_guidance_params_tfi15sample_method_tRKNS2_6vectorIfNS2_9allocatorIfEEEEiS8_NSB_IS7_NSC_IS7_EEEEbS7_S7_ @3728
    _ZTIZN20TinyImageAutoEncoder7computeEiP11ggml_tensorbPS1_P12ggml_contextEUlvE_ @3729
    _ZTIZN20TinyVideoAutoEncoder7computeEiP11ggml_tensorbPS1_P12ggml_contextEUlvE_ @3730
    _ZTIZN24FrozenCLIPVisionEmbedder7computeEiP11ggml_tensorbiPS1_P12ggml_contextEUlvE_ @3731
    _ZTIZN33FrozenCLIPEmbedderWithCustomWords14load_embeddingENSt3__112basic_stringIcNS0_11char_traitsIcEENS0_9allocatorIcEEEES6_RNS0_6vectorIiNS4_IiEEEEEUlRK13TensorStoragePP11ggml_tensorE_ @3732
    _ZTIZN33FrozenCLIPEmbedderWithCustomWords19convert_token_to_idENSt3__112basic_stringIcNS0_11char_traitsIcEENS0_9allocatorIcEEEEEUlRS6_RNS0_6vectorIiNS4_IiEEEEE_ @3733
    _ZTIZN33FrozenCLIPEmbedderWithCustomWords27tokenize_with_trigger_tokenENSt3__112basic_stringIcNS0_11char_traitsIcEENS0_9allocatorIcEEEEiiybEUlRS6_RNS0_6vectorIiNS4_IiEEEEE_ @3734
    _ZTIZN33FrozenCLIPEmbedderWithCustomWords8tokenizeENSt3__112basic_stringIcNS0_11char_traitsIcEENS0_9allocatorIcEEEEybEUlRS6_RNS0_6vectorIiNS4_IiEEEEE_ @3735
    _ZTIZN3LLM9LLMRunner12encode_imageEiP11ggml_tensorPS2_P12ggml_contextEUlvE_ @3736
    _ZTIZN3LLM9LLMRunner7computeEiP11ggml_tensorS2_NSt3__16vectorINS3_4pairIiS2_EENS3_9allocatorIS6_EEEENS3_3setIiNS3_4lessIiEENS7_IiEEEEPS2_P12ggml_contextEUlvE_ @3737
    _ZTIZN3WAN12WanVAERunner7computeEiP11ggml_tensorbPS2_P12ggml_contextEUlvE_ @3738
    _ZTIZN3WAN9WanRunner7computeEiP11ggml_tensorS2_S2_S2_S2_S2_S2_fPS2_P12ggml_contextEUlvE_ @3739
    _ZTIZN4Flux10FluxRunner7computeEiP11ggml_tensorS2_S2_S2_S2_S2_NSt3__16vectorIS2_NS3_9allocatorIS2_EEEEbPS2_P12ggml_contextNS4_IiNS5_IiEEEEEUlvE_ @3740
    _ZTIZN4Qwen15QwenImageRunner7computeEiP11ggml_tensorS2_S2_NSt3__16vectorIS2_NS3_9allocatorIS2_EEEEbPS2_P12ggml_contextEUlvE_ @3741
    _ZTIZN6ESRGAN7computeEiP11ggml_tensorPS1_P12ggml_contextEUlvE_ @3742
    _ZTIZN6ZImage12ZImageRunner7computeEiP11ggml_tensorS2_S2_NSt3__16vectorIS2_NS3_9allocatorIS2_EEEEbPS2_P12ggml_contextEUlvE_ @3743
    _ZTIZN7FakeVAE7computeEiP11ggml_tensorbPS1_P12ggml_contextEUlS1_xxxxE_ @3744
    _ZTIZN8T5Runner7computeEiP11ggml_tensorS1_PS1_P12ggml_contextEUlvE_ @3745
    _ZTIZN9LoraModel14load_from_fileEiNSt3__18functionIFbRKNS0_12basic_stringIcNS0_11char_traitsIcEENS0_9allocatorIcEEEEEEEEUlRK13TensorStoragePP11ggml_tensorE_ @3746
    _ZTIZN9LoraModel5applyENSt3__13mapINS0_12basic_stringIcNS0_11char_traitsIcEENS0_9allocatorIcEEEEP11ggml_tensorNS0_4lessIS7_EENS5_INS0_4pairIKS7_S9_EEEEEE9SDVersioniEUlvE_ @3747
    _ZTS10ControlNet @3748
    _ZTS10FinalLayer @3749
    _ZTS10FuseModule @3750
    _ZTS10GGMLRunner @3751
    _ZTS10JointBlock @3752
    _ZTS10MMDiTModel @3753
    _ZTS10MT19937RNG @3754
    _ZTS10PatchEmbed @3755
    _ZTS10UnaryBlock @3756
    _ZTS11CLIPEncoder @3757
    _ZTS11Conditioner @3758
    _ZTS11FeedForward @3759
    _ZTS11GroupNorm32 @3760
    _ZTS11LLMEmbedder @3761
    _ZTS11MMDiTRunner @3762
    _ZTS11MmapWrapper @3763
    _ZTS11ResnetBlock @3764
    _ZTS11T5Attention @3765
    _ZTS11T5LayerNorm @3766
    _ZTS11TinyDecoder @3767
    _ZTS11TinyEncoder @3768
    _ZTS11ZImageModel @3769
    _ZTS12AYSScheduler @3770
    _ZTS12AlphaBlender @3771
    _ZTS12EDMVDenoiser @3772
    _ZTS12LCMScheduler @3773
    _ZTS13AutoEncoderKL @3774
    _ZTS13CLIPTextModel @3775
    _ZTS13GITSScheduler @3776
    _ZTS13PMFeedForward @3777
    _ZTS13STDDefaultRNG @3778
    _ZTS13SelfAttention @3779
    _ZTS13UpSampleBlock @3780
    _ZTS13VideoResBlock @3781
    _ZTS13WeightAdapter @3782
    _ZTS14CLIPEmbeddings @3783
    _ZTS14CLIPProjection @3784
    _ZTS14CrossAttention @3785
    _ZTS14DiffusionModel @3786
    _ZTS14QwenImageModel @3787
    _ZTS14SigmaScheduler @3788
    _ZTS14T5CLIPEmbedder @3789
    _ZTS14UnetModelBlock @3790
    _ZTS14VectorEmbedder @3791
    _ZTS15CLIPVisionModel @3792
    _ZTS15CompVisDenoiser @3793
    _ZTS15ControlNetBlock @3794
    _ZTS15DismantledBlock @3795
    _ZTS15DownSampleBlock @3796
    _ZTS15KarrasScheduler @3797
    _ZTS15MmapWrapperImpl @3798
    _ZTS15SD3CLIPEmbedder @3799
    _ZTS15SimpleScheduler @3800
    _ZTS15TinyAutoEncoder @3801
    _ZTS15UNetModelRunner @3802
    _ZTS16CompVisVDenoiser @3803
    _ZTS16FluxCLIPEmbedder @3804
    _ZTS16FluxFlowDenoiser @3805
    _ZTS16MultiLoraAdapter @3806
    _ZTS16QFormerPerceiver @3807
    _ZTS16TimestepEmbedder @3808
    _ZTS16TinyVideoDecoder @3809
    _ZTS16TinyVideoEncoder @3810
    _ZTS16VideoResnetBlock @3811
    _ZTS17DiscreteScheduler @3812
    _ZTS17Flux2FlowDenoiser @3813
    _ZTS18AutoencodingEngine @3814
    _ZTS18KLOptimalScheduler @3815
    _ZTS18MultiheadAttention @3816
    _ZTS18PerceiverAttention @3817
    _ZTS18ResidualDenseBlock @3818
    _ZTS18SpatialTransformer @3819
    _ZTS19CLIPTextModelRunner @3820
    _ZTS19PhotoMakerIDEncoder @3821
    _ZTS19SGMUniformScheduler @3822
    _ZTS19SmoothStepScheduler @3823
    _ZTS20BongTangentScheduler @3824
    _ZTS20CLIPVisionEmbeddings @3825
    _ZTS20DiscreteFlowDenoiser @3826
    _ZTS20ExponentialScheduler @3827
    _ZTS20T5DenseGatedActDense @3828
    _ZTS20T5LayerSelfAttention @3829
    _ZTS20TinyImageAutoEncoder @3830
    _ZTS20TinyVideoAutoEncoder @3831
    _ZTS21BasicTransformerBlock @3832
    _ZTS22FacePerceiverResampler @3833
    _ZTS23SpatialVideoTransformer @3834
    _ZTS24FrozenCLIPVisionEmbedder @3835
    _ZTS24PhotoMakerIDEncoderBlock @3836
    _ZTS25CLIPVisionModelProjection @3837
    _ZTS2T5 @3838
    _ZTS33FrozenCLIPEmbedderWithCustomWords @3839
    _ZTS3Mlp @3840
    _ZTS3RNG @3841
    _ZTS3VAE @3842
    _ZTS4GELU @3843
    _ZTS4RRDB @3844
    _ZTS51PhotoMakerIDEncoder_CLIPInsightfaceExtendtokenBlock @3845
    _ZTS5GEGLU @3846
    _ZTS5MMDiT @3847
    _ZTS5TAEHV @3848
    _ZTS5TAESD @3849
    _ZTS5TGrow @3850
    _ZTS5TPool @3851
    _ZTS6Conv2d @3852
    _ZTS6Conv3d @3853
    _ZTS6ESRGAN @3854
    _ZTS6Linear @3855
    _ZTS7CLIPMLP @3856
    _ZTS7Decoder @3857
    _ZTS7Encoder @3858
    _ZTS7FakeVAE @3859
    _ZTS7RMSNorm @3860
    _ZTS7RRDBNet @3861
    _ZTS7T5Block @3862
    _ZTS7T5Stack @3863
    _ZTS8AE3DConv @3864
    _ZTS8Denoiser @3865
    _ZTS8Identity @3866
    _ZTS8MemBlock @3867
    _ZTS8ResBlock @3868
    _ZTS8T5Runner @3869
    _ZTS8TAEBlock @3870
    _ZTS8WanModel @3871
    _ZTS9AttnBlock @3872
    _ZTS9CLIPLayer @3873
    _ZTS9Embedding @3874
    _ZTS9FluxModel @3875
    _ZTS9FuseBlock @3876
    _ZTS9GGMLBlock @3877
    _ZTS9GroupNorm @3878
    _ZTS9LayerNorm @3879
    _ZTS9LoraModel @3880
    _ZTS9PhiloxRNG @3881
    _ZTS9T5LayerFF @3882
    _ZTS9UNetModel @3883
    _ZTSFviiP10sd_image_tbPvE @3884
    _ZTSN3LLM11PatchMergerE @3885
    _ZTSN3LLM11VisionBlockE @3886
    _ZTSN3LLM11VisionModelE @3887
    _ZTSN3LLM15VisionAttentionE @3888
    _ZTSN3LLM16TransformerBlockE @3889
    _ZTSN3LLM16VisionPatchEmbedE @3890
    _ZTSN3LLM3LLME @3891
    _ZTSN3LLM3MLPE @3892
    _ZTSN3LLM9AttentionE @3893
    _ZTSN3LLM9LLMRunnerE @3894
    _ZTSN3LLM9TextModelE @3895
    _ZTSN3WAN12CausalConv3dE @3896
    _ZTSN3WAN12WanVAERunnerE @3897
    _ZTSN3WAN13ResidualBlockE @3898
    _ZTSN3WAN14AttentionBlockE @3899
    _ZTSN3WAN16Up_ResidualBlockE @3900
    _ZTSN3WAN16WanSelfAttentionE @3901
    _ZTSN3WAN17WanAttentionBlockE @3902
    _ZTSN3WAN17WanCrossAttentionE @3903
    _ZTSN3WAN18Down_ResidualBlockE @3904
    _ZTSN3WAN20WanI2VCrossAttentionE @3905
    _ZTSN3WAN20WanT2VCrossAttentionE @3906
    _ZTSN3WAN21VaceWanAttentionBlockE @3907
    _ZTSN3WAN3WanE @3908
    _ZTSN3WAN4HeadE @3909
    _ZTSN3WAN6WanVAEE @3910
    _ZTSN3WAN7DupUp3DE @3911
    _ZTSN3WAN7MLPProjE @3912
    _ZTSN3WAN8RMS_normE @3913
    _ZTSN3WAN8ResampleE @3914
    _ZTSN3WAN9AvgDown3DE @3915
    _ZTSN3WAN9Decoder3dE @3916
    _ZTSN3WAN9Encoder3dE @3917
    _ZTSN3WAN9WanRunnerE @3918
    _ZTSN4Flux10FluxRunnerE @3919
    _ZTSN4Flux10ModulationE @3920
    _ZTSN4Flux11MLPEmbedderE @3921
    _ZTSN4Flux12NerfEmbedderE @3922
    _ZTSN4Flux12NerfGLUBlockE @3923
    _ZTSN4Flux13SelfAttentionE @3924
    _ZTSN4Flux17DoubleStreamBlockE @3925
    _ZTSN4Flux17SingleStreamBlockE @3926
    _ZTSN4Flux18ChromaApproximatorE @3927
    _ZTSN4Flux18NerfFinalLayerConvE @3928
    _ZTSN4Flux3MLPE @3929
    _ZTSN4Flux4FluxE @3930
    _ZTSN4Flux6QKNormE @3931
    _ZTSN4Flux6YakMLPE @3932
    _ZTSN4Flux7RMSNormE @3933
    _ZTSN4Flux9LastLayerE @3934
    _ZTSN4Qwen14QwenImageModelE @3935
    _ZTSN4Qwen15QwenImageRunnerE @3936
    _ZTSN4Qwen17TimestepEmbeddingE @3937
    _ZTSN4Qwen18QwenImageAttentionE @3938
    _ZTSN4Qwen22AdaLayerNormContinuousE @3939
    _ZTSN4Qwen25QwenImageTransformerBlockE @3940
    _ZTSN4Qwen26QwenTimestepProjEmbeddingsE @3941
    _ZTSN5Darts15DoubleArrayImplIvvivEE @3942
    _ZTSN5Darts7Details9ExceptionE @3943
    _ZTSN6ZImage10FinalLayerE @3944
    _ZTSN6ZImage11FeedForwardE @3945
    _ZTSN6ZImage11ZImageModelE @3946
    _ZTSN6ZImage12ZImageRunnerE @3947
    _ZTSN6ZImage14JointAttentionE @3948
    _ZTSN6ZImage21JointTransformerBlockE @3949
    _ZTSN8nlohmann16json_abi_v3_11_26detail10type_errorE @3950
    _ZTSN8nlohmann16json_abi_v3_11_26detail11parse_errorE @3951
    _ZTSN8nlohmann16json_abi_v3_11_26detail12out_of_rangeE @3952
    _ZTSN8nlohmann16json_abi_v3_11_26detail16invalid_iteratorE @3953
    _ZTSN8nlohmann16json_abi_v3_11_26detail9exceptionE @3954
    _ZTSNSt3__110__back_refIcEE @3955
    _ZTSNSt3__110__function6__baseIFP11ggml_cgraphvEEE @3956
    _ZTSNSt3__110__function6__baseIFP11ggml_tensorS3_fiEEE @3957
    _ZTSNSt3__110__function6__baseIFbRK13TensorStoragePP11ggml_tensorEEE @3958
    _ZTSNSt3__110__function6__baseIFbRKNS_12basic_stringIcNS_11char_traitsIcEENS_9allocatorIcEEEEEEE @3959
    _ZTSNSt3__110__function6__baseIFbRNS_12basic_stringIcNS_11char_traitsIcEENS_9allocatorIcEEEERNS_6vectorIiNS5_IiEEEEEEE @3960
    _ZTSNSt3__110__function6__baseIFffEEE @3961
    _ZTSNSt3__110__function6__baseIFvP11ggml_tensorS3_bEEE @3962
    _ZTSNSt3__110__function6__baseIFvP11ggml_tensorxxxxEEE @3963
    _ZTSNSt3__110__function6__baseIFviiP10sd_image_tbPvEEE @3964
    _ZTSNSt3__110__function6__funcINS_6__bindIM8DenoiserFffEJPS3_RKNS_12placeholders4__phILi1EEEEEENS_9allocatorISC_EEFffEEE @3965
    _ZTSNSt3__110__function6__funcIPFviiP10sd_image_tbPvENS_9allocatorIS6_EES5_EE @3966
    _ZTSNSt3__110__function6__funcIZN10ControlNet7computeEiP11ggml_tensorS4_S4_S4_S4_PS4_P12ggml_contextEUlvE_NS_9allocatorIS8_EEFP11ggml_cgraphvEEE @3967
    _ZTSNSt3__110__function6__funcIZN11LLMEmbedder21get_learned_conditionEP12ggml_contextiRK17ConditionerParamsEUlP11ggml_tensorxxxxE0_NS_9allocatorISA_EEFvS9_xxxxEEE @3968
    _ZTSNSt3__110__function6__funcIZN11LLMEmbedder21get_learned_conditionEP12ggml_contextiRK17ConditionerParamsEUlP11ggml_tensorxxxxE_NS_9allocatorISA_EEFvS9_xxxxEEE @3969
    _ZTSNSt3__110__function6__funcIZN11MMDiTRunner7computeEiP11ggml_tensorS4_S4_S4_PS4_P12ggml_contextNS_6vectorIiNS_9allocatorIiEEEEEUlvE_NS9_ISC_EEFP11ggml_cgraphvEEE @3970
    _ZTSNSt3__110__function6__funcIZN12UpscalerGGML7upscaleE10sd_image_tjEUlP11ggml_tensorS5_bE_NS_9allocatorIS6_EEFvS5_S5_bEEE @3971
    _ZTSNSt3__110__function6__funcIZN13AutoEncoderKL7computeEiP11ggml_tensorbPS4_P12ggml_contextEUlvE_NS_9allocatorIS8_EEFP11ggml_cgraphvEEE @3972
    _ZTSNSt3__110__function6__funcIZN15SD3CLIPEmbedder8tokenizeENS_12basic_stringIcNS_11char_traitsIcEENS_9allocatorIcEEEEybEUlRS8_RNS_6vectorIiNS6_IiEEEEE_NS6_ISE_EEFbS9_SD_EEE @3973
    _ZTSNSt3__110__function6__funcIZN15UNetModelRunner7computeEiP11ggml_tensorS4_S4_S4_S4_iNS_6vectorIS4_NS_9allocatorIS4_EEEEfPS4_P12ggml_contextEUlvE_NS6_ISC_EEFP11ggml_cgraphvEEE @3974
    _ZTSNSt3__110__function6__funcIZN16FluxCLIPEmbedder8tokenizeENS_12basic_stringIcNS_11char_traitsIcEENS_9allocatorIcEEEEybEUlRS8_RNS_6vectorIiNS6_IiEEEEE_NS6_ISE_EEFbS9_SD_EEE @3975
    _ZTSNSt3__110__function6__funcIZN19CLIPTextModelRunner7computeEiP11ggml_tensoriPvybiPS4_P12ggml_contextEUlvE_NS_9allocatorIS9_EEFP11ggml_cgraphvEEE @3976
    _ZTSNSt3__110__function6__funcIZN19PhotoMakerIDEncoder7computeEiP11ggml_tensorS4_S4_RNS_6vectorIbNS_9allocatorIbEEEEPS4_P12ggml_contextEUlvE_NS6_ISD_EEFP11ggml_cgraphvEEE @3977
    _ZTSNSt3__110__function6__funcIZN19StableDiffusionGGML10vae_encodeEP12ggml_contextP11ggml_tensorbEUlS6_S6_bE0_NS_9allocatorIS7_EEFvS6_S6_bEEE @3978
    _ZTSNSt3__110__function6__funcIZN19StableDiffusionGGML10vae_encodeEP12ggml_contextP11ggml_tensorbEUlS6_S6_bE_NS_9allocatorIS7_EEFvS6_S6_bEEE @3979
    _ZTSNSt3__110__function6__funcIZN19StableDiffusionGGML13preview_imageEP12ggml_contextiP11ggml_tensor9SDVersion9preview_tS6_NS_8functionIFviiP10sd_image_tbPvEEESC_bEUlS6_S6_bE0_NS_9allocatorISF_EEFvS6_S6_bEEE @3980
    _ZTSNSt3__110__function6__funcIZN19StableDiffusionGGML13preview_imageEP12ggml_contextiP11ggml_tensor9SDVersion9preview_tS6_NS_8functionIFviiP10sd_image_tbPvEEESC_bEUlS6_S6_bE_NS_9allocatorISF_EEFvS6_S6_bEEE @3981
    _ZTSNSt3__110__function6__funcIZN19StableDiffusionGGML17get_pmid_conditonEP12ggml_context14sd_pm_params_tR17ConditionerParamsEUlP11ggml_tensorxxxxE_NS_9allocatorISA_EEFvS9_xxxxEEE @3982
    _ZTSNSt3__110__function6__funcIZN19StableDiffusionGGML17process_latent_inEP11ggml_tensorEUlS4_xxxxE_NS_9allocatorIS5_EEFvS4_xxxxEEE @3983
    _ZTSNSt3__110__function6__funcIZN19StableDiffusionGGML18decode_first_stageEP12ggml_contextP11ggml_tensorbEUlS6_S6_bE0_NS_9allocatorIS7_EEFvS6_S6_bEEE @3984
    _ZTSNSt3__110__function6__funcIZN19StableDiffusionGGML18decode_first_stageEP12ggml_contextP11ggml_tensorbEUlS6_S6_bE_NS_9allocatorIS7_EEFvS6_S6_bEEE @3985
    _ZTSNSt3__110__function6__funcIZN19StableDiffusionGGML18process_latent_outEP11ggml_tensorEUlS4_xxxxE_NS_9allocatorIS5_EEFvS4_xxxxEEE @3986
    _ZTSNSt3__110__function6__funcIZN19StableDiffusionGGML22apply_loras_at_runtimeERKNS_13unordered_mapINS_12basic_stringIcNS_11char_traitsIcEENS_9allocatorIcEEEEfNS_4hashIS9_EENS_8equal_toIS9_EENS7_INS_4pairIKS9_fEEEEEEEUlRSF_E0_NS7_ISM_EE @3987
    _ZTSNSt3__110__function6__funcIZN19StableDiffusionGGML22apply_loras_at_runtimeERKNS_13unordered_mapINS_12basic_stringIcNS_11char_traitsIcEENS_9allocatorIcEEEEfNS_4hashIS9_EENS_8equal_toIS9_EENS7_INS_4pairIKS9_fEEEEEEEUlRSF_E1_NS7_ISM_EE @3988
    _ZTSNSt3__110__function6__funcIZN19StableDiffusionGGML22apply_loras_at_runtimeERKNS_13unordered_mapINS_12basic_stringIcNS_11char_traitsIcEENS_9allocatorIcEEEEfNS_4hashIS9_EENS_8equal_toIS9_EENS7_INS_4pairIKS9_fEEEEEEEUlRSF_E_NS7_ISM_EEF @3989
    _ZTSNSt3__110__function6__funcIZN19StableDiffusionGGML4initEPK15sd_ctx_params_tEUlRKNS_12basic_stringIcNS_11char_traitsIcEENS_9allocatorIcEEEEE_NS9_ISE_EEFbSD_EEE @3990
    _ZTSNSt3__110__function6__funcIZN19StableDiffusionGGML6sampleEP12ggml_contextNS_10shared_ptrI14DiffusionModelEEbP11ggml_tensorS9_11SDConditionSA_SA_S9_f20sd_guidance_params_tfi15sample_method_tRKNS_6vectorIfNS_9allocatorIfEEEEiSA_NSD_IS @3991
    _ZTSNSt3__110__function6__funcIZN20TinyImageAutoEncoder7computeEiP11ggml_tensorbPS4_P12ggml_contextEUlvE_NS_9allocatorIS8_EEFP11ggml_cgraphvEEE @3992
    _ZTSNSt3__110__function6__funcIZN20TinyVideoAutoEncoder7computeEiP11ggml_tensorbPS4_P12ggml_contextEUlvE_NS_9allocatorIS8_EEFP11ggml_cgraphvEEE @3993
    _ZTSNSt3__110__function6__funcIZN24FrozenCLIPVisionEmbedder7computeEiP11ggml_tensorbiPS4_P12ggml_contextEUlvE_NS_9allocatorIS8_EEFP11ggml_cgraphvEEE @3994
    _ZTSNSt3__110__function6__funcIZN33FrozenCLIPEmbedderWithCustomWords14load_embeddingENS_12basic_stringIcNS_11char_traitsIcEENS_9allocatorIcEEEES8_RNS_6vectorIiNS6_IiEEEEEUlRK13TensorStoragePP11ggml_tensorE_NS6_ISJ_EEFbSF_SI_EEE @3995
    _ZTSNSt3__110__function6__funcIZN33FrozenCLIPEmbedderWithCustomWords19convert_token_to_idENS_12basic_stringIcNS_11char_traitsIcEENS_9allocatorIcEEEEEUlRS8_RNS_6vectorIiNS6_IiEEEEE_NS6_ISE_EEFbS9_SD_EEE @3996
    _ZTSNSt3__110__function6__funcIZN33FrozenCLIPEmbedderWithCustomWords27tokenize_with_trigger_tokenENS_12basic_stringIcNS_11char_traitsIcEENS_9allocatorIcEEEEiiybEUlRS8_RNS_6vectorIiNS6_IiEEEEE_NS6_ISE_EEFbS9_SD_EEE @3997
    _ZTSNSt3__110__function6__funcIZN33FrozenCLIPEmbedderWithCustomWords8tokenizeENS_12basic_stringIcNS_11char_traitsIcEENS_9allocatorIcEEEEybEUlRS8_RNS_6vectorIiNS6_IiEEEEE_NS6_ISE_EEFbS9_SD_EEE @3998
    _ZTSNSt3__110__function6__funcIZN3LLM9LLMRunner12encode_imageEiP11ggml_tensorPS5_P12ggml_contextEUlvE_NS_9allocatorIS9_EEFP11ggml_cgraphvEEE @3999
    _ZTSNSt3__110__function6__funcIZN3LLM9LLMRunner7computeEiP11ggml_tensorS5_NS_6vectorINS_4pairIiS5_EENS_9allocatorIS8_EEEENS_3setIiNS_4lessIiEENS9_IiEEEEPS5_P12ggml_contextEUlvE_NS9_ISK_EEFP11ggml_cgraphvEEE @4000
    _ZTSNSt3__110__function6__funcIZN3WAN12WanVAERunner7computeEiP11ggml_tensorbPS5_P12ggml_contextEUlvE_NS_9allocatorIS9_EEFP11ggml_cgraphvEEE @4001
    _ZTSNSt3__110__function6__funcIZN3WAN9WanRunner7computeEiP11ggml_tensorS5_S5_S5_S5_S5_S5_fPS5_P12ggml_contextEUlvE_NS_9allocatorIS9_EEFP11ggml_cgraphvEEE @4002
    _ZTSNSt3__110__function6__funcIZN4Flux10FluxRunner7computeEiP11ggml_tensorS5_S5_S5_S5_S5_NS_6vectorIS5_NS_9allocatorIS5_EEEEbPS5_P12ggml_contextNS6_IiNS7_IiEEEEEUlvE_NS7_ISF_EEFP11ggml_cgraphvEEE @4003
    _ZTSNSt3__110__function6__funcIZN4Qwen15QwenImageRunner7computeEiP11ggml_tensorS5_S5_NS_6vectorIS5_NS_9allocatorIS5_EEEEbPS5_P12ggml_contextEUlvE_NS7_ISD_EEFP11ggml_cgraphvEEE @4004
    _ZTSNSt3__110__function6__funcIZN6ESRGAN7computeEiP11ggml_tensorPS4_P12ggml_contextEUlvE_NS_9allocatorIS8_EEFP11ggml_cgraphvEEE @4005
    _ZTSNSt3__110__function6__funcIZN6ZImage12ZImageRunner7computeEiP11ggml_tensorS5_S5_NS_6vectorIS5_NS_9allocatorIS5_EEEEbPS5_P12ggml_contextEUlvE_NS7_ISD_EEFP11ggml_cgraphvEEE @4006
    _ZTSNSt3__110__function6__funcIZN7FakeVAE7computeEiP11ggml_tensorbPS4_P12ggml_contextEUlS4_xxxxE_NS_9allocatorIS8_EEFvS4_xxxxEEE @4007
    _ZTSNSt3__110__function6__funcIZN8T5Runner7computeEiP11ggml_tensorS4_PS4_P12ggml_contextEUlvE_NS_9allocatorIS8_EEFP11ggml_cgraphvEEE @4008
    _ZTSNSt3__110__function6__funcIZN9LoraModel14load_from_fileEiNS_8functionIFbRKNS_12basic_stringIcNS_11char_traitsIcEENS_9allocatorIcEEEEEEEEUlRK13TensorStoragePP11ggml_tensorE_NS7_ISK_EEFbSG_SJ_EEE @4009
    _ZTSNSt3__110__function6__funcIZN9LoraModel5applyENS_3mapINS_12basic_stringIcNS_11char_traitsIcEENS_9allocatorIcEEEEP11ggml_tensorNS_4lessIS9_EENS7_INS_4pairIKS9_SB_EEEEEE9SDVersioniEUlvE_NS7_ISK_EEFP11ggml_cgraphvEEE @4010
    _ZTSNSt3__110shared_ptrI9GGMLBlockE27__shared_ptr_default_deleteIS1_10FinalLayerEE @4011
    _ZTSNSt3__110shared_ptrI9GGMLBlockE27__shared_ptr_default_deleteIS1_10FuseModuleEE @4012
    _ZTSNSt3__110shared_ptrI9GGMLBlockE27__shared_ptr_default_deleteIS1_10JointBlockEE @4013
    _ZTSNSt3__110shared_ptrI9GGMLBlockE27__shared_ptr_default_deleteIS1_10PatchEmbedEE @4014
    _ZTSNSt3__110shared_ptrI9GGMLBlockE27__shared_ptr_default_deleteIS1_11CLIPEncoderEE @4015
    _ZTSNSt3__110shared_ptrI9GGMLBlockE27__shared_ptr_default_deleteIS1_11FeedForwardEE @4016
    _ZTSNSt3__110shared_ptrI9GGMLBlockE27__shared_ptr_default_deleteIS1_11GroupNorm32EE @4017
    _ZTSNSt3__110shared_ptrI9GGMLBlockE27__shared_ptr_default_deleteIS1_11ResnetBlockEE @4018
    _ZTSNSt3__110shared_ptrI9GGMLBlockE27__shared_ptr_default_deleteIS1_11T5AttentionEE @4019
    _ZTSNSt3__110shared_ptrI9GGMLBlockE27__shared_ptr_default_deleteIS1_11T5LayerNormEE @4020
    _ZTSNSt3__110shared_ptrI9GGMLBlockE27__shared_ptr_default_deleteIS1_11TinyDecoderEE @4021
    _ZTSNSt3__110shared_ptrI9GGMLBlockE27__shared_ptr_default_deleteIS1_11TinyEncoderEE @4022
    _ZTSNSt3__110shared_ptrI9GGMLBlockE27__shared_ptr_default_deleteIS1_12AlphaBlenderEE @4023
    _ZTSNSt3__110shared_ptrI9GGMLBlockE27__shared_ptr_default_deleteIS1_13PMFeedForwardEE @4024
    _ZTSNSt3__110shared_ptrI9GGMLBlockE27__shared_ptr_default_deleteIS1_13SelfAttentionEE @4025
    _ZTSNSt3__110shared_ptrI9GGMLBlockE27__shared_ptr_default_deleteIS1_13UpSampleBlockEE @4026
    _ZTSNSt3__110shared_ptrI9GGMLBlockE27__shared_ptr_default_deleteIS1_14CLIPEmbeddingsEE @4027
    _ZTSNSt3__110shared_ptrI9GGMLBlockE27__shared_ptr_default_deleteIS1_14CLIPProjectionEE @4028
    _ZTSNSt3__110shared_ptrI9GGMLBlockE27__shared_ptr_default_deleteIS1_14CrossAttentionEE @4029
    _ZTSNSt3__110shared_ptrI9GGMLBlockE27__shared_ptr_default_deleteIS1_14VectorEmbedderEE @4030
    _ZTSNSt3__110shared_ptrI9GGMLBlockE27__shared_ptr_default_deleteIS1_15CLIPVisionModelEE @4031
    _ZTSNSt3__110shared_ptrI9GGMLBlockE27__shared_ptr_default_deleteIS1_15DismantledBlockEE @4032
    _ZTSNSt3__110shared_ptrI9GGMLBlockE27__shared_ptr_default_deleteIS1_15DownSampleBlockEE @4033
    _ZTSNSt3__110shared_ptrI9GGMLBlockE27__shared_ptr_default_deleteIS1_16QFormerPerceiverEE @4034
    _ZTSNSt3__110shared_ptrI9GGMLBlockE27__shared_ptr_default_deleteIS1_16TimestepEmbedderEE @4035
    _ZTSNSt3__110shared_ptrI9GGMLBlockE27__shared_ptr_default_deleteIS1_16TinyVideoDecoderEE @4036
    _ZTSNSt3__110shared_ptrI9GGMLBlockE27__shared_ptr_default_deleteIS1_16TinyVideoEncoderEE @4037
    _ZTSNSt3__110shared_ptrI9GGMLBlockE27__shared_ptr_default_deleteIS1_16VideoResnetBlockEE @4038
    _ZTSNSt3__110shared_ptrI9GGMLBlockE27__shared_ptr_default_deleteIS1_18MultiheadAttentionEE @4039
    _ZTSNSt3__110shared_ptrI9GGMLBlockE27__shared_ptr_default_deleteIS1_18PerceiverAttentionEE @4040
    _ZTSNSt3__110shared_ptrI9GGMLBlockE27__shared_ptr_default_deleteIS1_18ResidualDenseBlockEE @4041
    _ZTSNSt3__110shared_ptrI9GGMLBlockE27__shared_ptr_default_deleteIS1_18SpatialTransformerEE @4042
    _ZTSNSt3__110shared_ptrI9GGMLBlockE27__shared_ptr_default_deleteIS1_20CLIPVisionEmbeddingsEE @4043
    _ZTSNSt3__110shared_ptrI9GGMLBlockE27__shared_ptr_default_deleteIS1_20T5DenseGatedActDenseEE @4044
    _ZTSNSt3__110shared_ptrI9GGMLBlockE27__shared_ptr_default_deleteIS1_20T5LayerSelfAttentionEE @4045
    _ZTSNSt3__110shared_ptrI9GGMLBlockE27__shared_ptr_default_deleteIS1_21BasicTransformerBlockEE @4046
    _ZTSNSt3__110shared_ptrI9GGMLBlockE27__shared_ptr_default_deleteIS1_22FacePerceiverResamplerEE @4047
    _ZTSNSt3__110shared_ptrI9GGMLBlockE27__shared_ptr_default_deleteIS1_3MlpEE @4048
    _ZTSNSt3__110shared_ptrI9GGMLBlockE27__shared_ptr_default_deleteIS1_4GELUEE @4049
    _ZTSNSt3__110shared_ptrI9GGMLBlockE27__shared_ptr_default_deleteIS1_4RRDBEE @4050
    _ZTSNSt3__110shared_ptrI9GGMLBlockE27__shared_ptr_default_deleteIS1_5GEGLUEE @4051
    _ZTSNSt3__110shared_ptrI9GGMLBlockE27__shared_ptr_default_deleteIS1_5TGrowEE @4052
    _ZTSNSt3__110shared_ptrI9GGMLBlockE27__shared_ptr_default_deleteIS1_5TPoolEE @4053
    _ZTSNSt3__110shared_ptrI9GGMLBlockE27__shared_ptr_default_deleteIS1_6Conv2dEE @4054
    _ZTSNSt3__110shared_ptrI9GGMLBlockE27__shared_ptr_default_deleteIS1_6Conv3dEE @4055
    _ZTSNSt3__110shared_ptrI9GGMLBlockE27__shared_ptr_default_deleteIS1_6LinearEE @4056
    _ZTSNSt3__110shared_ptrI9GGMLBlockE27__shared_ptr_default_deleteIS1_7CLIPMLPEE @4057
    _ZTSNSt3__110shared_ptrI9GGMLBlockE27__shared_ptr_default_deleteIS1_7DecoderEE @4058
    _ZTSNSt3__110shared_ptrI9GGMLBlockE27__shared_ptr_default_deleteIS1_7EncoderEE @4059
    _ZTSNSt3__110shared_ptrI9GGMLBlockE27__shared_ptr_default_deleteIS1_7RMSNormEE @4060
    _ZTSNSt3__110shared_ptrI9GGMLBlockE27__shared_ptr_default_deleteIS1_7T5BlockEE @4061
    _ZTSNSt3__110shared_ptrI9GGMLBlockE27__shared_ptr_default_deleteIS1_7T5StackEE @4062
    _ZTSNSt3__110shared_ptrI9GGMLBlockE27__shared_ptr_default_deleteIS1_8AE3DConvEE @4063
    _ZTSNSt3__110shared_ptrI9GGMLBlockE27__shared_ptr_default_deleteIS1_8IdentityEE @4064
    _ZTSNSt3__110shared_ptrI9GGMLBlockE27__shared_ptr_default_deleteIS1_8MemBlockEE @4065
    _ZTSNSt3__110shared_ptrI9GGMLBlockE27__shared_ptr_default_deleteIS1_8ResBlockEE @4066
    _ZTSNSt3__110shared_ptrI9GGMLBlockE27__shared_ptr_default_deleteIS1_8TAEBlockEE @4067
    _ZTSNSt3__110shared_ptrI9GGMLBlockE27__shared_ptr_default_deleteIS1_9AttnBlockEE @4068
    _ZTSNSt3__110shared_ptrI9GGMLBlockE27__shared_ptr_default_deleteIS1_9CLIPLayerEE @4069
    _ZTSNSt3__110shared_ptrI9GGMLBlockE27__shared_ptr_default_deleteIS1_9EmbeddingEE @4070
    _ZTSNSt3__110shared_ptrI9GGMLBlockE27__shared_ptr_default_deleteIS1_9FuseBlockEE @4071
    _ZTSNSt3__110shared_ptrI9GGMLBlockE27__shared_ptr_default_deleteIS1_9GroupNormEE @4072
    _ZTSNSt3__110shared_ptrI9GGMLBlockE27__shared_ptr_default_deleteIS1_9LayerNormEE @4073
    _ZTSNSt3__110shared_ptrI9GGMLBlockE27__shared_ptr_default_deleteIS1_9T5LayerFFEE @4074
    _ZTSNSt3__110shared_ptrI9GGMLBlockE27__shared_ptr_default_deleteIS1_N3LLM11PatchMergerEEE @4075
    _ZTSNSt3__110shared_ptrI9GGMLBlockE27__shared_ptr_default_deleteIS1_N3LLM11VisionBlockEEE @4076
    _ZTSNSt3__110shared_ptrI9GGMLBlockE27__shared_ptr_default_deleteIS1_N3LLM11VisionModelEEE @4077
    _ZTSNSt3__110shared_ptrI9GGMLBlockE27__shared_ptr_default_deleteIS1_N3LLM15VisionAttentionEEE @4078
    _ZTSNSt3__110shared_ptrI9GGMLBlockE27__shared_ptr_default_deleteIS1_N3LLM16TransformerBlockEEE @4079
    _ZTSNSt3__110shared_ptrI9GGMLBlockE27__shared_ptr_default_deleteIS1_N3LLM16VisionPatchEmbedEEE @4080
    _ZTSNSt3__110shared_ptrI9GGMLBlockE27__shared_ptr_default_deleteIS1_N3LLM3MLPEEE @4081
    _ZTSNSt3__110shared_ptrI9GGMLBlockE27__shared_ptr_default_deleteIS1_N3LLM9TextModelEEE @4082
    _ZTSNSt3__110shared_ptrI9GGMLBlockE27__shared_ptr_default_deleteIS1_N3WAN12CausalConv3dEEE @4083
    _ZTSNSt3__110shared_ptrI9GGMLBlockE27__shared_ptr_default_deleteIS1_N3WAN13ResidualBlockEEE @4084
    _ZTSNSt3__110shared_ptrI9GGMLBlockE27__shared_ptr_default_deleteIS1_N3WAN14AttentionBlockEEE @4085
    _ZTSNSt3__110shared_ptrI9GGMLBlockE27__shared_ptr_default_deleteIS1_N3WAN16Up_ResidualBlockEEE @4086
    _ZTSNSt3__110shared_ptrI9GGMLBlockE27__shared_ptr_default_deleteIS1_N3WAN16WanSelfAttentionEEE @4087
    _ZTSNSt3__110shared_ptrI9GGMLBlockE27__shared_ptr_default_deleteIS1_N3WAN17WanAttentionBlockEEE @4088
    _ZTSNSt3__110shared_ptrI9GGMLBlockE27__shared_ptr_default_deleteIS1_N3WAN18Down_ResidualBlockEEE @4089
    _ZTSNSt3__110shared_ptrI9GGMLBlockE27__shared_ptr_default_deleteIS1_N3WAN20WanI2VCrossAttentionEEE @4090
    _ZTSNSt3__110shared_ptrI9GGMLBlockE27__shared_ptr_default_deleteIS1_N3WAN20WanT2VCrossAttentionEEE @4091
    _ZTSNSt3__110shared_ptrI9GGMLBlockE27__shared_ptr_default_deleteIS1_N3WAN21VaceWanAttentionBlockEEE @4092
    _ZTSNSt3__110shared_ptrI9GGMLBlockE27__shared_ptr_default_deleteIS1_N3WAN4HeadEEE @4093
    _ZTSNSt3__110shared_ptrI9GGMLBlockE27__shared_ptr_default_deleteIS1_N3WAN7DupUp3DEEE @4094
    _ZTSNSt3__110shared_ptrI9GGMLBlockE27__shared_ptr_default_deleteIS1_N3WAN7MLPProjEEE @4095
    _ZTSNSt3__110shared_ptrI9GGMLBlockE27__shared_ptr_default_deleteIS1_N3WAN8RMS_normEEE @4096
    _ZTSNSt3__110shared_ptrI9GGMLBlockE27__shared_ptr_default_deleteIS1_N3WAN8ResampleEEE @4097
    _ZTSNSt3__110shared_ptrI9GGMLBlockE27__shared_ptr_default_deleteIS1_N3WAN9AvgDown3DEEE @4098
    _ZTSNSt3__110shared_ptrI9GGMLBlockE27__shared_ptr_default_deleteIS1_N3WAN9Decoder3dEEE @4099
    _ZTSNSt3__110shared_ptrI9GGMLBlockE27__shared_ptr_default_deleteIS1_N3WAN9Encoder3dEEE @4100
    _ZTSNSt3__110shared_ptrI9GGMLBlockE27__shared_ptr_default_deleteIS1_N4Flux10ModulationEEE @4101
    _ZTSNSt3__110shared_ptrI9GGMLBlockE27__shared_ptr_default_deleteIS1_N4Flux11MLPEmbedderEEE @4102
    _ZTSNSt3__110shared_ptrI9GGMLBlockE27__shared_ptr_default_deleteIS1_N4Flux13SelfAttentionEEE @4103
    _ZTSNSt3__110shared_ptrI9GGMLBlockE27__shared_ptr_default_deleteIS1_N4Flux3MLPEEE @4104
    _ZTSNSt3__110shared_ptrI9GGMLBlockE27__shared_ptr_default_deleteIS1_N4Flux6QKNormEEE @4105
    _ZTSNSt3__110shared_ptrI9GGMLBlockE27__shared_ptr_default_deleteIS1_N4Flux6YakMLPEEE @4106
    _ZTSNSt3__110shared_ptrI9GGMLBlockE27__shared_ptr_default_deleteIS1_N4Flux7RMSNormEEE @4107
    _ZTSNSt3__110shared_ptrI9GGMLBlockE27__shared_ptr_default_deleteIS1_N4Qwen17TimestepEmbeddingEEE @4108
    _ZTSNSt3__110shared_ptrI9GGMLBlockE27__shared_ptr_default_deleteIS1_N4Qwen18QwenImageAttentionEEE @4109
    _ZTSNSt3__110shared_ptrI9GGMLBlockE27__shared_ptr_default_deleteIS1_N4Qwen22AdaLayerNormContinuousEEE @4110
    _ZTSNSt3__110shared_ptrI9GGMLBlockE27__shared_ptr_default_deleteIS1_N4Qwen25QwenImageTransformerBlockEEE @4111
    _ZTSNSt3__110shared_ptrI9GGMLBlockE27__shared_ptr_default_deleteIS1_N4Qwen26QwenTimestepProjEmbeddingsEEE @4112
    _ZTSNSt3__110shared_ptrINS_13__empty_stateIcEEE27__shared_ptr_default_deleteIS2_S2_EE @4113
    _ZTSNSt3__111__alternateIcEE @4114
    _ZTSNSt3__111__end_stateIcEE @4115
    _ZTSNSt3__111__lookaheadIcNS_12regex_traitsIcEEEE @4116
    _ZTSNSt3__111__match_anyIcEE @4117
    _ZTSNSt3__111regex_errorE @4118
    _ZTSNSt3__112__match_charIcEE @4119
    _ZTSNSt3__112codecvt_baseE @4120
    _ZTSNSt3__112codecvt_utf8IDiLm1114111ELNS_12codecvt_modeE0EEE @4121
    _ZTSNSt3__113__empty_stateIcEE @4122
    _ZTSNSt3__113basic_filebufIcNS_11char_traitsIcEEEE @4123
    _ZTSNSt3__113basic_istreamIcNS_11char_traitsIcEEEE @4124
    _ZTSNSt3__113basic_ostreamIcNS_11char_traitsIcEEEE @4125
    _ZTSNSt3__114__codecvt_utf8IDiEE @4126
    _ZTSNSt3__114__shared_countE @4127
    _ZTSNSt3__114basic_ifstreamIcNS_11char_traitsIcEEEE @4128
    _ZTSNSt3__114basic_iostreamIcNS_11char_traitsIcEEEE @4129
    _ZTSNSt3__115__has_one_stateIcEE @4130
    _ZTSNSt3__115__word_boundaryIcNS_12regex_traitsIcEEEE @4131
    _ZTSNSt3__115basic_streambufIcNS_11char_traitsIcEEEE @4132
    _ZTSNSt3__115basic_stringbufIcNS_11char_traitsIcEENS_9allocatorIcEEEE @4133
    _ZTSNSt3__116__back_ref_icaseIcNS_12regex_traitsIcEEEE @4134
    _ZTSNSt3__116__owns_one_stateIcEE @4135
    _ZTSNSt3__117__owns_two_statesIcEE @4136
    _ZTSNSt3__117__repeat_one_loopIcEE @4137
    _ZTSNSt3__117bad_function_callE @4138
    _ZTSNSt3__118__back_ref_collateIcNS_12regex_traitsIcEEEE @4139
    _ZTSNSt3__118__match_char_icaseIcNS_12regex_traitsIcEEEE @4140
    _ZTSNSt3__118__weak_result_typeIM8DenoiserFffEEE @4141
    _ZTSNSt3__118basic_stringstreamIcNS_11char_traitsIcEENS_9allocatorIcEEEE @4142
    _ZTSNSt3__119__shared_weak_countE @4143
    _ZTSNSt3__119basic_ostringstreamIcNS_11char_traitsIcEENS_9allocatorIcEEEE @4144
    _ZTSNSt3__120__bracket_expressionIcNS_12regex_traitsIcEEEE @4145
    _ZTSNSt3__120__l_anchor_multilineIcEE @4146
    _ZTSNSt3__120__match_char_collateIcNS_12regex_traitsIcEEEE @4147
    _ZTSNSt3__120__r_anchor_multilineIcEE @4148
    _ZTSNSt3__120__shared_ptr_emplaceI10ControlNetNS_9allocatorIS1_EEEE @4149
    _ZTSNSt3__120__shared_ptr_emplaceI10MMDiTModelNS_9allocatorIS1_EEEE @4150
    _ZTSNSt3__120__shared_ptr_emplaceI10MT19937RNGNS_9allocatorIS1_EEEE @4151
    _ZTSNSt3__120__shared_ptr_emplaceI11LLMEmbedderNS_9allocatorIS1_EEEE @4152
    _ZTSNSt3__120__shared_ptr_emplaceI11ZImageModelNS_9allocatorIS1_EEEE @4153
    _ZTSNSt3__120__shared_ptr_emplaceI12AYSSchedulerNS_9allocatorIS1_EEEE @4154
    _ZTSNSt3__120__shared_ptr_emplaceI12EDMVDenoiserNS_9allocatorIS1_EEEE @4155
    _ZTSNSt3__120__shared_ptr_emplaceI12LCMSchedulerNS_9allocatorIS1_EEEE @4156
    _ZTSNSt3__120__shared_ptr_emplaceI13AutoEncoderKLNS_9allocatorIS1_EEEE @4157
    _ZTSNSt3__120__shared_ptr_emplaceI13GITSSchedulerNS_9allocatorIS1_EEEE @4158
    _ZTSNSt3__120__shared_ptr_emplaceI13STDDefaultRNGNS_9allocatorIS1_EEEE @4159
    _ZTSNSt3__120__shared_ptr_emplaceI14QwenImageModelNS_9allocatorIS1_EEEE @4160
    _ZTSNSt3__120__shared_ptr_emplaceI14T5CLIPEmbedderNS_9allocatorIS1_EEEE @4161
    _ZTSNSt3__120__shared_ptr_emplaceI15CompVisDenoiserNS_9allocatorIS1_EEEE @4162
    _ZTSNSt3__120__shared_ptr_emplaceI15KarrasSchedulerNS_9allocatorIS1_EEEE @4163
    _ZTSNSt3__120__shared_ptr_emplaceI15SD3CLIPEmbedderNS_9allocatorIS1_EEEE @4164
    _ZTSNSt3__120__shared_ptr_emplaceI15SimpleSchedulerNS_9allocatorIS1_EEEE @4165
    _ZTSNSt3__120__shared_ptr_emplaceI16CompVisVDenoiserNS_9allocatorIS1_EEEE @4166
    _ZTSNSt3__120__shared_ptr_emplaceI16FluxCLIPEmbedderNS_9allocatorIS1_EEEE @4167
    _ZTSNSt3__120__shared_ptr_emplaceI16FluxFlowDenoiserNS_9allocatorIS1_EEEE @4168
    _ZTSNSt3__120__shared_ptr_emplaceI16MultiLoraAdapterNS_9allocatorIS1_EEEE @4169
    _ZTSNSt3__120__shared_ptr_emplaceI16TimestepEmbedderNS_9allocatorIS1_EEEE @4170
    _ZTSNSt3__120__shared_ptr_emplaceI17DiscreteSchedulerNS_9allocatorIS1_EEEE @4171
    _ZTSNSt3__120__shared_ptr_emplaceI17Flux2FlowDenoiserNS_9allocatorIS1_EEEE @4172
    _ZTSNSt3__120__shared_ptr_emplaceI18KLOptimalSchedulerNS_9allocatorIS1_EEEE @4173
    _ZTSNSt3__120__shared_ptr_emplaceI19CLIPTextModelRunnerNS_9allocatorIS1_EEEE @4174
    _ZTSNSt3__120__shared_ptr_emplaceI19PhotoMakerIDEncoderNS_9allocatorIS1_EEEE @4175
    _ZTSNSt3__120__shared_ptr_emplaceI19SGMUniformSchedulerNS_9allocatorIS1_EEEE @4176
    _ZTSNSt3__120__shared_ptr_emplaceI19SmoothStepSchedulerNS_9allocatorIS1_EEEE @4177
    _ZTSNSt3__120__shared_ptr_emplaceI20BongTangentSchedulerNS_9allocatorIS1_EEEE @4178
    _ZTSNSt3__120__shared_ptr_emplaceI20DiscreteFlowDenoiserNS_9allocatorIS1_EEEE @4179
    _ZTSNSt3__120__shared_ptr_emplaceI20ExponentialSchedulerNS_9allocatorIS1_EEEE @4180
    _ZTSNSt3__120__shared_ptr_emplaceI20TinyImageAutoEncoderNS_9allocatorIS1_EEEE @4181
    _ZTSNSt3__120__shared_ptr_emplaceI20TinyVideoAutoEncoderNS_9allocatorIS1_EEEE @4182
    _ZTSNSt3__120__shared_ptr_emplaceI24FrozenCLIPVisionEmbedderNS_9allocatorIS1_EEEE @4183
    _ZTSNSt3__120__shared_ptr_emplaceI33FrozenCLIPEmbedderWithCustomWordsNS_9allocatorIS1_EEEE @4184
    _ZTSNSt3__120__shared_ptr_emplaceI6Conv2dNS_9allocatorIS1_EEEE @4185
    _ZTSNSt3__120__shared_ptr_emplaceI6ESRGANNS_9allocatorIS1_EEEE @4186
    _ZTSNSt3__120__shared_ptr_emplaceI6LinearNS_9allocatorIS1_EEEE @4187
    _ZTSNSt3__120__shared_ptr_emplaceI7FakeVAENS_9allocatorIS1_EEEE @4188
    _ZTSNSt3__120__shared_ptr_emplaceI7RMSNormNS_9allocatorIS1_EEEE @4189
    _ZTSNSt3__120__shared_ptr_emplaceI8T5RunnerNS_9allocatorIS1_EEEE @4190
    _ZTSNSt3__120__shared_ptr_emplaceI8WanModelNS_9allocatorIS1_EEEE @4191
    _ZTSNSt3__120__shared_ptr_emplaceI9FluxModelNS_9allocatorIS1_EEEE @4192
    _ZTSNSt3__120__shared_ptr_emplaceI9LayerNormNS_9allocatorIS1_EEEE @4193
    _ZTSNSt3__120__shared_ptr_emplaceI9LoraModelNS_9allocatorIS1_EEEE @4194
    _ZTSNSt3__120__shared_ptr_emplaceI9PhiloxRNGNS_9allocatorIS1_EEEE @4195
    _ZTSNSt3__120__shared_ptr_emplaceI9UNetModelNS_9allocatorIS1_EEEE @4196
    _ZTSNSt3__120__shared_ptr_emplaceIN3LLM14Qwen2TokenizerENS_9allocatorIS2_EEEE @4197
    _ZTSNSt3__120__shared_ptr_emplaceIN3LLM16MistralTokenizerENS_9allocatorIS2_EEEE @4198
    _ZTSNSt3__120__shared_ptr_emplaceIN3LLM3MLPENS_9allocatorIS2_EEEE @4199
    _ZTSNSt3__120__shared_ptr_emplaceIN3LLM9AttentionENS_9allocatorIS2_EEEE @4200
    _ZTSNSt3__120__shared_ptr_emplaceIN3LLM9LLMRunnerENS_9allocatorIS2_EEEE @4201
    _ZTSNSt3__120__shared_ptr_emplaceIN3WAN12WanVAERunnerENS_9allocatorIS2_EEEE @4202
    _ZTSNSt3__120__shared_ptr_emplaceIN4Flux10ModulationENS_9allocatorIS2_EEEE @4203
    _ZTSNSt3__120__shared_ptr_emplaceIN4Flux11MLPEmbedderENS_9allocatorIS2_EEEE @4204
    _ZTSNSt3__120__shared_ptr_emplaceIN4Flux12NerfEmbedderENS_9allocatorIS2_EEEE @4205
    _ZTSNSt3__120__shared_ptr_emplaceIN4Flux12NerfGLUBlockENS_9allocatorIS2_EEEE @4206
    _ZTSNSt3__120__shared_ptr_emplaceIN4Flux17DoubleStreamBlockENS_9allocatorIS2_EEEE @4207
    _ZTSNSt3__120__shared_ptr_emplaceIN4Flux17SingleStreamBlockENS_9allocatorIS2_EEEE @4208
    _ZTSNSt3__120__shared_ptr_emplaceIN4Flux18ChromaApproximatorENS_9allocatorIS2_EEEE @4209
    _ZTSNSt3__120__shared_ptr_emplaceIN4Flux18NerfFinalLayerConvENS_9allocatorIS2_EEEE @4210
    _ZTSNSt3__120__shared_ptr_emplaceIN4Flux7RMSNormENS_9allocatorIS2_EEEE @4211
    _ZTSNSt3__120__shared_ptr_emplaceIN4Flux9LastLayerENS_9allocatorIS2_EEEE @4212
    _ZTSNSt3__120__shared_ptr_emplaceIN6ZImage10FinalLayerENS_9allocatorIS2_EEEE @4213
    _ZTSNSt3__120__shared_ptr_emplaceIN6ZImage11FeedForwardENS_9allocatorIS2_EEEE @4214
    _ZTSNSt3__120__shared_ptr_emplaceIN6ZImage14JointAttentionENS_9allocatorIS2_EEEE @4215
    _ZTSNSt3__120__shared_ptr_emplaceIN6ZImage21JointTransformerBlockENS_9allocatorIS2_EEEE @4216
    _ZTSNSt3__120__shared_ptr_pointerIP10FinalLayerNS_10shared_ptrI9GGMLBlockE27__shared_ptr_default_deleteIS4_S1_EENS_9allocatorIS1_EEEE @4217
    _ZTSNSt3__120__shared_ptr_pointerIP10FuseModuleNS_10shared_ptrI9GGMLBlockE27__shared_ptr_default_deleteIS4_S1_EENS_9allocatorIS1_EEEE @4218
    _ZTSNSt3__120__shared_ptr_pointerIP10JointBlockNS_10shared_ptrI9GGMLBlockE27__shared_ptr_default_deleteIS4_S1_EENS_9allocatorIS1_EEEE @4219
    _ZTSNSt3__120__shared_ptr_pointerIP10PatchEmbedNS_10shared_ptrI9GGMLBlockE27__shared_ptr_default_deleteIS4_S1_EENS_9allocatorIS1_EEEE @4220
    _ZTSNSt3__120__shared_ptr_pointerIP11CLIPEncoderNS_10shared_ptrI9GGMLBlockE27__shared_ptr_default_deleteIS4_S1_EENS_9allocatorIS1_EEEE @4221
    _ZTSNSt3__120__shared_ptr_pointerIP11FeedForwardNS_10shared_ptrI9GGMLBlockE27__shared_ptr_default_deleteIS4_S1_EENS_9allocatorIS1_EEEE @4222
    _ZTSNSt3__120__shared_ptr_pointerIP11GroupNorm32NS_10shared_ptrI9GGMLBlockE27__shared_ptr_default_deleteIS4_S1_EENS_9allocatorIS1_EEEE @4223
    _ZTSNSt3__120__shared_ptr_pointerIP11ResnetBlockNS_10shared_ptrI9GGMLBlockE27__shared_ptr_default_deleteIS4_S1_EENS_9allocatorIS1_EEEE @4224
    _ZTSNSt3__120__shared_ptr_pointerIP11T5AttentionNS_10shared_ptrI9GGMLBlockE27__shared_ptr_default_deleteIS4_S1_EENS_9allocatorIS1_EEEE @4225
    _ZTSNSt3__120__shared_ptr_pointerIP11T5LayerNormNS_10shared_ptrI9GGMLBlockE27__shared_ptr_default_deleteIS4_S1_EENS_9allocatorIS1_EEEE @4226
    _ZTSNSt3__120__shared_ptr_pointerIP11TinyDecoderNS_10shared_ptrI9GGMLBlockE27__shared_ptr_default_deleteIS4_S1_EENS_9allocatorIS1_EEEE @4227
    _ZTSNSt3__120__shared_ptr_pointerIP11TinyEncoderNS_10shared_ptrI9GGMLBlockE27__shared_ptr_default_deleteIS4_S1_EENS_9allocatorIS1_EEEE @4228
    _ZTSNSt3__120__shared_ptr_pointerIP12AlphaBlenderNS_10shared_ptrI9GGMLBlockE27__shared_ptr_default_deleteIS4_S1_EENS_9allocatorIS1_EEEE @4229
    _ZTSNSt3__120__shared_ptr_pointerIP13PMFeedForwardNS_10shared_ptrI9GGMLBlockE27__shared_ptr_default_deleteIS4_S1_EENS_9allocatorIS1_EEEE @4230
    _ZTSNSt3__120__shared_ptr_pointerIP13SelfAttentionNS_10shared_ptrI9GGMLBlockE27__shared_ptr_default_deleteIS4_S1_EENS_9allocatorIS1_EEEE @4231
    _ZTSNSt3__120__shared_ptr_pointerIP13UpSampleBlockNS_10shared_ptrI9GGMLBlockE27__shared_ptr_default_deleteIS4_S1_EENS_9allocatorIS1_EEEE @4232
    _ZTSNSt3__120__shared_ptr_pointerIP14CLIPEmbeddingsNS_10shared_ptrI9GGMLBlockE27__shared_ptr_default_deleteIS4_S1_EENS_9allocatorIS1_EEEE @4233
    _ZTSNSt3__120__shared_ptr_pointerIP14CLIPProjectionNS_10shared_ptrI9GGMLBlockE27__shared_ptr_default_deleteIS4_S1_EENS_9allocatorIS1_EEEE @4234
    _ZTSNSt3__120__shared_ptr_pointerIP14CrossAttentionNS_10shared_ptrI9GGMLBlockE27__shared_ptr_default_deleteIS4_S1_EENS_9allocatorIS1_EEEE @4235
    _ZTSNSt3__120__shared_ptr_pointerIP14VectorEmbedderNS_10shared_ptrI9GGMLBlockE27__shared_ptr_default_deleteIS4_S1_EENS_9allocatorIS1_EEEE @4236
    _ZTSNSt3__120__shared_ptr_pointerIP15CLIPVisionModelNS_10shared_ptrI9GGMLBlockE27__shared_ptr_default_deleteIS4_S1_EENS_9allocatorIS1_EEEE @4237
    _ZTSNSt3__120__shared_ptr_pointerIP15DismantledBlockNS_10shared_ptrI9GGMLBlockE27__shared_ptr_default_deleteIS4_S1_EENS_9allocatorIS1_EEEE @4238
    _ZTSNSt3__120__shared_ptr_pointerIP15DownSampleBlockNS_10shared_ptrI9GGMLBlockE27__shared_ptr_default_deleteIS4_S1_EENS_9allocatorIS1_EEEE @4239
    _ZTSNSt3__120__shared_ptr_pointerIP16QFormerPerceiverNS_10shared_ptrI9GGMLBlockE27__shared_ptr_default_deleteIS4_S1_EENS_9allocatorIS1_EEEE @4240
    _ZTSNSt3__120__shared_ptr_pointerIP16TimestepEmbedderNS_10shared_ptrI9GGMLBlockE27__shared_ptr_default_deleteIS4_S1_EENS_9allocatorIS1_EEEE @4241
    _ZTSNSt3__120__shared_ptr_pointerIP16TinyVideoDecoderNS_10shared_ptrI9GGMLBlockE27__shared_ptr_default_deleteIS4_S1_EENS_9allocatorIS1_EEEE @4242
    _ZTSNSt3__120__shared_ptr_pointerIP16TinyVideoEncoderNS_10shared_ptrI9GGMLBlockE27__shared_ptr_default_deleteIS4_S1_EENS_9allocatorIS1_EEEE @4243
    _ZTSNSt3__120__shared_ptr_pointerIP16VideoResnetBlockNS_10shared_ptrI9GGMLBlockE27__shared_ptr_default_deleteIS4_S1_EENS_9allocatorIS1_EEEE @4244
    _ZTSNSt3__120__shared_ptr_pointerIP18MultiheadAttentionNS_10shared_ptrI9GGMLBlockE27__shared_ptr_default_deleteIS4_S1_EENS_9allocatorIS1_EEEE @4245
    _ZTSNSt3__120__shared_ptr_pointerIP18PerceiverAttentionNS_10shared_ptrI9GGMLBlockE27__shared_ptr_default_deleteIS4_S1_EENS_9allocatorIS1_EEEE @4246
    _ZTSNSt3__120__shared_ptr_pointerIP18ResidualDenseBlockNS_10shared_ptrI9GGMLBlockE27__shared_ptr_default_deleteIS4_S1_EENS_9allocatorIS1_EEEE @4247
    _ZTSNSt3__120__shared_ptr_pointerIP18SpatialTransformerNS_10shared_ptrI9GGMLBlockE27__shared_ptr_default_deleteIS4_S1_EENS_9allocatorIS1_EEEE @4248
    _ZTSNSt3__120__shared_ptr_pointerIP20CLIPVisionEmbeddingsNS_10shared_ptrI9GGMLBlockE27__shared_ptr_default_deleteIS4_S1_EENS_9allocatorIS1_EEEE @4249
    _ZTSNSt3__120__shared_ptr_pointerIP20T5DenseGatedActDenseNS_10shared_ptrI9GGMLBlockE27__shared_ptr_default_deleteIS4_S1_EENS_9allocatorIS1_EEEE @4250
    _ZTSNSt3__120__shared_ptr_pointerIP20T5LayerSelfAttentionNS_10shared_ptrI9GGMLBlockE27__shared_ptr_default_deleteIS4_S1_EENS_9allocatorIS1_EEEE @4251
    _ZTSNSt3__120__shared_ptr_pointerIP21BasicTransformerBlockNS_10shared_ptrI9GGMLBlockE27__shared_ptr_default_deleteIS4_S1_EENS_9allocatorIS1_EEEE @4252
    _ZTSNSt3__120__shared_ptr_pointerIP22FacePerceiverResamplerNS_10shared_ptrI9GGMLBlockE27__shared_ptr_default_deleteIS4_S1_EENS_9allocatorIS1_EEEE @4253
    _ZTSNSt3__120__shared_ptr_pointerIP3MlpNS_10shared_ptrI9GGMLBlockE27__shared_ptr_default_deleteIS4_S1_EENS_9allocatorIS1_EEEE @4254
    _ZTSNSt3__120__shared_ptr_pointerIP4GELUNS_10shared_ptrI9GGMLBlockE27__shared_ptr_default_deleteIS4_S1_EENS_9allocatorIS1_EEEE @4255
    _ZTSNSt3__120__shared_ptr_pointerIP4RRDBNS_10shared_ptrI9GGMLBlockE27__shared_ptr_default_deleteIS4_S1_EENS_9allocatorIS1_EEEE @4256
    _ZTSNSt3__120__shared_ptr_pointerIP5GEGLUNS_10shared_ptrI9GGMLBlockE27__shared_ptr_default_deleteIS4_S1_EENS_9allocatorIS1_EEEE @4257
    _ZTSNSt3__120__shared_ptr_pointerIP5TGrowNS_10shared_ptrI9GGMLBlockE27__shared_ptr_default_deleteIS4_S1_EENS_9allocatorIS1_EEEE @4258
    _ZTSNSt3__120__shared_ptr_pointerIP5TPoolNS_10shared_ptrI9GGMLBlockE27__shared_ptr_default_deleteIS4_S1_EENS_9allocatorIS1_EEEE @4259
    _ZTSNSt3__120__shared_ptr_pointerIP6Conv2dNS_10shared_ptrI9GGMLBlockE27__shared_ptr_default_deleteIS4_S1_EENS_9allocatorIS1_EEEE @4260
    _ZTSNSt3__120__shared_ptr_pointerIP6Conv3dNS_10shared_ptrI9GGMLBlockE27__shared_ptr_default_deleteIS4_S1_EENS_9allocatorIS1_EEEE @4261
    _ZTSNSt3__120__shared_ptr_pointerIP6LinearNS_10shared_ptrI9GGMLBlockE27__shared_ptr_default_deleteIS4_S1_EENS_9allocatorIS1_EEEE @4262
    _ZTSNSt3__120__shared_ptr_pointerIP7CLIPMLPNS_10shared_ptrI9GGMLBlockE27__shared_ptr_default_deleteIS4_S1_EENS_9allocatorIS1_EEEE @4263
    _ZTSNSt3__120__shared_ptr_pointerIP7DecoderNS_10shared_ptrI9GGMLBlockE27__shared_ptr_default_deleteIS4_S1_EENS_9allocatorIS1_EEEE @4264
    _ZTSNSt3__120__shared_ptr_pointerIP7EncoderNS_10shared_ptrI9GGMLBlockE27__shared_ptr_default_deleteIS4_S1_EENS_9allocatorIS1_EEEE @4265
    _ZTSNSt3__120__shared_ptr_pointerIP7RMSNormNS_10shared_ptrI9GGMLBlockE27__shared_ptr_default_deleteIS4_S1_EENS_9allocatorIS1_EEEE @4266
    _ZTSNSt3__120__shared_ptr_pointerIP7T5BlockNS_10shared_ptrI9GGMLBlockE27__shared_ptr_default_deleteIS4_S1_EENS_9allocatorIS1_EEEE @4267
    _ZTSNSt3__120__shared_ptr_pointerIP7T5StackNS_10shared_ptrI9GGMLBlockE27__shared_ptr_default_deleteIS4_S1_EENS_9allocatorIS1_EEEE @4268
    _ZTSNSt3__120__shared_ptr_pointerIP8AE3DConvNS_10shared_ptrI9GGMLBlockE27__shared_ptr_default_deleteIS4_S1_EENS_9allocatorIS1_EEEE @4269
    _ZTSNSt3__120__shared_ptr_pointerIP8IdentityNS_10shared_ptrI9GGMLBlockE27__shared_ptr_default_deleteIS4_S1_EENS_9allocatorIS1_EEEE @4270
    _ZTSNSt3__120__shared_ptr_pointerIP8MemBlockNS_10shared_ptrI9GGMLBlockE27__shared_ptr_default_deleteIS4_S1_EENS_9allocatorIS1_EEEE @4271
    _ZTSNSt3__120__shared_ptr_pointerIP8ResBlockNS_10shared_ptrI9GGMLBlockE27__shared_ptr_default_deleteIS4_S1_EENS_9allocatorIS1_EEEE @4272
    _ZTSNSt3__120__shared_ptr_pointerIP8TAEBlockNS_10shared_ptrI9GGMLBlockE27__shared_ptr_default_deleteIS4_S1_EENS_9allocatorIS1_EEEE @4273
    _ZTSNSt3__120__shared_ptr_pointerIP9AttnBlockNS_10shared_ptrI9GGMLBlockE27__shared_ptr_default_deleteIS4_S1_EENS_9allocatorIS1_EEEE @4274
    _ZTSNSt3__120__shared_ptr_pointerIP9CLIPLayerNS_10shared_ptrI9GGMLBlockE27__shared_ptr_default_deleteIS4_S1_EENS_9allocatorIS1_EEEE @4275
    _ZTSNSt3__120__shared_ptr_pointerIP9EmbeddingNS_10shared_ptrI9GGMLBlockE27__shared_ptr_default_deleteIS4_S1_EENS_9allocatorIS1_EEEE @4276
    _ZTSNSt3__120__shared_ptr_pointerIP9FuseBlockNS_10shared_ptrI9GGMLBlockE27__shared_ptr_default_deleteIS4_S1_EENS_9allocatorIS1_EEEE @4277
    _ZTSNSt3__120__shared_ptr_pointerIP9GroupNormNS_10shared_ptrI9GGMLBlockE27__shared_ptr_default_deleteIS4_S1_EENS_9allocatorIS1_EEEE @4278
    _ZTSNSt3__120__shared_ptr_pointerIP9LayerNormNS_10shared_ptrI9GGMLBlockE27__shared_ptr_default_deleteIS4_S1_EENS_9allocatorIS1_EEEE @4279
    _ZTSNSt3__120__shared_ptr_pointerIP9T5LayerFFNS_10shared_ptrI9GGMLBlockE27__shared_ptr_default_deleteIS4_S1_EENS_9allocatorIS1_EEEE @4280
    _ZTSNSt3__120__shared_ptr_pointerIPN3LLM11PatchMergerENS_10shared_ptrI9GGMLBlockE27__shared_ptr_default_deleteIS5_S2_EENS_9allocatorIS2_EEEE @4281
    _ZTSNSt3__120__shared_ptr_pointerIPN3LLM11VisionBlockENS_10shared_ptrI9GGMLBlockE27__shared_ptr_default_deleteIS5_S2_EENS_9allocatorIS2_EEEE @4282
    _ZTSNSt3__120__shared_ptr_pointerIPN3LLM11VisionModelENS_10shared_ptrI9GGMLBlockE27__shared_ptr_default_deleteIS5_S2_EENS_9allocatorIS2_EEEE @4283
    _ZTSNSt3__120__shared_ptr_pointerIPN3LLM15VisionAttentionENS_10shared_ptrI9GGMLBlockE27__shared_ptr_default_deleteIS5_S2_EENS_9allocatorIS2_EEEE @4284
    _ZTSNSt3__120__shared_ptr_pointerIPN3LLM16TransformerBlockENS_10shared_ptrI9GGMLBlockE27__shared_ptr_default_deleteIS5_S2_EENS_9allocatorIS2_EEEE @4285
    _ZTSNSt3__120__shared_ptr_pointerIPN3LLM16VisionPatchEmbedENS_10shared_ptrI9GGMLBlockE27__shared_ptr_default_deleteIS5_S2_EENS_9allocatorIS2_EEEE @4286
    _ZTSNSt3__120__shared_ptr_pointerIPN3LLM3MLPENS_10shared_ptrI9GGMLBlockE27__shared_ptr_default_deleteIS5_S2_EENS_9allocatorIS2_EEEE @4287
    _ZTSNSt3__120__shared_ptr_pointerIPN3LLM9TextModelENS_10shared_ptrI9GGMLBlockE27__shared_ptr_default_deleteIS5_S2_EENS_9allocatorIS2_EEEE @4288
    _ZTSNSt3__120__shared_ptr_pointerIPN3WAN12CausalConv3dENS_10shared_ptrI9GGMLBlockE27__shared_ptr_default_deleteIS5_S2_EENS_9allocatorIS2_EEEE @4289
    _ZTSNSt3__120__shared_ptr_pointerIPN3WAN13ResidualBlockENS_10shared_ptrI9GGMLBlockE27__shared_ptr_default_deleteIS5_S2_EENS_9allocatorIS2_EEEE @4290
    _ZTSNSt3__120__shared_ptr_pointerIPN3WAN14AttentionBlockENS_10shared_ptrI9GGMLBlockE27__shared_ptr_default_deleteIS5_S2_EENS_9allocatorIS2_EEEE @4291
    _ZTSNSt3__120__shared_ptr_pointerIPN3WAN16Up_ResidualBlockENS_10shared_ptrI9GGMLBlockE27__shared_ptr_default_deleteIS5_S2_EENS_9allocatorIS2_EEEE @4292
    _ZTSNSt3__120__shared_ptr_pointerIPN3WAN16WanSelfAttentionENS_10shared_ptrI9GGMLBlockE27__shared_ptr_default_deleteIS5_S2_EENS_9allocatorIS2_EEEE @4293
    _ZTSNSt3__120__shared_ptr_pointerIPN3WAN17WanAttentionBlockENS_10shared_ptrI9GGMLBlockE27__shared_ptr_default_deleteIS5_S2_EENS_9allocatorIS2_EEEE @4294
    _ZTSNSt3__120__shared_ptr_pointerIPN3WAN18Down_ResidualBlockENS_10shared_ptrI9GGMLBlockE27__shared_ptr_default_deleteIS5_S2_EENS_9allocatorIS2_EEEE @4295
    _ZTSNSt3__120__shared_ptr_pointerIPN3WAN20WanI2VCrossAttentionENS_10shared_ptrI9GGMLBlockE27__shared_ptr_default_deleteIS5_S2_EENS_9allocatorIS2_EEEE @4296
    _ZTSNSt3__120__shared_ptr_pointerIPN3WAN20WanT2VCrossAttentionENS_10shared_ptrI9GGMLBlockE27__shared_ptr_default_deleteIS5_S2_EENS_9allocatorIS2_EEEE @4297
    _ZTSNSt3__120__shared_ptr_pointerIPN3WAN21VaceWanAttentionBlockENS_10shared_ptrI9GGMLBlockE27__shared_ptr_default_deleteIS5_S2_EENS_9allocatorIS2_EEEE @4298
    _ZTSNSt3__120__shared_ptr_pointerIPN3WAN4HeadENS_10shared_ptrI9GGMLBlockE27__shared_ptr_default_deleteIS5_S2_EENS_9allocatorIS2_EEEE @4299
    _ZTSNSt3__120__shared_ptr_pointerIPN3WAN7DupUp3DENS_10shared_ptrI9GGMLBlockE27__shared_ptr_default_deleteIS5_S2_EENS_9allocatorIS2_EEEE @4300
    _ZTSNSt3__120__shared_ptr_pointerIPN3WAN7MLPProjENS_10shared_ptrI9GGMLBlockE27__shared_ptr_default_deleteIS5_S2_EENS_9allocatorIS2_EEEE @4301
    _ZTSNSt3__120__shared_ptr_pointerIPN3WAN8RMS_normENS_10shared_ptrI9GGMLBlockE27__shared_ptr_default_deleteIS5_S2_EENS_9allocatorIS2_EEEE @4302
    _ZTSNSt3__120__shared_ptr_pointerIPN3WAN8ResampleENS_10shared_ptrI9GGMLBlockE27__shared_ptr_default_deleteIS5_S2_EENS_9allocatorIS2_EEEE @4303
    _ZTSNSt3__120__shared_ptr_pointerIPN3WAN9AvgDown3DENS_10shared_ptrI9GGMLBlockE27__shared_ptr_default_deleteIS5_S2_EENS_9allocatorIS2_EEEE @4304
    _ZTSNSt3__120__shared_ptr_pointerIPN3WAN9Decoder3dENS_10shared_ptrI9GGMLBlockE27__shared_ptr_default_deleteIS5_S2_EENS_9allocatorIS2_EEEE @4305
    _ZTSNSt3__120__shared_ptr_pointerIPN3WAN9Encoder3dENS_10shared_ptrI9GGMLBlockE27__shared_ptr_default_deleteIS5_S2_EENS_9allocatorIS2_EEEE @4306
    _ZTSNSt3__120__shared_ptr_pointerIPN4Flux10ModulationENS_10shared_ptrI9GGMLBlockE27__shared_ptr_default_deleteIS5_S2_EENS_9allocatorIS2_EEEE @4307
    _ZTSNSt3__120__shared_ptr_pointerIPN4Flux11MLPEmbedderENS_10shared_ptrI9GGMLBlockE27__shared_ptr_default_deleteIS5_S2_EENS_9allocatorIS2_EEEE @4308
    _ZTSNSt3__120__shared_ptr_pointerIPN4Flux13SelfAttentionENS_10shared_ptrI9GGMLBlockE27__shared_ptr_default_deleteIS5_S2_EENS_9allocatorIS2_EEEE @4309
    _ZTSNSt3__120__shared_ptr_pointerIPN4Flux3MLPENS_10shared_ptrI9GGMLBlockE27__shared_ptr_default_deleteIS5_S2_EENS_9allocatorIS2_EEEE @4310
    _ZTSNSt3__120__shared_ptr_pointerIPN4Flux6QKNormENS_10shared_ptrI9GGMLBlockE27__shared_ptr_default_deleteIS5_S2_EENS_9allocatorIS2_EEEE @4311
    _ZTSNSt3__120__shared_ptr_pointerIPN4Flux6YakMLPENS_10shared_ptrI9GGMLBlockE27__shared_ptr_default_deleteIS5_S2_EENS_9allocatorIS2_EEEE @4312
    _ZTSNSt3__120__shared_ptr_pointerIPN4Flux7RMSNormENS_10shared_ptrI9GGMLBlockE27__shared_ptr_default_deleteIS5_S2_EENS_9allocatorIS2_EEEE @4313
    _ZTSNSt3__120__shared_ptr_pointerIPN4Qwen17TimestepEmbeddingENS_10shared_ptrI9GGMLBlockE27__shared_ptr_default_deleteIS5_S2_EENS_9allocatorIS2_EEEE @4314
    _ZTSNSt3__120__shared_ptr_pointerIPN4Qwen18QwenImageAttentionENS_10shared_ptrI9GGMLBlockE27__shared_ptr_default_deleteIS5_S2_EENS_9allocatorIS2_EEEE @4315
    _ZTSNSt3__120__shared_ptr_pointerIPN4Qwen22AdaLayerNormContinuousENS_10shared_ptrI9GGMLBlockE27__shared_ptr_default_deleteIS5_S2_EENS_9allocatorIS2_EEEE @4316
    _ZTSNSt3__120__shared_ptr_pointerIPN4Qwen25QwenImageTransformerBlockENS_10shared_ptrI9GGMLBlockE27__shared_ptr_default_deleteIS5_S2_EENS_9allocatorIS2_EEEE @4317
    _ZTSNSt3__120__shared_ptr_pointerIPN4Qwen26QwenTimestepProjEmbeddingsENS_10shared_ptrI9GGMLBlockE27__shared_ptr_default_deleteIS5_S2_EENS_9allocatorIS2_EEEE @4318
    _ZTSNSt3__120__shared_ptr_pointerIPNS_13__empty_stateIcEENS_10shared_ptrIS2_E27__shared_ptr_default_deleteIS2_S2_EENS_9allocatorIS2_EEEE @4319
    _ZTSNSt3__121__empty_non_own_stateIcEE @4320
    _ZTSNSt3__123__match_any_but_newlineIcEE @4321
    _ZTSNSt3__126__end_marked_subexpressionIcEE @4322
    _ZTSNSt3__128__begin_marked_subexpressionIcEE @4323
    _ZTSNSt3__134__binary_function_keep_layout_baseIP8DenoiserffEE @4324
    _ZTSNSt3__16__bindIM8DenoiserFffEJPS1_RKNS_12placeholders4__phILi1EEEEEE @4325
    _ZTSNSt3__16__loopIcEE @4326
    _ZTSNSt3__16__nodeIcEE @4327
    _ZTSNSt3__16locale5facetE @4328
    _ZTSNSt3__17codecvtIDiciEE @4329
    _ZTSNSt3__18ios_baseE @4330
    _ZTSNSt3__19basic_iosIcNS_11char_traitsIcEEEE @4331
    _ZTSPFviiP10sd_image_tbPvE @4332
    _ZTSSt11logic_error @4333
    _ZTSSt11range_error @4334
    _ZTSSt12length_error @4335
    _ZTSSt12out_of_range @4336
    _ZTSSt13runtime_error @4337
    _ZTSSt20bad_array_new_length @4338
    _ZTSSt8bad_cast @4339
    _ZTSSt9bad_alloc @4340
    _ZTSSt9exception @4341
    _ZTSZN10ControlNet7computeEiP11ggml_tensorS1_S1_S1_S1_PS1_P12ggml_contextEUlvE_ @4342
    _ZTSZN11LLMEmbedder21get_learned_conditionEP12ggml_contextiRK17ConditionerParamsEUlP11ggml_tensorxxxxE0_ @4343
    _ZTSZN11LLMEmbedder21get_learned_conditionEP12ggml_contextiRK17ConditionerParamsEUlP11ggml_tensorxxxxE_ @4344
    _ZTSZN11MMDiTRunner7computeEiP11ggml_tensorS1_S1_S1_PS1_P12ggml_contextNSt3__16vectorIiNS5_9allocatorIiEEEEEUlvE_ @4345
    _ZTSZN12UpscalerGGML7upscaleE10sd_image_tjEUlP11ggml_tensorS2_bE_ @4346
    _ZTSZN13AutoEncoderKL7computeEiP11ggml_tensorbPS1_P12ggml_contextEUlvE_ @4347
    _ZTSZN15SD3CLIPEmbedder8tokenizeENSt3__112basic_stringIcNS0_11char_traitsIcEENS0_9allocatorIcEEEEybEUlRS6_RNS0_6vectorIiNS4_IiEEEEE_ @4348
    _ZTSZN15UNetModelRunner7computeEiP11ggml_tensorS1_S1_S1_S1_iNSt3__16vectorIS1_NS2_9allocatorIS1_EEEEfPS1_P12ggml_contextEUlvE_ @4349
    _ZTSZN16FluxCLIPEmbedder8tokenizeENSt3__112basic_stringIcNS0_11char_traitsIcEENS0_9allocatorIcEEEEybEUlRS6_RNS0_6vectorIiNS4_IiEEEEE_ @4350
    _ZTSZN19CLIPTextModelRunner7computeEiP11ggml_tensoriPvybiPS1_P12ggml_contextEUlvE_ @4351
    _ZTSZN19PhotoMakerIDEncoder7computeEiP11ggml_tensorS1_S1_RNSt3__16vectorIbNS2_9allocatorIbEEEEPS1_P12ggml_contextEUlvE_ @4352
    _ZTSZN19StableDiffusionGGML10vae_encodeEP12ggml_contextP11ggml_tensorbEUlS3_S3_bE0_ @4353
    _ZTSZN19StableDiffusionGGML10vae_encodeEP12ggml_contextP11ggml_tensorbEUlS3_S3_bE_ @4354
    _ZTSZN19StableDiffusionGGML13preview_imageEP12ggml_contextiP11ggml_tensor9SDVersion9preview_tS3_NSt3__18functionIFviiP10sd_image_tbPvEEESA_bEUlS3_S3_bE0_ @4355
    _ZTSZN19StableDiffusionGGML13preview_imageEP12ggml_contextiP11ggml_tensor9SDVersion9preview_tS3_NSt3__18functionIFviiP10sd_image_tbPvEEESA_bEUlS3_S3_bE_ @4356
    _ZTSZN19StableDiffusionGGML17get_pmid_conditonEP12ggml_context14sd_pm_params_tR17ConditionerParamsEUlP11ggml_tensorxxxxE_ @4357
    _ZTSZN19StableDiffusionGGML17process_latent_inEP11ggml_tensorEUlS1_xxxxE_ @4358
    _ZTSZN19StableDiffusionGGML18decode_first_stageEP12ggml_contextP11ggml_tensorbEUlS3_S3_bE0_ @4359
    _ZTSZN19StableDiffusionGGML18decode_first_stageEP12ggml_contextP11ggml_tensorbEUlS3_S3_bE_ @4360
    _ZTSZN19StableDiffusionGGML18process_latent_outEP11ggml_tensorEUlS1_xxxxE_ @4361
    _ZTSZN19StableDiffusionGGML22apply_loras_at_runtimeERKNSt3__113unordered_mapINS0_12basic_stringIcNS0_11char_traitsIcEENS0_9allocatorIcEEEEfNS0_4hashIS7_EENS0_8equal_toIS7_EENS5_INS0_4pairIKS7_fEEEEEEEUlRSD_E0_ @4362
    _ZTSZN19StableDiffusionGGML22apply_loras_at_runtimeERKNSt3__113unordered_mapINS0_12basic_stringIcNS0_11char_traitsIcEENS0_9allocatorIcEEEEfNS0_4hashIS7_EENS0_8equal_toIS7_EENS5_INS0_4pairIKS7_fEEEEEEEUlRSD_E1_ @4363
    _ZTSZN19StableDiffusionGGML22apply_loras_at_runtimeERKNSt3__113unordered_mapINS0_12basic_stringIcNS0_11char_traitsIcEENS0_9allocatorIcEEEEfNS0_4hashIS7_EENS0_8equal_toIS7_EENS5_INS0_4pairIKS7_fEEEEEEEUlRSD_E_ @4364
    _ZTSZN19StableDiffusionGGML4initEPK15sd_ctx_params_tEUlRKNSt3__112basic_stringIcNS3_11char_traitsIcEENS3_9allocatorIcEEEEE_ @4365
    _ZTSZN19StableDiffusionGGML6sampleEP12ggml_contextNSt3__110shared_ptrI14DiffusionModelEEbP11ggml_tensorS7_11SDConditionS8_S8_S7_f20sd_guidance_params_tfi15sample_method_tRKNS2_6vectorIfNS2_9allocatorIfEEEEiS8_NSB_IS7_NSC_IS7_EEEEbS7_S7_ @4366
    _ZTSZN20TinyImageAutoEncoder7computeEiP11ggml_tensorbPS1_P12ggml_contextEUlvE_ @4367
    _ZTSZN20TinyVideoAutoEncoder7computeEiP11ggml_tensorbPS1_P12ggml_contextEUlvE_ @4368
    _ZTSZN24FrozenCLIPVisionEmbedder7computeEiP11ggml_tensorbiPS1_P12ggml_contextEUlvE_ @4369
    _ZTSZN33FrozenCLIPEmbedderWithCustomWords14load_embeddingENSt3__112basic_stringIcNS0_11char_traitsIcEENS0_9allocatorIcEEEES6_RNS0_6vectorIiNS4_IiEEEEEUlRK13TensorStoragePP11ggml_tensorE_ @4370
    _ZTSZN33FrozenCLIPEmbedderWithCustomWords19convert_token_to_idENSt3__112basic_stringIcNS0_11char_traitsIcEENS0_9allocatorIcEEEEEUlRS6_RNS0_6vectorIiNS4_IiEEEEE_ @4371
    _ZTSZN33FrozenCLIPEmbedderWithCustomWords27tokenize_with_trigger_tokenENSt3__112basic_stringIcNS0_11char_traitsIcEENS0_9allocatorIcEEEEiiybEUlRS6_RNS0_6vectorIiNS4_IiEEEEE_ @4372
    _ZTSZN33FrozenCLIPEmbedderWithCustomWords8tokenizeENSt3__112basic_stringIcNS0_11char_traitsIcEENS0_9allocatorIcEEEEybEUlRS6_RNS0_6vectorIiNS4_IiEEEEE_ @4373
    _ZTSZN3LLM9LLMRunner12encode_imageEiP11ggml_tensorPS2_P12ggml_contextEUlvE_ @4374
    _ZTSZN3LLM9LLMRunner7computeEiP11ggml_tensorS2_NSt3__16vectorINS3_4pairIiS2_EENS3_9allocatorIS6_EEEENS3_3setIiNS3_4lessIiEENS7_IiEEEEPS2_P12ggml_contextEUlvE_ @4375
    _ZTSZN3WAN12WanVAERunner7computeEiP11ggml_tensorbPS2_P12ggml_contextEUlvE_ @4376
    _ZTSZN3WAN9WanRunner7computeEiP11ggml_tensorS2_S2_S2_S2_S2_S2_fPS2_P12ggml_contextEUlvE_ @4377
    _ZTSZN4Flux10FluxRunner7computeEiP11ggml_tensorS2_S2_S2_S2_S2_NSt3__16vectorIS2_NS3_9allocatorIS2_EEEEbPS2_P12ggml_contextNS4_IiNS5_IiEEEEEUlvE_ @4378
    _ZTSZN4Qwen15QwenImageRunner7computeEiP11ggml_tensorS2_S2_NSt3__16vectorIS2_NS3_9allocatorIS2_EEEEbPS2_P12ggml_contextEUlvE_ @4379
    _ZTSZN6ESRGAN7computeEiP11ggml_tensorPS1_P12ggml_contextEUlvE_ @4380
    _ZTSZN6ZImage12ZImageRunner7computeEiP11ggml_tensorS2_S2_NSt3__16vectorIS2_NS3_9allocatorIS2_EEEEbPS2_P12ggml_contextEUlvE_ @4381
    _ZTSZN7FakeVAE7computeEiP11ggml_tensorbPS1_P12ggml_contextEUlS1_xxxxE_ @4382
    _ZTSZN8T5Runner7computeEiP11ggml_tensorS1_PS1_P12ggml_contextEUlvE_ @4383
    _ZTSZN9LoraModel14load_from_fileEiNSt3__18functionIFbRKNS0_12basic_stringIcNS0_11char_traitsIcEENS0_9allocatorIcEEEEEEEEUlRK13TensorStoragePP11ggml_tensorE_ @4384
    _ZTSZN9LoraModel5applyENSt3__13mapINS0_12basic_stringIcNS0_11char_traitsIcEENS0_9allocatorIcEEEEP11ggml_tensorNS0_4lessIS7_EENS5_INS0_4pairIKS7_S9_EEEEEE9SDVersioniEUlvE_ @4385
    _ZTTNSt3__114basic_ifstreamIcNS_11char_traitsIcEEEE @4386
    _ZTTNSt3__118basic_stringstreamIcNS_11char_traitsIcEENS_9allocatorIcEEEE @4387
